

Microchip MPLAB XC8 Assembler V2.40 build 20220703182018 
                                                                                               Thu Apr 13 15:16:34 2023

Microchip MPLAB XC8 C Compiler v2.40 (Free license) build 20220703182018 Og1 
     1                           	processor	16F887
     2                           	pagewidth 120
     3                           	opt	flic
     4                           	psect	cinit,global,class=CODE,merge=1,delta=2
     5                           	psect	bssBANK1,global,class=BANK1,space=1,delta=1,noexec
     6                           	psect	bssBANK3,global,class=BANK3,space=1,delta=1,noexec
     7                           	psect	cstackBANK3,global,class=BANK3,space=1,delta=1,noexec
     8                           	psect	cstackBANK1,global,class=BANK1,space=1,delta=1,noexec
     9                           	psect	cstackCOMMON,global,class=COMMON,space=1,delta=1,noexec
    10                           	psect	cstackBANK0,global,class=BANK0,space=1,delta=1,noexec
    11                           	psect	maintext,global,class=CODE,split=1,delta=2
    12                           	psect	text1,local,class=CODE,merge=1,delta=2
    13                           	psect	text2,local,class=CODE,merge=1,delta=2
    14                           	psect	text3,local,class=CODE,merge=1,delta=2,group=1
    15                           	psect	text4,local,class=CODE,merge=1,delta=2,group=1
    16                           	psect	text5,local,class=CODE,merge=1,delta=2
    17                           	psect	text6,local,class=CODE,merge=1,delta=2,group=1
    18                           	psect	text7,local,class=CODE,merge=1,delta=2,group=1
    19                           	psect	text8,local,class=CODE,merge=1,delta=2,group=1
    20                           	psect	text9,local,class=CODE,merge=1,delta=2
    21                           	psect	intentry,global,class=CODE,delta=2
    22                           	psect	text10,local,class=CODE,merge=1,delta=2
    23                           	psect	text11,local,class=CODE,merge=1,delta=2
    24                           	psect	text12,local,class=CODE,merge=1,delta=2
    25                           	psect	text13,local,class=CODE,merge=1,delta=2
    26                           	psect	text14,local,class=CODE,merge=1,delta=2
    27                           	psect	text15,local,class=CODE,merge=1,delta=2
    28                           	psect	text16,local,class=CODE,merge=1,delta=2
    29                           	psect	idloc,global,abs,ovrld,class=IDLOC,space=5,delta=2,noexec
    30                           	psect	config,global,abs,ovrld,class=CONFIG,space=4,delta=2,noexec
    31                           	dabs	1,0x7E,2
    32     0000                     
    33                           ; Version 2.40
    34                           ; Generated 17/11/2021 GMT
    35                           ; 
    36                           ; Copyright © 2021, Microchip Technology Inc. and its subsidiaries ("Microchip")
    37                           ; All rights reserved.
    38                           ; 
    39                           ; This software is developed by Microchip Technology Inc. and its subsidiaries ("Microch
      +                          ip").
    40                           ; 
    41                           ; Redistribution and use in source and binary forms, with or without modification, are
    42                           ; permitted provided that the following conditions are met:
    43                           ; 
    44                           ;     1. Redistributions of source code must retain the above copyright notice, this lis
      +                          t of
    45                           ;        conditions and the following disclaimer.
    46                           ; 
    47                           ;     2. Redistributions in binary form must reproduce the above copyright notice, this 
      +                          list
    48                           ;        of conditions and the following disclaimer in the documentation and/or other
    49                           ;        materials provided with the distribution. Publication is not required when
    50                           ;        this file is used in an embedded application.
    51                           ; 
    52                           ;     3. Microchip's name may not be used to endorse or promote products derived from th
      +                          is
    53                           ;        software without specific prior written permission.
    54                           ; 
    55                           ; THIS SOFTWARE IS PROVIDED BY MICROCHIP "AS IS" AND ANY EXPRESS OR IMPLIED WARRANTIES,
    56                           ; INCLUDING, BUT NOT LIMITED TO, THE IMPLIED WARRANTIES OF MERCHANTABILITY AND FITNESS F
      +                          OR
    57                           ; PURPOSE ARE DISCLAIMED.  IN NO EVENT SHALL MICROCHIP BE LIABLE FOR ANY DIRECT, INDIREC
      +                          T,
    58                           ; INCIDENTAL, SPECIAL, EXEMPLARY, OR CONSEQUENTIAL DAMAGES (INCLUDING BUT NOT LIMITED TO
    59                           ; PROCUREMENT OF SUBSTITUTE GOODS OR SERVICES; LOSS OF USE, DATA OR PROFITS; OR BUSINESS
    60                           ; INTERRUPTION) HOWSOEVER CAUSED AND ON ANY THEORY OF LIABILITY, WHETHER IN CONTRACT, ST
      +                          RICT
    61                           ; LIABILITY, OR TORT (INCLUDING NEGLIGENCE OR OTHERWISE) ARISING IN ANY WAY OUT OF THE U
      +                          SE OF
    62                           ; THIS SOFTWARE, EVEN IF ADVISED OF THE POSSIBILITY OF SUCH DAMAGE.
    63                           ; 
    64                           ; 
    65                           ; Code-generator required, PIC16F887 Definitions
    66                           ; 
    67                           ; SFR Addresses
    68     0000                     	;# 
    69     0001                     	;# 
    70     0002                     	;# 
    71     0003                     	;# 
    72     0004                     	;# 
    73     0005                     	;# 
    74     0006                     	;# 
    75     0007                     	;# 
    76     0008                     	;# 
    77     0009                     	;# 
    78     000A                     	;# 
    79     000B                     	;# 
    80     000C                     	;# 
    81     000D                     	;# 
    82     000E                     	;# 
    83     000E                     	;# 
    84     000F                     	;# 
    85     0010                     	;# 
    86     0011                     	;# 
    87     0012                     	;# 
    88     0013                     	;# 
    89     0014                     	;# 
    90     0015                     	;# 
    91     0015                     	;# 
    92     0016                     	;# 
    93     0017                     	;# 
    94     0018                     	;# 
    95     0019                     	;# 
    96     001A                     	;# 
    97     001B                     	;# 
    98     001B                     	;# 
    99     001C                     	;# 
   100     001D                     	;# 
   101     001E                     	;# 
   102     001F                     	;# 
   103     0081                     	;# 
   104     0085                     	;# 
   105     0086                     	;# 
   106     0087                     	;# 
   107     0088                     	;# 
   108     0089                     	;# 
   109     008C                     	;# 
   110     008D                     	;# 
   111     008E                     	;# 
   112     008F                     	;# 
   113     0090                     	;# 
   114     0091                     	;# 
   115     0092                     	;# 
   116     0093                     	;# 
   117     0093                     	;# 
   118     0093                     	;# 
   119     0094                     	;# 
   120     0095                     	;# 
   121     0096                     	;# 
   122     0097                     	;# 
   123     0098                     	;# 
   124     0099                     	;# 
   125     009A                     	;# 
   126     009B                     	;# 
   127     009C                     	;# 
   128     009D                     	;# 
   129     009E                     	;# 
   130     009F                     	;# 
   131     0105                     	;# 
   132     0107                     	;# 
   133     0108                     	;# 
   134     0109                     	;# 
   135     010C                     	;# 
   136     010C                     	;# 
   137     010D                     	;# 
   138     010E                     	;# 
   139     010F                     	;# 
   140     0185                     	;# 
   141     0187                     	;# 
   142     0188                     	;# 
   143     0189                     	;# 
   144     018C                     	;# 
   145     018D                     	;# 
   146     0000                     	;# 
   147     0001                     	;# 
   148     0002                     	;# 
   149     0003                     	;# 
   150     0004                     	;# 
   151     0005                     	;# 
   152     0006                     	;# 
   153     0007                     	;# 
   154     0008                     	;# 
   155     0009                     	;# 
   156     000A                     	;# 
   157     000B                     	;# 
   158     000C                     	;# 
   159     000D                     	;# 
   160     000E                     	;# 
   161     000E                     	;# 
   162     000F                     	;# 
   163     0010                     	;# 
   164     0011                     	;# 
   165     0012                     	;# 
   166     0013                     	;# 
   167     0014                     	;# 
   168     0015                     	;# 
   169     0015                     	;# 
   170     0016                     	;# 
   171     0017                     	;# 
   172     0018                     	;# 
   173     0019                     	;# 
   174     001A                     	;# 
   175     001B                     	;# 
   176     001B                     	;# 
   177     001C                     	;# 
   178     001D                     	;# 
   179     001E                     	;# 
   180     001F                     	;# 
   181     0081                     	;# 
   182     0085                     	;# 
   183     0086                     	;# 
   184     0087                     	;# 
   185     0088                     	;# 
   186     0089                     	;# 
   187     008C                     	;# 
   188     008D                     	;# 
   189     008E                     	;# 
   190     008F                     	;# 
   191     0090                     	;# 
   192     0091                     	;# 
   193     0092                     	;# 
   194     0093                     	;# 
   195     0093                     	;# 
   196     0093                     	;# 
   197     0094                     	;# 
   198     0095                     	;# 
   199     0096                     	;# 
   200     0097                     	;# 
   201     0098                     	;# 
   202     0099                     	;# 
   203     009A                     	;# 
   204     009B                     	;# 
   205     009C                     	;# 
   206     009D                     	;# 
   207     009E                     	;# 
   208     009F                     	;# 
   209     0105                     	;# 
   210     0107                     	;# 
   211     0108                     	;# 
   212     0109                     	;# 
   213     010C                     	;# 
   214     010C                     	;# 
   215     010D                     	;# 
   216     010E                     	;# 
   217     010F                     	;# 
   218     0185                     	;# 
   219     0187                     	;# 
   220     0188                     	;# 
   221     0189                     	;# 
   222     018C                     	;# 
   223     018D                     	;# 
   224     0000                     	;# 
   225     0001                     	;# 
   226     0002                     	;# 
   227     0003                     	;# 
   228     0004                     	;# 
   229     0005                     	;# 
   230     0006                     	;# 
   231     0007                     	;# 
   232     0008                     	;# 
   233     0009                     	;# 
   234     000A                     	;# 
   235     000B                     	;# 
   236     000C                     	;# 
   237     000D                     	;# 
   238     000E                     	;# 
   239     000E                     	;# 
   240     000F                     	;# 
   241     0010                     	;# 
   242     0011                     	;# 
   243     0012                     	;# 
   244     0013                     	;# 
   245     0014                     	;# 
   246     0015                     	;# 
   247     0015                     	;# 
   248     0016                     	;# 
   249     0017                     	;# 
   250     0018                     	;# 
   251     0019                     	;# 
   252     001A                     	;# 
   253     001B                     	;# 
   254     001B                     	;# 
   255     001C                     	;# 
   256     001D                     	;# 
   257     001E                     	;# 
   258     001F                     	;# 
   259     0081                     	;# 
   260     0085                     	;# 
   261     0086                     	;# 
   262     0087                     	;# 
   263     0088                     	;# 
   264     0089                     	;# 
   265     008C                     	;# 
   266     008D                     	;# 
   267     008E                     	;# 
   268     008F                     	;# 
   269     0090                     	;# 
   270     0091                     	;# 
   271     0092                     	;# 
   272     0093                     	;# 
   273     0093                     	;# 
   274     0093                     	;# 
   275     0094                     	;# 
   276     0095                     	;# 
   277     0096                     	;# 
   278     0097                     	;# 
   279     0098                     	;# 
   280     0099                     	;# 
   281     009A                     	;# 
   282     009B                     	;# 
   283     009C                     	;# 
   284     009D                     	;# 
   285     009E                     	;# 
   286     009F                     	;# 
   287     0105                     	;# 
   288     0107                     	;# 
   289     0108                     	;# 
   290     0109                     	;# 
   291     010C                     	;# 
   292     010C                     	;# 
   293     010D                     	;# 
   294     010E                     	;# 
   295     010F                     	;# 
   296     0185                     	;# 
   297     0187                     	;# 
   298     0188                     	;# 
   299     0189                     	;# 
   300     018C                     	;# 
   301     018D                     	;# 
   302     0009                     _PORTE	set	9
   303     0008                     _PORTD	set	8
   304     0007                     _PORTC	set	7
   305     0005                     _PORTA	set	5
   306     0007                     _PORTCbits	set	7
   307     0006                     _PORTB	set	6
   308     001E                     _ADRESH	set	30
   309     001F                     _ADCON0bits	set	31
   310     0001                     _TMR0	set	1
   311     000B                     _INTCONbits	set	11
   312     0012                     _T2CONbits	set	18
   313     000C                     _PIR1bits	set	12
   314     001B                     _CCPR2L	set	27
   315     001D                     _CCP2CONbits	set	29
   316     0015                     _CCPR1L	set	21
   317     0017                     _CCP1CONbits	set	23
   318     009F                     _ADCON1bits	set	159
   319     008C                     _PIE1bits	set	140
   320     0081                     _OPTION_REGbits	set	129
   321     008F                     _OSCCONbits	set	143
   322     0089                     _TRISE	set	137
   323     0088                     _TRISD	set	136
   324     0087                     _TRISC	set	135
   325     0086                     _TRISB	set	134
   326     0087                     _TRISCbits	set	135
   327     0092                     _PR2	set	146
   328     0189                     _ANSELH	set	393
   329     0188                     _ANSELbits	set	392
   330                           
   331                           	psect	cinit
   332     0013                     start_initialization:	
   333                           ; #config settings
   334                           
   335     0013                     __initialization:
   336                           
   337                           ; Clear objects allocated to BANK1
   338     0013  1683               	bsf	3,5	;RP0=1, select bank1
   339     0014  1303               	bcf	3,6	;RP1=0, select bank1
   340     0015  01E8               	clrf	__pbssBANK1& (0+127)
   341     0016  01E9               	clrf	(__pbssBANK1+1)& (0+127)
   342     0017  01EA               	clrf	(__pbssBANK1+2)& (0+127)
   343     0018  01EB               	clrf	(__pbssBANK1+3)& (0+127)
   344                           
   345                           ; Clear objects allocated to BANK3
   346     0019  1683               	bsf	3,5	;RP0=1, select bank3
   347     001A  1703               	bsf	3,6	;RP1=1, select bank3
   348     001B  01A4               	clrf	__pbssBANK3& (0+127)
   349     001C  01A5               	clrf	(__pbssBANK3+1)& (0+127)
   350     001D  01A6               	clrf	(__pbssBANK3+2)& (0+127)
   351     001E  01A7               	clrf	(__pbssBANK3+3)& (0+127)
   352     001F  01A8               	clrf	(__pbssBANK3+4)& (0+127)
   353     0020  01A9               	clrf	(__pbssBANK3+5)& (0+127)
   354     0021  01AA               	clrf	(__pbssBANK3+6)& (0+127)
   355     0022  01AB               	clrf	(__pbssBANK3+7)& (0+127)
   356     0023                     end_of_initialization:	
   357                           ;End of C runtime variable initialization code
   358                           
   359     0023                     __end_of__initialization:
   360     0023  0183               	clrf	3
   361     0024  120A  158A  2B59   	ljmp	_main	;jump to C main() function
   362                           
   363                           	psect	bssBANK1
   364     00E8                     __pbssBANK1:
   365     00E8                     _dutyPot:
   366     00E8                     	ds	2
   367     00EA                     _i:
   368     00EA                     	ds	2
   369                           
   370                           	psect	bssBANK3
   371     01A4                     __pbssBANK3:
   372     01A4                     _periodoPot:
   373     01A4                     	ds	2
   374     01A6                     _potMapeado:
   375     01A6                     	ds	4
   376     01AA                     _potenciometro:
   377     01AA                     	ds	2
   378                           
   379                           	psect	cstackBANK3
   380     0190                     __pcstackBANK3:
   381     0190                     ?___fltol:
   382     0190                     ___fltol@f1:	
   383                           ; 4 bytes @ 0x0
   384                           
   385                           
   386                           ; 4 bytes @ 0x0
   387     0190                     	ds	4
   388     0194                     ??___fltol:
   389                           
   390                           ; 1 bytes @ 0x4
   391     0194                     	ds	4
   392     0198                     ?_PWM_config:
   393     0198                     ?_PWM_duty:	
   394                           ; 1 bytes @ 0x8
   395                           
   396     0198                     PWM_config@periodo_ms:	
   397                           ; 1 bytes @ 0x8
   398                           
   399     0198                     PWM_duty@duty:	
   400                           ; 4 bytes @ 0x8
   401                           
   402                           
   403                           ; 4 bytes @ 0x8
   404     0198                     	ds	4
   405     019C                     ??_PWM_duty:
   406     019C                     PWM_config@canal:	
   407                           ; 1 bytes @ 0xC
   408                           
   409                           
   410                           ; 1 bytes @ 0xC
   411     019C                     	ds	3
   412     019F                     PWM_duty@canal:
   413                           
   414                           ; 1 bytes @ 0xF
   415     019F                     	ds	1
   416     01A0                     PWM_duty@particion:
   417                           
   418                           ; 2 bytes @ 0x10
   419     01A0                     	ds	2
   420     01A2                     ??_setup:
   421                           
   422                           ; 1 bytes @ 0x12
   423     01A2                     	ds	1
   424     01A3                     ??_main:
   425                           
   426                           ; 1 bytes @ 0x13
   427     01A3                     	ds	1
   428                           
   429                           	psect	cstackBANK1
   430     00A0                     __pcstackBANK1:
   431     00A0                     _isr$1218:
   432                           
   433                           ; 4 bytes @ 0x0
   434     00A0                     	ds	4
   435     00A4                     ?__Umul8_16:
   436     00A4                     ?___xxtofl:	
   437                           ; 2 bytes @ 0x4
   438                           
   439     00A4                     __Umul8_16@multiplicand:	
   440                           ; 4 bytes @ 0x4
   441                           
   442     00A4                     ___xxtofl@val:	
   443                           ; 1 bytes @ 0x4
   444                           
   445                           
   446                           ; 4 bytes @ 0x4
   447     00A4                     	ds	2
   448     00A6                     ??__Umul8_16:
   449                           
   450                           ; 1 bytes @ 0x6
   451     00A6                     	ds	2
   452     00A8                     ??___xxtofl:
   453     00A8                     __Umul8_16@product:	
   454                           ; 1 bytes @ 0x8
   455                           
   456                           
   457                           ; 2 bytes @ 0x8
   458     00A8                     	ds	2
   459     00AA                     __Umul8_16@word_mpld:
   460                           
   461                           ; 2 bytes @ 0xA
   462     00AA                     	ds	2
   463     00AC                     __Umul8_16@multiplier:
   464     00AC                     ___xxtofl@sign:	
   465                           ; 1 bytes @ 0xC
   466                           
   467                           
   468                           ; 1 bytes @ 0xC
   469     00AC                     	ds	1
   470     00AD                     ___xxtofl@exp:
   471                           
   472                           ; 1 bytes @ 0xD
   473     00AD                     	ds	1
   474     00AE                     ___xxtofl@arg:
   475                           
   476                           ; 4 bytes @ 0xE
   477     00AE                     	ds	4
   478     00B2                     ?___flmul:
   479     00B2                     ___flmul@b:	
   480                           ; 4 bytes @ 0x12
   481                           
   482                           
   483                           ; 4 bytes @ 0x12
   484     00B2                     	ds	4
   485     00B6                     ___flmul@a:
   486                           
   487                           ; 4 bytes @ 0x16
   488     00B6                     	ds	4
   489     00BA                     ??___flmul:
   490                           
   491                           ; 1 bytes @ 0x1A
   492     00BA                     	ds	5
   493     00BF                     ___flmul@sign:
   494                           
   495                           ; 1 bytes @ 0x1F
   496     00BF                     	ds	1
   497     00C0                     ___flmul@grs:
   498                           
   499                           ; 4 bytes @ 0x20
   500     00C0                     	ds	4
   501     00C4                     ___flmul@aexp:
   502                           
   503                           ; 1 bytes @ 0x24
   504     00C4                     	ds	1
   505     00C5                     ___flmul@bexp:
   506                           
   507                           ; 1 bytes @ 0x25
   508     00C5                     	ds	1
   509     00C6                     ___flmul@prod:
   510                           
   511                           ; 4 bytes @ 0x26
   512     00C6                     	ds	4
   513     00CA                     ___flmul@temp:
   514                           
   515                           ; 2 bytes @ 0x2A
   516     00CA                     	ds	2
   517     00CC                     ?___fldiv:
   518     00CC                     ___fldiv@a:	
   519                           ; 4 bytes @ 0x2C
   520                           
   521                           
   522                           ; 4 bytes @ 0x2C
   523     00CC                     	ds	4
   524     00D0                     ___fldiv@b:
   525                           
   526                           ; 4 bytes @ 0x30
   527     00D0                     	ds	4
   528     00D4                     ??___fldiv:
   529                           
   530                           ; 1 bytes @ 0x34
   531     00D4                     	ds	5
   532     00D9                     ___fldiv@rem:
   533                           
   534                           ; 4 bytes @ 0x39
   535     00D9                     	ds	4
   536     00DD                     ___fldiv@sign:
   537                           
   538                           ; 1 bytes @ 0x3D
   539     00DD                     	ds	1
   540     00DE                     ___fldiv@new_exp:
   541                           
   542                           ; 2 bytes @ 0x3E
   543     00DE                     	ds	2
   544     00E0                     ___fldiv@grs:
   545                           
   546                           ; 4 bytes @ 0x40
   547     00E0                     	ds	4
   548     00E4                     ___fldiv@bexp:
   549                           
   550                           ; 1 bytes @ 0x44
   551     00E4                     	ds	1
   552     00E5                     ___fldiv@aexp:
   553                           
   554                           ; 1 bytes @ 0x45
   555     00E5                     	ds	1
   556     00E6                     ___fltol@sign1:
   557                           
   558                           ; 1 bytes @ 0x46
   559     00E6                     	ds	1
   560     00E7                     ___fltol@exp1:
   561                           
   562                           ; 1 bytes @ 0x47
   563     00E7                     	ds	1
   564     00E8                     ??_PWM_config:
   565                           
   566                           	psect	cstackCOMMON
   567     0070                     __pcstackCOMMON:	
   568                           ; 1 bytes @ 0x48
   569                           
   570     0070                     ?_duty_cicle:
   571     0070                     ?_setup:	
   572                           ; 1 bytes @ 0x0
   573                           
   574     0070                     ?_isr:	
   575                           ; 1 bytes @ 0x0
   576                           
   577     0070                     ?_main:	
   578                           ; 1 bytes @ 0x0
   579                           
   580     0070                     ?i1__Umul8_16:	
   581                           ; 1 bytes @ 0x0
   582                           
   583     0070                     ?i1___xxtofl:	
   584                           ; 2 bytes @ 0x0
   585                           
   586     0070                     i1__Umul8_16@multiplicand:	
   587                           ; 4 bytes @ 0x0
   588                           
   589     0070                     duty_cicle@ciclo:	
   590                           ; 1 bytes @ 0x0
   591                           
   592     0070                     i1___xxtofl@val:	
   593                           ; 2 bytes @ 0x0
   594                           
   595                           
   596                           ; 4 bytes @ 0x0
   597     0070                     	ds	2
   598     0072                     ??_duty_cicle:
   599     0072                     ??i1__Umul8_16:	
   600                           ; 1 bytes @ 0x2
   601                           
   602                           
   603                           ; 1 bytes @ 0x2
   604     0072                     	ds	2
   605     0074                     ??i1___xxtofl:
   606     0074                     i1__Umul8_16@product:	
   607                           ; 1 bytes @ 0x4
   608                           
   609                           
   610                           ; 2 bytes @ 0x4
   611     0074                     	ds	2
   612     0076                     i1__Umul8_16@word_mpld:
   613                           
   614                           ; 2 bytes @ 0x6
   615     0076                     	ds	2
   616     0078                     i1__Umul8_16@multiplier:
   617     0078                     i1___xxtofl@sign:	
   618                           ; 1 bytes @ 0x8
   619                           
   620                           
   621                           ; 1 bytes @ 0x8
   622     0078                     	ds	1
   623     0079                     i1___xxtofl@exp:
   624                           
   625                           ; 1 bytes @ 0x9
   626     0079                     	ds	1
   627     007A                     i1___xxtofl@arg:
   628                           
   629                           ; 4 bytes @ 0xA
   630     007A                     	ds	4
   631                           
   632                           	psect	cstackBANK0
   633     0020                     __pcstackBANK0:
   634     0020                     ?i1___fldiv:
   635     0020                     i1___fldiv@a:	
   636                           ; 4 bytes @ 0x0
   637                           
   638                           
   639                           ; 4 bytes @ 0x0
   640     0020                     	ds	4
   641     0024                     i1___fldiv@b:
   642                           
   643                           ; 4 bytes @ 0x4
   644     0024                     	ds	4
   645     0028                     ??i1___fldiv:
   646                           
   647                           ; 1 bytes @ 0x8
   648     0028                     	ds	5
   649     002D                     i1___fldiv@rem:
   650                           
   651                           ; 4 bytes @ 0xD
   652     002D                     	ds	4
   653     0031                     i1___fldiv@sign:
   654                           
   655                           ; 1 bytes @ 0x11
   656     0031                     	ds	1
   657     0032                     i1___fldiv@new_exp:
   658                           
   659                           ; 2 bytes @ 0x12
   660     0032                     	ds	2
   661     0034                     i1___fldiv@grs:
   662                           
   663                           ; 4 bytes @ 0x14
   664     0034                     	ds	4
   665     0038                     i1___fldiv@bexp:
   666                           
   667                           ; 1 bytes @ 0x18
   668     0038                     	ds	1
   669     0039                     i1___fldiv@aexp:
   670                           
   671                           ; 1 bytes @ 0x19
   672     0039                     	ds	1
   673     003A                     ?i1___flmul:
   674     003A                     i1___flmul@b:	
   675                           ; 4 bytes @ 0x1A
   676                           
   677                           
   678                           ; 4 bytes @ 0x1A
   679     003A                     	ds	4
   680     003E                     i1___flmul@a:
   681                           
   682                           ; 4 bytes @ 0x1E
   683     003E                     	ds	4
   684     0042                     ??i1___flmul:
   685                           
   686                           ; 1 bytes @ 0x22
   687     0042                     	ds	5
   688     0047                     i1___flmul@sign:
   689                           
   690                           ; 1 bytes @ 0x27
   691     0047                     	ds	1
   692     0048                     i1___flmul@grs:
   693                           
   694                           ; 4 bytes @ 0x28
   695     0048                     	ds	4
   696     004C                     i1___flmul@aexp:
   697                           
   698                           ; 1 bytes @ 0x2C
   699     004C                     	ds	1
   700     004D                     i1___flmul@bexp:
   701                           
   702                           ; 1 bytes @ 0x2D
   703     004D                     	ds	1
   704     004E                     i1___flmul@prod:
   705                           
   706                           ; 4 bytes @ 0x2E
   707     004E                     	ds	4
   708     0052                     i1___flmul@temp:
   709                           
   710                           ; 2 bytes @ 0x32
   711     0052                     	ds	2
   712     0054                     ?i1___fltol:
   713     0054                     i1___fltol@f1:	
   714                           ; 4 bytes @ 0x34
   715                           
   716                           
   717                           ; 4 bytes @ 0x34
   718     0054                     	ds	4
   719     0058                     ??i1___fltol:
   720                           
   721                           ; 1 bytes @ 0x38
   722     0058                     	ds	4
   723     005C                     i1___fltol@sign1:
   724                           
   725                           ; 1 bytes @ 0x3C
   726     005C                     	ds	1
   727     005D                     i1___fltol@exp1:
   728                           
   729                           ; 1 bytes @ 0x3D
   730     005D                     	ds	1
   731     005E                     ?i1_PWM_duty:
   732     005E                     i1PWM_duty@duty:	
   733                           ; 1 bytes @ 0x3E
   734                           
   735                           
   736                           ; 4 bytes @ 0x3E
   737     005E                     	ds	4
   738     0062                     ??i1_PWM_duty:
   739                           
   740                           ; 1 bytes @ 0x42
   741     0062                     	ds	3
   742     0065                     i1PWM_duty@canal:
   743                           
   744                           ; 1 bytes @ 0x45
   745     0065                     	ds	1
   746     0066                     i1PWM_duty@particion:
   747                           
   748                           ; 2 bytes @ 0x46
   749     0066                     	ds	2
   750     0068                     ??_isr:
   751                           
   752                           ; 1 bytes @ 0x48
   753     0068                     	ds	7
   754                           
   755                           	psect	maintext
   756     0B59                     __pmaintext:	
   757 ;;
   758 ;;Main: autosize = 0, tempsize = 1, incstack = 0, save=0
   759 ;;
   760 ;; *************** function _main *****************
   761 ;; Defined at:
   762 ;;		line 84 in file "PostLabC02.c"
   763 ;; Parameters:    Size  Location     Type
   764 ;;		None
   765 ;; Auto vars:     Size  Location     Type
   766 ;;		None
   767 ;; Return value:  Size  Location     Type
   768 ;;                  1    wreg      void 
   769 ;; Registers used:
   770 ;;		wreg, status,2, status,0, btemp+1, pclath, cstack
   771 ;; Tracked objects:
   772 ;;		On entry : B00/0
   773 ;;		On exit  : 0/0
   774 ;;		Unchanged: 0/0
   775 ;; Data sizes:     COMMON   BANK0   BANK1   BANK3   BANK2
   776 ;;      Params:         0       0       0       0       0
   777 ;;      Locals:         0       0       0       0       0
   778 ;;      Temps:          0       0       0       1       0
   779 ;;      Totals:         0       0       0       1       0
   780 ;;Total ram usage:        1 bytes
   781 ;; Hardware stack levels required when called: 8
   782 ;; This function calls:
   783 ;;		___fldiv
   784 ;;		___flmul
   785 ;;		___fltol
   786 ;;		___xxtofl
   787 ;;		_setup
   788 ;; This function is called by:
   789 ;;		Startup code after reset
   790 ;; This function uses a non-reentrant model
   791 ;;
   792                           
   793     0B59                     _main:	
   794                           ;psect for function _main
   795                           
   796     0B59                     l2770:	
   797                           ;incstack = 0
   798                           ; Regs used in _main: [wreg+status,2+status,0+btemp+1+pclath+cstack]
   799                           
   800                           
   801                           ;PostLabC02.c: 85:     setup ();
   802     0B59  120A  158A  2006  120A  158A  	fcall	_setup
   803     0B5E                     l2772:
   804                           
   805                           ;PostLabC02.c: 86:     ADCON0bits.GO = 1;
   806     0B5E  1283               	bcf	3,5	;RP0=0, select bank0
   807     0B5F  1303               	bcf	3,6	;RP1=0, select bank0
   808     0B60  149F               	bsf	31,1	;volatile
   809     0B61                     l112:	
   810                           ;PostLabC02.c: 87:     while(1){
   811                           
   812                           
   813                           ;PostLabC02.c: 88:         potMapeado = (0.39215686f*potenciometro)/100;
   814     0B61  3042               	movlw	66
   815     0B62  1683               	bsf	3,5	;RP0=1, select bank1
   816     0B63  1303               	bcf	3,6	;RP1=0, select bank1
   817     0B64  00CF               	movwf	(___fldiv@a+3)^(0+128)
   818     0B65  30C8               	movlw	200
   819     0B66  00CE               	movwf	(___fldiv@a+2)^(0+128)
   820     0B67  3000               	movlw	0
   821     0B68  00CD               	movwf	(___fldiv@a+1)^(0+128)
   822     0B69  3000               	movlw	0
   823     0B6A  00CC               	movwf	___fldiv@a^(0+128)
   824     0B6B  303E               	movlw	62
   825     0B6C  00B5               	movwf	(___flmul@b+3)^(0+128)
   826     0B6D  30C8               	movlw	200
   827     0B6E  00B4               	movwf	(___flmul@b+2)^(0+128)
   828     0B6F  30C8               	movlw	200
   829     0B70  00B3               	movwf	(___flmul@b+1)^(0+128)
   830     0B71  30C9               	movlw	201
   831     0B72  00B2               	movwf	___flmul@b^(0+128)
   832     0B73  1683               	bsf	3,5	;RP0=1, select bank3
   833     0B74  1703               	bsf	3,6	;RP1=1, select bank3
   834     0B75  082A               	movf	_potenciometro^(0+384),w
   835     0B76  1683               	bsf	3,5	;RP0=1, select bank1
   836     0B77  1303               	bcf	3,6	;RP1=0, select bank1
   837     0B78  00A4               	movwf	___xxtofl@val^(0+128)
   838     0B79  1683               	bsf	3,5	;RP0=1, select bank3
   839     0B7A  1703               	bsf	3,6	;RP1=1, select bank3
   840     0B7B  082B               	movf	(_potenciometro+1)^(0+384),w
   841     0B7C  1683               	bsf	3,5	;RP0=1, select bank1
   842     0B7D  1303               	bcf	3,6	;RP1=0, select bank1
   843     0B7E  00A5               	movwf	(___xxtofl@val+1)^(0+128)
   844     0B7F  3000               	movlw	0
   845     0B80  1BA5               	btfsc	(___xxtofl@val+1)^(0+128),7
   846     0B81  30FF               	movlw	255
   847     0B82  00A6               	movwf	(___xxtofl@val+2)^(0+128)
   848     0B83  00A7               	movwf	(___xxtofl@val+3)^(0+128)
   849     0B84  3001               	movlw	1
   850     0B85  120A  158A  21C2  120A  158A  	fcall	___xxtofl
   851     0B8A  1683               	bsf	3,5	;RP0=1, select bank1
   852     0B8B  1303               	bcf	3,6	;RP1=0, select bank1
   853     0B8C  0827               	movf	(?___xxtofl+3)^(0+128),w
   854     0B8D  00B9               	movwf	(___flmul@a+3)^(0+128)
   855     0B8E  0826               	movf	(?___xxtofl+2)^(0+128),w
   856     0B8F  00B8               	movwf	(___flmul@a+2)^(0+128)
   857     0B90  0825               	movf	(?___xxtofl+1)^(0+128),w
   858     0B91  00B7               	movwf	(___flmul@a+1)^(0+128)
   859     0B92  0824               	movf	?___xxtofl^(0+128),w
   860     0B93  00B6               	movwf	___flmul@a^(0+128)
   861     0B94  120A  118A  2027  120A  158A  	fcall	___flmul
   862     0B99  1683               	bsf	3,5	;RP0=1, select bank1
   863     0B9A  1303               	bcf	3,6	;RP1=0, select bank1
   864     0B9B  0835               	movf	(?___flmul+3)^(0+128),w
   865     0B9C  00D3               	movwf	(___fldiv@b+3)^(0+128)
   866     0B9D  0834               	movf	(?___flmul+2)^(0+128),w
   867     0B9E  00D2               	movwf	(___fldiv@b+2)^(0+128)
   868     0B9F  0833               	movf	(?___flmul+1)^(0+128),w
   869     0BA0  00D1               	movwf	(___fldiv@b+1)^(0+128)
   870     0BA1  0832               	movf	?___flmul^(0+128),w
   871     0BA2  00D0               	movwf	___fldiv@b^(0+128)
   872     0BA3  120A  158A  262D  120A  158A  	fcall	___fldiv
   873     0BA8  1683               	bsf	3,5	;RP0=1, select bank1
   874     0BA9  1303               	bcf	3,6	;RP1=0, select bank1
   875     0BAA  084F               	movf	(?___fldiv+3)^(0+128),w
   876     0BAB  1683               	bsf	3,5	;RP0=1, select bank3
   877     0BAC  1703               	bsf	3,6	;RP1=1, select bank3
   878     0BAD  00A9               	movwf	(_potMapeado+3)^(0+384)
   879     0BAE  1683               	bsf	3,5	;RP0=1, select bank1
   880     0BAF  1303               	bcf	3,6	;RP1=0, select bank1
   881     0BB0  084E               	movf	(?___fldiv+2)^(0+128),w
   882     0BB1  1683               	bsf	3,5	;RP0=1, select bank3
   883     0BB2  1703               	bsf	3,6	;RP1=1, select bank3
   884     0BB3  00A8               	movwf	(_potMapeado+2)^(0+384)
   885     0BB4  1683               	bsf	3,5	;RP0=1, select bank1
   886     0BB5  1303               	bcf	3,6	;RP1=0, select bank1
   887     0BB6  084D               	movf	(?___fldiv+1)^(0+128),w
   888     0BB7  1683               	bsf	3,5	;RP0=1, select bank3
   889     0BB8  1703               	bsf	3,6	;RP1=1, select bank3
   890     0BB9  00A7               	movwf	(_potMapeado+1)^(0+384)
   891     0BBA  1683               	bsf	3,5	;RP0=1, select bank1
   892     0BBB  1303               	bcf	3,6	;RP1=0, select bank1
   893     0BBC  084C               	movf	?___fldiv^(0+128),w
   894     0BBD  1683               	bsf	3,5	;RP0=1, select bank3
   895     0BBE  1703               	bsf	3,6	;RP1=1, select bank3
   896     0BBF  00A6               	movwf	_potMapeado^(0+384)
   897                           
   898                           ;PostLabC02.c: 89:         dutyPot = (int)(20 * potMapeado);
   899     0BC0  0829               	movf	(_potMapeado+3)^(0+384),w
   900     0BC1  1683               	bsf	3,5	;RP0=1, select bank1
   901     0BC2  1303               	bcf	3,6	;RP1=0, select bank1
   902     0BC3  00B9               	movwf	(___flmul@a+3)^(0+128)
   903     0BC4  1683               	bsf	3,5	;RP0=1, select bank3
   904     0BC5  1703               	bsf	3,6	;RP1=1, select bank3
   905     0BC6  0828               	movf	(_potMapeado+2)^(0+384),w
   906     0BC7  1683               	bsf	3,5	;RP0=1, select bank1
   907     0BC8  1303               	bcf	3,6	;RP1=0, select bank1
   908     0BC9  00B8               	movwf	(___flmul@a+2)^(0+128)
   909     0BCA  1683               	bsf	3,5	;RP0=1, select bank3
   910     0BCB  1703               	bsf	3,6	;RP1=1, select bank3
   911     0BCC  0827               	movf	(_potMapeado+1)^(0+384),w
   912     0BCD  1683               	bsf	3,5	;RP0=1, select bank1
   913     0BCE  1303               	bcf	3,6	;RP1=0, select bank1
   914     0BCF  00B7               	movwf	(___flmul@a+1)^(0+128)
   915     0BD0  1683               	bsf	3,5	;RP0=1, select bank3
   916     0BD1  1703               	bsf	3,6	;RP1=1, select bank3
   917     0BD2  0826               	movf	_potMapeado^(0+384),w
   918     0BD3  1683               	bsf	3,5	;RP0=1, select bank1
   919     0BD4  1303               	bcf	3,6	;RP1=0, select bank1
   920     0BD5  00B6               	movwf	___flmul@a^(0+128)
   921     0BD6  3041               	movlw	65
   922     0BD7  00B5               	movwf	(___flmul@b+3)^(0+128)
   923     0BD8  30A0               	movlw	160
   924     0BD9  00B4               	movwf	(___flmul@b+2)^(0+128)
   925     0BDA  3000               	movlw	0
   926     0BDB  00B3               	movwf	(___flmul@b+1)^(0+128)
   927     0BDC  3000               	movlw	0
   928     0BDD  00B2               	movwf	___flmul@b^(0+128)
   929     0BDE  120A  118A  2027  120A  158A  	fcall	___flmul
   930     0BE3  1683               	bsf	3,5	;RP0=1, select bank1
   931     0BE4  1303               	bcf	3,6	;RP1=0, select bank1
   932     0BE5  0835               	movf	(?___flmul+3)^(0+128),w
   933     0BE6  1683               	bsf	3,5	;RP0=1, select bank3
   934     0BE7  1703               	bsf	3,6	;RP1=1, select bank3
   935     0BE8  0093               	movwf	(___fltol@f1+3)^(0+384)
   936     0BE9  1683               	bsf	3,5	;RP0=1, select bank1
   937     0BEA  1303               	bcf	3,6	;RP1=0, select bank1
   938     0BEB  0834               	movf	(?___flmul+2)^(0+128),w
   939     0BEC  1683               	bsf	3,5	;RP0=1, select bank3
   940     0BED  1703               	bsf	3,6	;RP1=1, select bank3
   941     0BEE  0092               	movwf	(___fltol@f1+2)^(0+384)
   942     0BEF  1683               	bsf	3,5	;RP0=1, select bank1
   943     0BF0  1303               	bcf	3,6	;RP1=0, select bank1
   944     0BF1  0833               	movf	(?___flmul+1)^(0+128),w
   945     0BF2  1683               	bsf	3,5	;RP0=1, select bank3
   946     0BF3  1703               	bsf	3,6	;RP1=1, select bank3
   947     0BF4  0091               	movwf	(___fltol@f1+1)^(0+384)
   948     0BF5  1683               	bsf	3,5	;RP0=1, select bank1
   949     0BF6  1303               	bcf	3,6	;RP1=0, select bank1
   950     0BF7  0832               	movf	?___flmul^(0+128),w
   951     0BF8  1683               	bsf	3,5	;RP0=1, select bank3
   952     0BF9  1703               	bsf	3,6	;RP1=1, select bank3
   953     0BFA  0090               	movwf	___fltol@f1^(0+384)
   954     0BFB  160A  118A  2772  120A  158A  	fcall	___fltol
   955     0C00  1683               	bsf	3,5	;RP0=1, select bank3
   956     0C01  1703               	bsf	3,6	;RP1=1, select bank3
   957     0C02  0811               	movf	(?___fltol+1)^(0+384),w
   958     0C03  1683               	bsf	3,5	;RP0=1, select bank1
   959     0C04  1303               	bcf	3,6	;RP1=0, select bank1
   960     0C05  00E9               	movwf	(_dutyPot+1)^(0+128)
   961     0C06  1683               	bsf	3,5	;RP0=1, select bank3
   962     0C07  1703               	bsf	3,6	;RP1=1, select bank3
   963     0C08  0810               	movf	?___fltol^(0+384),w
   964     0C09  1683               	bsf	3,5	;RP0=1, select bank1
   965     0C0A  1303               	bcf	3,6	;RP1=0, select bank1
   966     0C0B  00E8               	movwf	_dutyPot^(0+128)
   967     0C0C                     l2774:
   968                           
   969                           ;PostLabC02.c: 91:         PORTB = (unsigned char)dutyPot;
   970     0C0C  0868               	movf	_dutyPot^(0+128),w
   971     0C0D  1283               	bcf	3,5	;RP0=0, select bank0
   972     0C0E  1303               	bcf	3,6	;RP1=0, select bank0
   973     0C0F  0086               	movwf	6	;volatile
   974     0C10                     l2776:
   975                           
   976                           ;PostLabC02.c: 92:         if (ADCON0bits.GO == 0) {
   977     0C10  189F               	btfsc	31,1	;volatile
   978     0C11  2C13               	goto	u4261
   979     0C12  2C14               	goto	u4260
   980     0C13                     u4261:
   981     0C13  2B61               	goto	l112
   982     0C14                     u4260:
   983     0C14                     l2778:
   984                           
   985                           ;PostLabC02.c: 93:             if(ADCON0bits.CHS == 0b0000)
   986     0C14  0C1F               	rrf	31,w	;volatile
   987     0C15  1683               	bsf	3,5	;RP0=1, select bank3
   988     0C16  1703               	bsf	3,6	;RP1=1, select bank3
   989     0C17  00A3               	movwf	??_main^(0+384)
   990     0C18  0C23               	rrf	??_main^(0+384),w
   991     0C19  390F               	andlw	15
   992     0C1A  3A00               	xorlw	0
   993     0C1B  1D03               	skipz
   994     0C1C  2C1E               	goto	u4271
   995     0C1D  2C1F               	goto	u4270
   996     0C1E                     u4271:
   997     0C1E  2C26               	goto	l2782
   998     0C1F                     u4270:
   999     0C1F                     l2780:
  1000                           
  1001                           ;PostLabC02.c: 94:             {;PostLabC02.c: 95:                 ADCON0bits.CHS = 0b01
      +                          00;
  1002     0C1F  1283               	bcf	3,5	;RP0=0, select bank0
  1003     0C20  1303               	bcf	3,6	;RP1=0, select bank0
  1004     0C21  081F               	movf	31,w	;volatile
  1005     0C22  39C3               	andlw	-61
  1006     0C23  3810               	iorlw	16
  1007     0C24  009F               	movwf	31	;volatile
  1008                           
  1009                           ;PostLabC02.c: 96:             }
  1010     0C25  2C4B               	goto	l2790
  1011     0C26                     l2782:
  1012     0C26  1283               	bcf	3,5	;RP0=0, select bank0
  1013     0C27  1303               	bcf	3,6	;RP1=0, select bank0
  1014     0C28  0C1F               	rrf	31,w	;volatile
  1015     0C29  1683               	bsf	3,5	;RP0=1, select bank3
  1016     0C2A  1703               	bsf	3,6	;RP1=1, select bank3
  1017     0C2B  00A3               	movwf	??_main^(0+384)
  1018     0C2C  0C23               	rrf	??_main^(0+384),w
  1019     0C2D  390F               	andlw	15
  1020     0C2E  3A04               	xorlw	4
  1021     0C2F  1D03               	skipz
  1022     0C30  2C32               	goto	u4281
  1023     0C31  2C33               	goto	u4280
  1024     0C32                     u4281:
  1025     0C32  2C3A               	goto	l2786
  1026     0C33                     u4280:
  1027     0C33                     l2784:
  1028                           
  1029                           ;PostLabC02.c: 98:             {;PostLabC02.c: 99:                 ADCON0bits.CHS = 0b00
      +                          10;
  1030     0C33  1283               	bcf	3,5	;RP0=0, select bank0
  1031     0C34  1303               	bcf	3,6	;RP1=0, select bank0
  1032     0C35  081F               	movf	31,w	;volatile
  1033     0C36  39C3               	andlw	-61
  1034     0C37  3808               	iorlw	8
  1035     0C38  009F               	movwf	31	;volatile
  1036                           
  1037                           ;PostLabC02.c: 100:             }
  1038     0C39  2C4B               	goto	l2790
  1039     0C3A                     l2786:
  1040     0C3A  1283               	bcf	3,5	;RP0=0, select bank0
  1041     0C3B  1303               	bcf	3,6	;RP1=0, select bank0
  1042     0C3C  0C1F               	rrf	31,w	;volatile
  1043     0C3D  1683               	bsf	3,5	;RP0=1, select bank3
  1044     0C3E  1703               	bsf	3,6	;RP1=1, select bank3
  1045     0C3F  00A3               	movwf	??_main^(0+384)
  1046     0C40  0C23               	rrf	??_main^(0+384),w
  1047     0C41  390F               	andlw	15
  1048     0C42  3A02               	xorlw	2
  1049     0C43  1D03               	skipz
  1050     0C44  2C46               	goto	u4291
  1051     0C45  2C47               	goto	u4290
  1052     0C46                     u4291:
  1053     0C46  2C4B               	goto	l2790
  1054     0C47                     u4290:
  1055     0C47                     l2788:
  1056                           
  1057                           ;PostLabC02.c: 102:             {;PostLabC02.c: 103:                 ADCON0bits.CHS = 0b
      +                          0000;
  1058     0C47  30C3               	movlw	-61
  1059     0C48  1283               	bcf	3,5	;RP0=0, select bank0
  1060     0C49  1303               	bcf	3,6	;RP1=0, select bank0
  1061     0C4A  059F               	andwf	31,f	;volatile
  1062     0C4B                     l2790:
  1063                           
  1064                           ;PostLabC02.c: 105:             _delay((unsigned long)((1000)*(4000000/4000000.0)));
  1065     0C4B  30C7               	movlw	199
  1066     0C4C  1683               	bsf	3,5	;RP0=1, select bank3
  1067     0C4D  1703               	bsf	3,6	;RP1=1, select bank3
  1068     0C4E  00A3               	movwf	??_main^(0+384)
  1069     0C4F                     u4307:
  1070     0C4F  2C50               	nop2
  1071     0C50  0BA3               	decfsz	??_main^(0+384),f
  1072     0C51  2C4F               	goto	u4307
  1073     0C52  2C53               	nop2
  1074     0C53                     l2792:
  1075                           
  1076                           ;PostLabC02.c: 106:             ADCON0bits.GO = 1;
  1077     0C53  1283               	bcf	3,5	;RP0=0, select bank0
  1078     0C54  1303               	bcf	3,6	;RP1=0, select bank0
  1079     0C55  149F               	bsf	31,1	;volatile
  1080     0C56  2B61               	goto	l112
  1081     0C57  120A  118A  2810   	ljmp	start
  1082     0C5A                     __end_of_main:
  1083                           
  1084                           	psect	text1
  1085     0806                     __ptext1:	
  1086 ;; *************** function _setup *****************
  1087 ;; Defined at:
  1088 ;;		line 124 in file "PostLabC02.c"
  1089 ;; Parameters:    Size  Location     Type
  1090 ;;		None
  1091 ;; Auto vars:     Size  Location     Type
  1092 ;;		None
  1093 ;; Return value:  Size  Location     Type
  1094 ;;                  1    wreg      void 
  1095 ;; Registers used:
  1096 ;;		wreg, status,2, status,0, btemp+1, pclath, cstack
  1097 ;; Tracked objects:
  1098 ;;		On entry : 0/0
  1099 ;;		On exit  : 0/0
  1100 ;;		Unchanged: 0/0
  1101 ;; Data sizes:     COMMON   BANK0   BANK1   BANK3   BANK2
  1102 ;;      Params:         0       0       0       0       0
  1103 ;;      Locals:         0       0       0       0       0
  1104 ;;      Temps:          0       0       0       1       0
  1105 ;;      Totals:         0       0       0       1       0
  1106 ;;Total ram usage:        1 bytes
  1107 ;; Hardware stack levels used: 1
  1108 ;; Hardware stack levels required when called: 7
  1109 ;; This function calls:
  1110 ;;		_PWM_config
  1111 ;;		_PWM_duty
  1112 ;; This function is called by:
  1113 ;;		_main
  1114 ;; This function uses a non-reentrant model
  1115 ;;
  1116                           
  1117     0806                     _setup:	
  1118                           ;psect for function _setup
  1119                           
  1120     0806                     l2720:	
  1121                           ;incstack = 0
  1122                           ; Regs used in _setup: [wreg+status,2+status,0+btemp+1+pclath+cstack]
  1123                           
  1124                           
  1125                           ;PostLabC02.c: 126:     ANSELbits.ANS0 = 1;
  1126     0806  1683               	bsf	3,5	;RP0=1, select bank3
  1127     0807  1703               	bsf	3,6	;RP1=1, select bank3
  1128     0808  1408               	bsf	8,0	;volatile
  1129                           
  1130                           ;PostLabC02.c: 127:     ANSELbits.ANS2 = 1;
  1131     0809  1508               	bsf	8,2	;volatile
  1132                           
  1133                           ;PostLabC02.c: 128:     ANSELbits.ANS4 = 1;
  1134     080A  1608               	bsf	8,4	;volatile
  1135     080B                     l2722:
  1136                           
  1137                           ;PostLabC02.c: 129:     ANSELH = 0;
  1138     080B  0189               	clrf	9	;volatile
  1139                           
  1140                           ;PostLabC02.c: 132:     TRISB = 0;
  1141     080C  1683               	bsf	3,5	;RP0=1, select bank1
  1142     080D  1303               	bcf	3,6	;RP1=0, select bank1
  1143     080E  0186               	clrf	6	;volatile
  1144                           
  1145                           ;PostLabC02.c: 133:     TRISC = 0;
  1146     080F  0187               	clrf	7	;volatile
  1147                           
  1148                           ;PostLabC02.c: 134:     TRISD = 0;
  1149     0810  0188               	clrf	8	;volatile
  1150                           
  1151                           ;PostLabC02.c: 135:     TRISE = 0;
  1152     0811  0189               	clrf	9	;volatile
  1153                           
  1154                           ;PostLabC02.c: 138:     PORTA = 0;
  1155     0812  1283               	bcf	3,5	;RP0=0, select bank0
  1156     0813  1303               	bcf	3,6	;RP1=0, select bank0
  1157     0814  0185               	clrf	5	;volatile
  1158                           
  1159                           ;PostLabC02.c: 139:     PORTB = 0;
  1160     0815  0186               	clrf	6	;volatile
  1161                           
  1162                           ;PostLabC02.c: 140:     PORTC = 0;
  1163     0816  0187               	clrf	7	;volatile
  1164                           
  1165                           ;PostLabC02.c: 141:     PORTD = 0;
  1166     0817  0188               	clrf	8	;volatile
  1167                           
  1168                           ;PostLabC02.c: 142:     PORTE = 0;
  1169     0818  0189               	clrf	9	;volatile
  1170     0819                     l2724:
  1171                           
  1172                           ;PostLabC02.c: 145:     OSCCONbits.IRCF = 0b110 ;
  1173     0819  1683               	bsf	3,5	;RP0=1, select bank1
  1174     081A  1303               	bcf	3,6	;RP1=0, select bank1
  1175     081B  080F               	movf	15,w	;volatile
  1176     081C  398F               	andlw	-113
  1177     081D  3860               	iorlw	96
  1178     081E  008F               	movwf	15	;volatile
  1179     081F                     l2726:
  1180                           
  1181                           ;PostLabC02.c: 146:     OSCCONbits.SCS = 1;
  1182     081F  140F               	bsf	15,0	;volatile
  1183     0820                     l2728:
  1184                           
  1185                           ;PostLabC02.c: 150:     OPTION_REGbits.T0CS = 0;
  1186     0820  1281               	bcf	1,5	;volatile
  1187     0821                     l2730:
  1188                           
  1189                           ;PostLabC02.c: 151:     OPTION_REGbits.PSA = 0;
  1190     0821  1181               	bcf	1,3	;volatile
  1191     0822                     l2732:
  1192                           
  1193                           ;PostLabC02.c: 152:     OPTION_REGbits.PS2 = 1;
  1194     0822  1501               	bsf	1,2	;volatile
  1195     0823                     l2734:
  1196                           
  1197                           ;PostLabC02.c: 153:     OPTION_REGbits.PS1 = 1;
  1198     0823  1481               	bsf	1,1	;volatile
  1199     0824                     l2736:
  1200                           
  1201                           ;PostLabC02.c: 154:     OPTION_REGbits.PS0 = 1;
  1202     0824  1401               	bsf	1,0	;volatile
  1203     0825                     l2738:
  1204                           
  1205                           ;PostLabC02.c: 155:     TMR0 = 98;
  1206     0825  3062               	movlw	98
  1207     0826  1283               	bcf	3,5	;RP0=0, select bank0
  1208     0827  1303               	bcf	3,6	;RP1=0, select bank0
  1209     0828  0081               	movwf	1	;volatile
  1210     0829                     l2740:
  1211                           
  1212                           ;PostLabC02.c: 158:     PIR1bits.ADIF = 0;
  1213     0829  130C               	bcf	12,6	;volatile
  1214     082A                     l2742:
  1215                           
  1216                           ;PostLabC02.c: 159:     INTCONbits.PEIE = 1;
  1217     082A  170B               	bsf	11,6	;volatile
  1218     082B                     l2744:
  1219                           
  1220                           ;PostLabC02.c: 160:     PIE1bits.ADIE = 1;
  1221     082B  1683               	bsf	3,5	;RP0=1, select bank1
  1222     082C  1303               	bcf	3,6	;RP1=0, select bank1
  1223     082D  170C               	bsf	12,6	;volatile
  1224     082E                     l2746:
  1225                           
  1226                           ;PostLabC02.c: 161:     INTCONbits.GIE = 1;
  1227     082E  178B               	bsf	11,7	;volatile
  1228     082F                     l2748:
  1229                           
  1230                           ;PostLabC02.c: 162:     ADCON0bits.GO = 1;
  1231     082F  1283               	bcf	3,5	;RP0=0, select bank0
  1232     0830  1303               	bcf	3,6	;RP1=0, select bank0
  1233     0831  149F               	bsf	31,1	;volatile
  1234     0832                     l2750:
  1235                           
  1236                           ;PostLabC02.c: 165:     ADCON0bits.CHS = 0b0000;
  1237     0832  30C3               	movlw	-61
  1238     0833  059F               	andwf	31,f	;volatile
  1239     0834                     l2752:
  1240                           
  1241                           ;PostLabC02.c: 166:     ADCON1bits.VCFG0 = 0;
  1242     0834  1683               	bsf	3,5	;RP0=1, select bank1
  1243     0835  1303               	bcf	3,6	;RP1=0, select bank1
  1244     0836  121F               	bcf	31,4	;volatile
  1245     0837                     l2754:
  1246                           
  1247                           ;PostLabC02.c: 167:     ADCON1bits.VCFG1 = 0;
  1248     0837  129F               	bcf	31,5	;volatile
  1249     0838                     l2756:
  1250                           
  1251                           ;PostLabC02.c: 168:     ADCON0bits.ADCS = 0b10;
  1252     0838  1283               	bcf	3,5	;RP0=0, select bank0
  1253     0839  1303               	bcf	3,6	;RP1=0, select bank0
  1254     083A  081F               	movf	31,w	;volatile
  1255     083B  393F               	andlw	-193
  1256     083C  3880               	iorlw	128
  1257     083D  009F               	movwf	31	;volatile
  1258     083E                     l2758:
  1259                           
  1260                           ;PostLabC02.c: 170:     ADCON1bits.ADFM = 0;
  1261     083E  1683               	bsf	3,5	;RP0=1, select bank1
  1262     083F  1303               	bcf	3,6	;RP1=0, select bank1
  1263     0840  139F               	bcf	31,7	;volatile
  1264     0841                     l2760:
  1265                           
  1266                           ;PostLabC02.c: 171:     ADCON0bits.ADON = 1;
  1267     0841  1283               	bcf	3,5	;RP0=0, select bank0
  1268     0842  1303               	bcf	3,6	;RP1=0, select bank0
  1269     0843  141F               	bsf	31,0	;volatile
  1270     0844                     l2762:
  1271                           
  1272                           ;PostLabC02.c: 172:      _delay((unsigned long)((1)*(4000000/4000.0)));
  1273     0844  30C7               	movlw	199
  1274     0845  1683               	bsf	3,5	;RP0=1, select bank3
  1275     0846  1703               	bsf	3,6	;RP1=1, select bank3
  1276     0847  00A2               	movwf	??_setup^(0+384)
  1277     0848                     u4317:
  1278     0848  2849               	nop2
  1279     0849  0BA2               	decfsz	??_setup^(0+384),f
  1280     084A  2848               	goto	u4317
  1281     084B  284C               	nop2
  1282     084C                     l2764:
  1283                           
  1284                           ;PostLabC02.c: 175:     PWM_config(2, 0.004f);
  1285     084C  303B               	movlw	59
  1286     084D  1683               	bsf	3,5	;RP0=1, select bank3
  1287     084E  1703               	bsf	3,6	;RP1=1, select bank3
  1288     084F  009B               	movwf	(PWM_config@periodo_ms+3)^(0+384)
  1289     0850  3083               	movlw	131
  1290     0851  009A               	movwf	(PWM_config@periodo_ms+2)^(0+384)
  1291     0852  3012               	movlw	18
  1292     0853  0099               	movwf	(PWM_config@periodo_ms+1)^(0+384)
  1293     0854  306F               	movlw	111
  1294     0855  0098               	movwf	PWM_config@periodo_ms^(0+384)
  1295     0856  3002               	movlw	2
  1296     0857  160A  118A  26E5  120A  158A  	fcall	_PWM_config
  1297     085C                     l2766:
  1298                           
  1299                           ;PostLabC02.c: 176:     PWM_duty(2, 0.0025f);
  1300     085C  303B               	movlw	59
  1301     085D  1683               	bsf	3,5	;RP0=1, select bank3
  1302     085E  1703               	bsf	3,6	;RP1=1, select bank3
  1303     085F  009B               	movwf	(PWM_duty@duty+3)^(0+384)
  1304     0860  3023               	movlw	35
  1305     0861  009A               	movwf	(PWM_duty@duty+2)^(0+384)
  1306     0862  30D7               	movlw	215
  1307     0863  0099               	movwf	(PWM_duty@duty+1)^(0+384)
  1308     0864  300A               	movlw	10
  1309     0865  0098               	movwf	PWM_duty@duty^(0+384)
  1310     0866  3002               	movlw	2
  1311     0867  120A  158A  227C  120A  158A  	fcall	_PWM_duty
  1312     086C                     l129:
  1313     086C  0008               	return
  1314     086D                     __end_of_setup:
  1315                           
  1316                           	psect	text2
  1317     0A7C                     __ptext2:	
  1318 ;; *************** function _PWM_duty *****************
  1319 ;; Defined at:
  1320 ;;		line 34 in file "PWM_SERVO.c"
  1321 ;; Parameters:    Size  Location     Type
  1322 ;;  canal           1    wreg     unsigned char 
  1323 ;;  duty            4    8[BANK3 ] float 
  1324 ;; Auto vars:     Size  Location     Type
  1325 ;;  canal           1   15[BANK3 ] unsigned char 
  1326 ;;  particion       2   16[BANK3 ] int 
  1327 ;; Return value:  Size  Location     Type
  1328 ;;                  1    wreg      void 
  1329 ;; Registers used:
  1330 ;;		wreg, status,2, status,0, btemp+1, pclath, cstack
  1331 ;; Tracked objects:
  1332 ;;		On entry : 0/0
  1333 ;;		On exit  : 0/0
  1334 ;;		Unchanged: 0/0
  1335 ;; Data sizes:     COMMON   BANK0   BANK1   BANK3   BANK2
  1336 ;;      Params:         0       0       0       4       0
  1337 ;;      Locals:         0       0       0       3       0
  1338 ;;      Temps:          0       0       0       3       0
  1339 ;;      Totals:         0       0       0      10       0
  1340 ;;Total ram usage:       10 bytes
  1341 ;; Hardware stack levels used: 1
  1342 ;; Hardware stack levels required when called: 6
  1343 ;; This function calls:
  1344 ;;		___fldiv
  1345 ;;		___flmul
  1346 ;;		___fltol
  1347 ;; This function is called by:
  1348 ;;		_setup
  1349 ;; This function uses a non-reentrant model
  1350 ;;
  1351                           
  1352     0A7C                     _PWM_duty:	
  1353                           ;psect for function _PWM_duty
  1354                           
  1355                           
  1356                           ;incstack = 0
  1357                           ; Regs used in _PWM_duty: [wreg+status,2+status,0+btemp+1+pclath+cstack]
  1358                           ;PWM_duty@canal stored from wreg
  1359     0A7C  1683               	bsf	3,5	;RP0=1, select bank3
  1360     0A7D  1703               	bsf	3,6	;RP1=1, select bank3
  1361     0A7E  009F               	movwf	PWM_duty@canal^(0+384)
  1362     0A7F                     l2700:
  1363                           
  1364                           ;PWM_SERVO.c: 35:     int particion = (int)(4*duty/((1.0f/4000000)*16));
  1365     0A7F  081B               	movf	(PWM_duty@duty+3)^(0+384),w
  1366     0A80  1683               	bsf	3,5	;RP0=1, select bank1
  1367     0A81  1303               	bcf	3,6	;RP1=0, select bank1
  1368     0A82  00B9               	movwf	(___flmul@a+3)^(0+128)
  1369     0A83  1683               	bsf	3,5	;RP0=1, select bank3
  1370     0A84  1703               	bsf	3,6	;RP1=1, select bank3
  1371     0A85  081A               	movf	(PWM_duty@duty+2)^(0+384),w
  1372     0A86  1683               	bsf	3,5	;RP0=1, select bank1
  1373     0A87  1303               	bcf	3,6	;RP1=0, select bank1
  1374     0A88  00B8               	movwf	(___flmul@a+2)^(0+128)
  1375     0A89  1683               	bsf	3,5	;RP0=1, select bank3
  1376     0A8A  1703               	bsf	3,6	;RP1=1, select bank3
  1377     0A8B  0819               	movf	(PWM_duty@duty+1)^(0+384),w
  1378     0A8C  1683               	bsf	3,5	;RP0=1, select bank1
  1379     0A8D  1303               	bcf	3,6	;RP1=0, select bank1
  1380     0A8E  00B7               	movwf	(___flmul@a+1)^(0+128)
  1381     0A8F  1683               	bsf	3,5	;RP0=1, select bank3
  1382     0A90  1703               	bsf	3,6	;RP1=1, select bank3
  1383     0A91  0818               	movf	PWM_duty@duty^(0+384),w
  1384     0A92  1683               	bsf	3,5	;RP0=1, select bank1
  1385     0A93  1303               	bcf	3,6	;RP1=0, select bank1
  1386     0A94  00B6               	movwf	___flmul@a^(0+128)
  1387     0A95  3040               	movlw	64
  1388     0A96  00B5               	movwf	(___flmul@b+3)^(0+128)
  1389     0A97  3080               	movlw	128
  1390     0A98  00B4               	movwf	(___flmul@b+2)^(0+128)
  1391     0A99  3000               	movlw	0
  1392     0A9A  00B3               	movwf	(___flmul@b+1)^(0+128)
  1393     0A9B  3000               	movlw	0
  1394     0A9C  00B2               	movwf	___flmul@b^(0+128)
  1395     0A9D  120A  118A  2027  120A  158A  	fcall	___flmul
  1396     0AA2  1683               	bsf	3,5	;RP0=1, select bank1
  1397     0AA3  1303               	bcf	3,6	;RP1=0, select bank1
  1398     0AA4  0835               	movf	(?___flmul+3)^(0+128),w
  1399     0AA5  00D3               	movwf	(___fldiv@b+3)^(0+128)
  1400     0AA6  0834               	movf	(?___flmul+2)^(0+128),w
  1401     0AA7  00D2               	movwf	(___fldiv@b+2)^(0+128)
  1402     0AA8  0833               	movf	(?___flmul+1)^(0+128),w
  1403     0AA9  00D1               	movwf	(___fldiv@b+1)^(0+128)
  1404     0AAA  0832               	movf	?___flmul^(0+128),w
  1405     0AAB  00D0               	movwf	___fldiv@b^(0+128)
  1406     0AAC  3036               	movlw	54
  1407     0AAD  00CF               	movwf	(___fldiv@a+3)^(0+128)
  1408     0AAE  3086               	movlw	134
  1409     0AAF  00CE               	movwf	(___fldiv@a+2)^(0+128)
  1410     0AB0  3037               	movlw	55
  1411     0AB1  00CD               	movwf	(___fldiv@a+1)^(0+128)
  1412     0AB2  30BD               	movlw	189
  1413     0AB3  00CC               	movwf	___fldiv@a^(0+128)
  1414     0AB4  120A  158A  262D  120A  158A  	fcall	___fldiv
  1415     0AB9  1683               	bsf	3,5	;RP0=1, select bank1
  1416     0ABA  1303               	bcf	3,6	;RP1=0, select bank1
  1417     0ABB  084F               	movf	(?___fldiv+3)^(0+128),w
  1418     0ABC  1683               	bsf	3,5	;RP0=1, select bank3
  1419     0ABD  1703               	bsf	3,6	;RP1=1, select bank3
  1420     0ABE  0093               	movwf	(___fltol@f1+3)^(0+384)
  1421     0ABF  1683               	bsf	3,5	;RP0=1, select bank1
  1422     0AC0  1303               	bcf	3,6	;RP1=0, select bank1
  1423     0AC1  084E               	movf	(?___fldiv+2)^(0+128),w
  1424     0AC2  1683               	bsf	3,5	;RP0=1, select bank3
  1425     0AC3  1703               	bsf	3,6	;RP1=1, select bank3
  1426     0AC4  0092               	movwf	(___fltol@f1+2)^(0+384)
  1427     0AC5  1683               	bsf	3,5	;RP0=1, select bank1
  1428     0AC6  1303               	bcf	3,6	;RP1=0, select bank1
  1429     0AC7  084D               	movf	(?___fldiv+1)^(0+128),w
  1430     0AC8  1683               	bsf	3,5	;RP0=1, select bank3
  1431     0AC9  1703               	bsf	3,6	;RP1=1, select bank3
  1432     0ACA  0091               	movwf	(___fltol@f1+1)^(0+384)
  1433     0ACB  1683               	bsf	3,5	;RP0=1, select bank1
  1434     0ACC  1303               	bcf	3,6	;RP1=0, select bank1
  1435     0ACD  084C               	movf	?___fldiv^(0+128),w
  1436     0ACE  1683               	bsf	3,5	;RP0=1, select bank3
  1437     0ACF  1703               	bsf	3,6	;RP1=1, select bank3
  1438     0AD0  0090               	movwf	___fltol@f1^(0+384)
  1439     0AD1  160A  118A  2772  120A  158A  	fcall	___fltol
  1440     0AD6  1683               	bsf	3,5	;RP0=1, select bank3
  1441     0AD7  1703               	bsf	3,6	;RP1=1, select bank3
  1442     0AD8  0811               	movf	(?___fltol+1)^(0+384),w
  1443     0AD9  00A1               	movwf	(PWM_duty@particion+1)^(0+384)
  1444     0ADA  0810               	movf	?___fltol^(0+384),w
  1445     0ADB  00A0               	movwf	PWM_duty@particion^(0+384)
  1446     0ADC                     l2702:
  1447                           
  1448                           ;PWM_SERVO.c: 36:     if (canal == 1){
  1449     0ADC  031F               	decf	PWM_duty@canal^(0+384),w
  1450     0ADD  1D03               	btfss	3,2
  1451     0ADE  2AE0               	goto	u4241
  1452     0ADF  2AE1               	goto	u4240
  1453     0AE0                     u4241:
  1454     0AE0  2B1A               	goto	l2710
  1455     0AE1                     u4240:
  1456     0AE1                     l2704:
  1457                           
  1458                           ;PWM_SERVO.c: 37:         CCPR1L = (char)(particion >> 2);
  1459     0AE1  0821               	movf	(PWM_duty@particion+1)^(0+384),w
  1460     0AE2  009D               	movwf	(??_PWM_duty^(0+384)+1)
  1461     0AE3  0820               	movf	PWM_duty@particion^(0+384),w
  1462     0AE4  009C               	movwf	??_PWM_duty^(0+384)
  1463     0AE5  0D1D               	rlf	(??_PWM_duty^(0+384)+1),w
  1464     0AE6  0C9D               	rrf	(??_PWM_duty^(0+384)+1),f
  1465     0AE7  0C9C               	rrf	??_PWM_duty^(0+384),f
  1466     0AE8  0D1D               	rlf	(??_PWM_duty^(0+384)+1),w
  1467     0AE9  0C9D               	rrf	(??_PWM_duty^(0+384)+1),f
  1468     0AEA  0C9C               	rrf	??_PWM_duty^(0+384),f
  1469     0AEB  081C               	movf	??_PWM_duty^(0+384),w
  1470     0AEC  1283               	bcf	3,5	;RP0=0, select bank0
  1471     0AED  1303               	bcf	3,6	;RP1=0, select bank0
  1472     0AEE  0095               	movwf	21	;volatile
  1473     0AEF                     l2706:
  1474                           
  1475                           ;PWM_SERVO.c: 38:         CCP1CONbits.DC1B0 = (particion&(0b1));
  1476     0AEF  1683               	bsf	3,5	;RP0=1, select bank3
  1477     0AF0  1703               	bsf	3,6	;RP1=1, select bank3
  1478     0AF1  0820               	movf	PWM_duty@particion^(0+384),w
  1479     0AF2  3901               	andlw	1
  1480     0AF3  009C               	movwf	??_PWM_duty^(0+384)
  1481     0AF4  0E9C               	swapf	??_PWM_duty^(0+384),f
  1482     0AF5  1283               	bcf	3,5	;RP0=0, select bank0
  1483     0AF6  1303               	bcf	3,6	;RP1=0, select bank0
  1484     0AF7  0817               	movf	23,w	;volatile
  1485     0AF8  1683               	bsf	3,5	;RP0=1, select bank3
  1486     0AF9  1703               	bsf	3,6	;RP1=1, select bank3
  1487     0AFA  061C               	xorwf	??_PWM_duty^(0+384),w
  1488     0AFB  39EF               	andlw	-17
  1489     0AFC  061C               	xorwf	??_PWM_duty^(0+384),w
  1490     0AFD  1283               	bcf	3,5	;RP0=0, select bank0
  1491     0AFE  1303               	bcf	3,6	;RP1=0, select bank0
  1492     0AFF  0097               	movwf	23	;volatile
  1493     0B00                     l2708:
  1494                           
  1495                           ;PWM_SERVO.c: 39:         CCP1CONbits.DC1B1 = ((particion>>1) &(0b1));
  1496     0B00  1683               	bsf	3,5	;RP0=1, select bank3
  1497     0B01  1703               	bsf	3,6	;RP1=1, select bank3
  1498     0B02  0821               	movf	(PWM_duty@particion+1)^(0+384),w
  1499     0B03  009D               	movwf	(??_PWM_duty^(0+384)+1)
  1500     0B04  0820               	movf	PWM_duty@particion^(0+384),w
  1501     0B05  009C               	movwf	??_PWM_duty^(0+384)
  1502     0B06  0D1D               	rlf	(??_PWM_duty^(0+384)+1),w
  1503     0B07  0C9D               	rrf	(??_PWM_duty^(0+384)+1),f
  1504     0B08  0C9C               	rrf	??_PWM_duty^(0+384),f
  1505     0B09  081C               	movf	??_PWM_duty^(0+384),w
  1506     0B0A  3901               	andlw	1
  1507     0B0B  009E               	movwf	(??_PWM_duty+2)^(0+384)
  1508     0B0C  0E9E               	swapf	(??_PWM_duty+2)^(0+384),f
  1509     0B0D  0D9E               	rlf	(??_PWM_duty+2)^(0+384),f
  1510     0B0E  1283               	bcf	3,5	;RP0=0, select bank0
  1511     0B0F  1303               	bcf	3,6	;RP1=0, select bank0
  1512     0B10  0817               	movf	23,w	;volatile
  1513     0B11  1683               	bsf	3,5	;RP0=1, select bank3
  1514     0B12  1703               	bsf	3,6	;RP1=1, select bank3
  1515     0B13  061E               	xorwf	(??_PWM_duty+2)^(0+384),w
  1516     0B14  39DF               	andlw	-33
  1517     0B15  061E               	xorwf	(??_PWM_duty+2)^(0+384),w
  1518     0B16  1283               	bcf	3,5	;RP0=0, select bank0
  1519     0B17  1303               	bcf	3,6	;RP1=0, select bank0
  1520     0B18  0097               	movwf	23	;volatile
  1521                           
  1522                           ;PWM_SERVO.c: 40:     }
  1523     0B19  2B58               	goto	l33
  1524     0B1A                     l2710:
  1525     0B1A  3002               	movlw	2
  1526     0B1B  061F               	xorwf	PWM_duty@canal^(0+384),w
  1527     0B1C  1D03               	btfss	3,2
  1528     0B1D  2B1F               	goto	u4251
  1529     0B1E  2B20               	goto	u4250
  1530     0B1F                     u4251:
  1531     0B1F  2B58               	goto	l33
  1532     0B20                     u4250:
  1533     0B20                     l2712:
  1534                           
  1535                           ;PWM_SERVO.c: 42:         CCPR2L = (char)(particion >> 2);
  1536     0B20  0821               	movf	(PWM_duty@particion+1)^(0+384),w
  1537     0B21  009D               	movwf	(??_PWM_duty^(0+384)+1)
  1538     0B22  0820               	movf	PWM_duty@particion^(0+384),w
  1539     0B23  009C               	movwf	??_PWM_duty^(0+384)
  1540     0B24  0D1D               	rlf	(??_PWM_duty^(0+384)+1),w
  1541     0B25  0C9D               	rrf	(??_PWM_duty^(0+384)+1),f
  1542     0B26  0C9C               	rrf	??_PWM_duty^(0+384),f
  1543     0B27  0D1D               	rlf	(??_PWM_duty^(0+384)+1),w
  1544     0B28  0C9D               	rrf	(??_PWM_duty^(0+384)+1),f
  1545     0B29  0C9C               	rrf	??_PWM_duty^(0+384),f
  1546     0B2A  081C               	movf	??_PWM_duty^(0+384),w
  1547     0B2B  1283               	bcf	3,5	;RP0=0, select bank0
  1548     0B2C  1303               	bcf	3,6	;RP1=0, select bank0
  1549     0B2D  009B               	movwf	27	;volatile
  1550     0B2E                     l2714:
  1551                           
  1552                           ;PWM_SERVO.c: 43:         CCP2CONbits.DC2B0 = (particion&(0b1));
  1553     0B2E  1683               	bsf	3,5	;RP0=1, select bank3
  1554     0B2F  1703               	bsf	3,6	;RP1=1, select bank3
  1555     0B30  0820               	movf	PWM_duty@particion^(0+384),w
  1556     0B31  3901               	andlw	1
  1557     0B32  009C               	movwf	??_PWM_duty^(0+384)
  1558     0B33  0E9C               	swapf	??_PWM_duty^(0+384),f
  1559     0B34  1283               	bcf	3,5	;RP0=0, select bank0
  1560     0B35  1303               	bcf	3,6	;RP1=0, select bank0
  1561     0B36  081D               	movf	29,w	;volatile
  1562     0B37  1683               	bsf	3,5	;RP0=1, select bank3
  1563     0B38  1703               	bsf	3,6	;RP1=1, select bank3
  1564     0B39  061C               	xorwf	??_PWM_duty^(0+384),w
  1565     0B3A  39EF               	andlw	-17
  1566     0B3B  061C               	xorwf	??_PWM_duty^(0+384),w
  1567     0B3C  1283               	bcf	3,5	;RP0=0, select bank0
  1568     0B3D  1303               	bcf	3,6	;RP1=0, select bank0
  1569     0B3E  009D               	movwf	29	;volatile
  1570     0B3F                     l2716:
  1571                           
  1572                           ;PWM_SERVO.c: 44:         CCP2CONbits.DC2B1 = ((particion>>1) &(0b1));
  1573     0B3F  1683               	bsf	3,5	;RP0=1, select bank3
  1574     0B40  1703               	bsf	3,6	;RP1=1, select bank3
  1575     0B41  0821               	movf	(PWM_duty@particion+1)^(0+384),w
  1576     0B42  009D               	movwf	(??_PWM_duty^(0+384)+1)
  1577     0B43  0820               	movf	PWM_duty@particion^(0+384),w
  1578     0B44  009C               	movwf	??_PWM_duty^(0+384)
  1579     0B45  0D1D               	rlf	(??_PWM_duty^(0+384)+1),w
  1580     0B46  0C9D               	rrf	(??_PWM_duty^(0+384)+1),f
  1581     0B47  0C9C               	rrf	??_PWM_duty^(0+384),f
  1582     0B48  081C               	movf	??_PWM_duty^(0+384),w
  1583     0B49  3901               	andlw	1
  1584     0B4A  009E               	movwf	(??_PWM_duty+2)^(0+384)
  1585     0B4B  0E9E               	swapf	(??_PWM_duty+2)^(0+384),f
  1586     0B4C  0D9E               	rlf	(??_PWM_duty+2)^(0+384),f
  1587     0B4D  1283               	bcf	3,5	;RP0=0, select bank0
  1588     0B4E  1303               	bcf	3,6	;RP1=0, select bank0
  1589     0B4F  081D               	movf	29,w	;volatile
  1590     0B50  1683               	bsf	3,5	;RP0=1, select bank3
  1591     0B51  1703               	bsf	3,6	;RP1=1, select bank3
  1592     0B52  061E               	xorwf	(??_PWM_duty+2)^(0+384),w
  1593     0B53  39DF               	andlw	-33
  1594     0B54  061E               	xorwf	(??_PWM_duty+2)^(0+384),w
  1595     0B55  1283               	bcf	3,5	;RP0=0, select bank0
  1596     0B56  1303               	bcf	3,6	;RP1=0, select bank0
  1597     0B57  009D               	movwf	29	;volatile
  1598     0B58                     l33:
  1599     0B58  0008               	return
  1600     0B59                     __end_of_PWM_duty:
  1601                           
  1602                           	psect	text3
  1603     0027                     __ptext3:	
  1604 ;; *************** function ___flmul *****************
  1605 ;; Defined at:
  1606 ;;		line 8 in file "C:\Program Files\Microchip\xc8\v2.40\pic\sources\c90\common\sprcmul.c"
  1607 ;; Parameters:    Size  Location     Type
  1608 ;;  b               4   18[BANK1 ] void 
  1609 ;;  a               4   22[BANK1 ] void 
  1610 ;; Auto vars:     Size  Location     Type
  1611 ;;  prod            4   38[BANK1 ] struct .
  1612 ;;  grs             4   32[BANK1 ] unsigned long 
  1613 ;;  temp            2   42[BANK1 ] struct .
  1614 ;;  bexp            1   37[BANK1 ] unsigned char 
  1615 ;;  aexp            1   36[BANK1 ] unsigned char 
  1616 ;;  sign            1   31[BANK1 ] unsigned char 
  1617 ;; Return value:  Size  Location     Type
  1618 ;;                  4   18[BANK1 ] unsigned char 
  1619 ;; Registers used:
  1620 ;;		wreg, status,2, status,0, btemp+1, pclath, cstack
  1621 ;; Tracked objects:
  1622 ;;		On entry : 0/0
  1623 ;;		On exit  : 0/0
  1624 ;;		Unchanged: 0/0
  1625 ;; Data sizes:     COMMON   BANK0   BANK1   BANK3   BANK2
  1626 ;;      Params:         0       0       8       0       0
  1627 ;;      Locals:         0       0      13       0       0
  1628 ;;      Temps:          0       0       5       0       0
  1629 ;;      Totals:         0       0      26       0       0
  1630 ;;Total ram usage:       26 bytes
  1631 ;; Hardware stack levels used: 1
  1632 ;; Hardware stack levels required when called: 5
  1633 ;; This function calls:
  1634 ;;		__Umul8_16
  1635 ;; This function is called by:
  1636 ;;		_PWM_duty
  1637 ;;		_main
  1638 ;;		_Mapeo_Pot
  1639 ;;		_Duty_Pot
  1640 ;; This function uses a non-reentrant model
  1641 ;;
  1642                           
  1643     0027                     ___flmul:	
  1644                           ;psect for function ___flmul
  1645                           
  1646     0027                     l1876:	
  1647                           ;incstack = 0
  1648                           ; Regs used in ___flmul: [wreg+status,2+status,0+btemp+1+pclath+cstack]
  1649                           
  1650     0027  1683               	bsf	3,5	;RP0=1, select bank1
  1651     0028  1303               	bcf	3,6	;RP1=0, select bank1
  1652     0029  0835               	movf	(___flmul@b^(0+128)+3),w
  1653     002A  3980               	andlw	128
  1654     002B  00BF               	movwf	___flmul@sign^(0+128)
  1655     002C                     l1878:
  1656     002C  0835               	movf	(___flmul@b^(0+128)+3),w
  1657     002D  00BA               	movwf	??___flmul^(0+128)
  1658     002E  073A               	addwf	??___flmul^(0+128),w
  1659     002F  00C5               	movwf	___flmul@bexp^(0+128)
  1660     0030                     l1880:
  1661     0030  1FB4               	btfss	(___flmul@b^(0+128)+2),7
  1662     0031  2833               	goto	u2481
  1663     0032  2834               	goto	u2480
  1664     0033                     u2481:
  1665     0033  2835               	goto	l1884
  1666     0034                     u2480:
  1667     0034                     l1882:
  1668     0034  1445               	bsf	___flmul@bexp^(0+128),0
  1669     0035                     l1884:
  1670     0035  0845               	movf	___flmul@bexp^(0+128),w
  1671     0036  1903               	btfsc	3,2
  1672     0037  2839               	goto	u2491
  1673     0038  283A               	goto	u2490
  1674     0039                     u2491:
  1675     0039  2849               	goto	l1892
  1676     003A                     u2490:
  1677     003A                     l1886:
  1678     003A  0A45               	incf	___flmul@bexp^(0+128),w
  1679     003B  1D03               	btfss	3,2
  1680     003C  283E               	goto	u2501
  1681     003D  283F               	goto	u2500
  1682     003E                     u2501:
  1683     003E  2847               	goto	l1890
  1684     003F                     u2500:
  1685     003F                     l1888:
  1686     003F  3000               	movlw	0
  1687     0040  00B5               	movwf	(___flmul@b+3)^(0+128)
  1688     0041  3000               	movlw	0
  1689     0042  00B4               	movwf	(___flmul@b+2)^(0+128)
  1690     0043  3000               	movlw	0
  1691     0044  00B3               	movwf	(___flmul@b+1)^(0+128)
  1692     0045  3000               	movlw	0
  1693     0046  00B2               	movwf	___flmul@b^(0+128)
  1694     0047                     l1890:
  1695     0047  17B4               	bsf	(___flmul@b^(0+128)+2),7
  1696     0048  2851               	goto	l1894
  1697     0049                     l1892:
  1698     0049  3000               	movlw	0
  1699     004A  00B5               	movwf	(___flmul@b+3)^(0+128)
  1700     004B  3000               	movlw	0
  1701     004C  00B4               	movwf	(___flmul@b+2)^(0+128)
  1702     004D  3000               	movlw	0
  1703     004E  00B3               	movwf	(___flmul@b+1)^(0+128)
  1704     004F  3000               	movlw	0
  1705     0050  00B2               	movwf	___flmul@b^(0+128)
  1706     0051                     l1894:
  1707     0051  0839               	movf	(___flmul@a^(0+128)+3),w
  1708     0052  3980               	andlw	128
  1709     0053  00BA               	movwf	??___flmul^(0+128)
  1710     0054  083A               	movf	??___flmul^(0+128),w
  1711     0055  06BF               	xorwf	___flmul@sign^(0+128),f
  1712     0056                     l1896:
  1713     0056  0839               	movf	(___flmul@a^(0+128)+3),w
  1714     0057  00BA               	movwf	??___flmul^(0+128)
  1715     0058  073A               	addwf	??___flmul^(0+128),w
  1716     0059  00C4               	movwf	___flmul@aexp^(0+128)
  1717     005A                     l1898:
  1718     005A  1FB8               	btfss	(___flmul@a^(0+128)+2),7
  1719     005B  285D               	goto	u2511
  1720     005C  285E               	goto	u2510
  1721     005D                     u2511:
  1722     005D  285F               	goto	l1902
  1723     005E                     u2510:
  1724     005E                     l1900:
  1725     005E  1444               	bsf	___flmul@aexp^(0+128),0
  1726     005F                     l1902:
  1727     005F  0844               	movf	___flmul@aexp^(0+128),w
  1728     0060  1903               	btfsc	3,2
  1729     0061  2863               	goto	u2521
  1730     0062  2864               	goto	u2520
  1731     0063                     u2521:
  1732     0063  2873               	goto	l1910
  1733     0064                     u2520:
  1734     0064                     l1904:
  1735     0064  0A44               	incf	___flmul@aexp^(0+128),w
  1736     0065  1D03               	btfss	3,2
  1737     0066  2868               	goto	u2531
  1738     0067  2869               	goto	u2530
  1739     0068                     u2531:
  1740     0068  2871               	goto	l1908
  1741     0069                     u2530:
  1742     0069                     l1906:
  1743     0069  3000               	movlw	0
  1744     006A  00B9               	movwf	(___flmul@a+3)^(0+128)
  1745     006B  3000               	movlw	0
  1746     006C  00B8               	movwf	(___flmul@a+2)^(0+128)
  1747     006D  3000               	movlw	0
  1748     006E  00B7               	movwf	(___flmul@a+1)^(0+128)
  1749     006F  3000               	movlw	0
  1750     0070  00B6               	movwf	___flmul@a^(0+128)
  1751     0071                     l1908:
  1752     0071  17B8               	bsf	(___flmul@a^(0+128)+2),7
  1753     0072  287B               	goto	l1912
  1754     0073                     l1910:
  1755     0073  3000               	movlw	0
  1756     0074  00B9               	movwf	(___flmul@a+3)^(0+128)
  1757     0075  3000               	movlw	0
  1758     0076  00B8               	movwf	(___flmul@a+2)^(0+128)
  1759     0077  3000               	movlw	0
  1760     0078  00B7               	movwf	(___flmul@a+1)^(0+128)
  1761     0079  3000               	movlw	0
  1762     007A  00B6               	movwf	___flmul@a^(0+128)
  1763     007B                     l1912:
  1764     007B  0844               	movf	___flmul@aexp^(0+128),w
  1765     007C  1903               	btfsc	3,2
  1766     007D  287F               	goto	u2541
  1767     007E  2880               	goto	u2540
  1768     007F                     u2541:
  1769     007F  2885               	goto	l1916
  1770     0080                     u2540:
  1771     0080                     l1914:
  1772     0080  0845               	movf	___flmul@bexp^(0+128),w
  1773     0081  1D03               	btfss	3,2
  1774     0082  2884               	goto	u2551
  1775     0083  2885               	goto	u2550
  1776     0084                     u2551:
  1777     0084  288E               	goto	l1920
  1778     0085                     u2550:
  1779     0085                     l1916:
  1780     0085  3000               	movlw	0
  1781     0086  00B5               	movwf	(?___flmul+3)^(0+128)
  1782     0087  3000               	movlw	0
  1783     0088  00B4               	movwf	(?___flmul+2)^(0+128)
  1784     0089  3000               	movlw	0
  1785     008A  00B3               	movwf	(?___flmul+1)^(0+128)
  1786     008B  3000               	movlw	0
  1787     008C  00B2               	movwf	?___flmul^(0+128)
  1788     008D  2B6B               	goto	l615
  1789     008E                     l1920:
  1790     008E  0832               	movf	___flmul@b^(0+128),w
  1791     008F  00A4               	movwf	__Umul8_16@multiplicand^(0+128)
  1792     0090  0838               	movf	(___flmul@a^(0+128)+2),w
  1793     0091  160A  118A  2644  120A  118A  	fcall	__Umul8_16
  1794     0096  1683               	bsf	3,5	;RP0=1, select bank1
  1795     0097  1303               	bcf	3,6	;RP1=0, select bank1
  1796     0098  0825               	movf	(?__Umul8_16+1)^(0+128),w
  1797     0099  00CB               	movwf	(___flmul@temp+1)^(0+128)
  1798     009A  0824               	movf	?__Umul8_16^(0+128),w
  1799     009B  00CA               	movwf	___flmul@temp^(0+128)
  1800     009C                     l1922:
  1801     009C  084A               	movf	___flmul@temp^(0+128),w
  1802     009D  00BA               	movwf	??___flmul^(0+128)
  1803     009E  01BB               	clrf	(??___flmul^(0+128)+1)
  1804     009F  01BC               	clrf	(??___flmul^(0+128)+2)
  1805     00A0  01BD               	clrf	(??___flmul^(0+128)+3)
  1806     00A1  083D               	movf	(??___flmul+3)^(0+128),w
  1807     00A2  00C3               	movwf	(___flmul@grs+3)^(0+128)
  1808     00A3  083C               	movf	(??___flmul+2)^(0+128),w
  1809     00A4  00C2               	movwf	(___flmul@grs+2)^(0+128)
  1810     00A5  083B               	movf	(??___flmul+1)^(0+128),w
  1811     00A6  00C1               	movwf	(___flmul@grs+1)^(0+128)
  1812     00A7  083A               	movf	??___flmul^(0+128),w
  1813     00A8  00C0               	movwf	___flmul@grs^(0+128)
  1814     00A9                     l1924:
  1815     00A9  084B               	movf	(___flmul@temp^(0+128)+1),w
  1816     00AA  00BA               	movwf	??___flmul^(0+128)
  1817     00AB  01BB               	clrf	(??___flmul^(0+128)+1)
  1818     00AC  01BC               	clrf	(??___flmul^(0+128)+2)
  1819     00AD  01BD               	clrf	(??___flmul^(0+128)+3)
  1820     00AE  083D               	movf	(??___flmul+3)^(0+128),w
  1821     00AF  00C9               	movwf	(___flmul@prod+3)^(0+128)
  1822     00B0  083C               	movf	(??___flmul+2)^(0+128),w
  1823     00B1  00C8               	movwf	(___flmul@prod+2)^(0+128)
  1824     00B2  083B               	movf	(??___flmul+1)^(0+128),w
  1825     00B3  00C7               	movwf	(___flmul@prod+1)^(0+128)
  1826     00B4  083A               	movf	??___flmul^(0+128),w
  1827     00B5  00C6               	movwf	___flmul@prod^(0+128)
  1828     00B6  0833               	movf	(___flmul@b^(0+128)+1),w
  1829     00B7  00A4               	movwf	__Umul8_16@multiplicand^(0+128)
  1830     00B8  0837               	movf	(___flmul@a^(0+128)+1),w
  1831     00B9  160A  118A  2644  120A  118A  	fcall	__Umul8_16
  1832     00BE  1683               	bsf	3,5	;RP0=1, select bank1
  1833     00BF  1303               	bcf	3,6	;RP1=0, select bank1
  1834     00C0  0825               	movf	(?__Umul8_16+1)^(0+128),w
  1835     00C1  00CB               	movwf	(___flmul@temp+1)^(0+128)
  1836     00C2  0824               	movf	?__Umul8_16^(0+128),w
  1837     00C3  00CA               	movwf	___flmul@temp^(0+128)
  1838     00C4                     l1926:
  1839     00C4  084A               	movf	___flmul@temp^(0+128),w
  1840     00C5  00BA               	movwf	??___flmul^(0+128)
  1841     00C6  01BB               	clrf	(??___flmul^(0+128)+1)
  1842     00C7  01BC               	clrf	(??___flmul^(0+128)+2)
  1843     00C8  01BD               	clrf	(??___flmul^(0+128)+3)
  1844     00C9  083A               	movf	??___flmul^(0+128),w
  1845     00CA  07C0               	addwf	___flmul@grs^(0+128),f
  1846     00CB  083B               	movf	(??___flmul+1)^(0+128),w
  1847     00CC  1103               	clrz
  1848     00CD  1803               	skipnc
  1849     00CE  3E01               	addlw	1
  1850     00CF  1903               	skipnz
  1851     00D0  28D2               	goto	u2561
  1852     00D1  07C1               	addwf	(___flmul@grs+1)^(0+128),f
  1853     00D2                     u2561:
  1854     00D2  083C               	movf	(??___flmul+2)^(0+128),w
  1855     00D3  1103               	clrz
  1856     00D4  1803               	skipnc
  1857     00D5  3E01               	addlw	1
  1858     00D6  1903               	skipnz
  1859     00D7  28D9               	goto	u2562
  1860     00D8  07C2               	addwf	(___flmul@grs+2)^(0+128),f
  1861     00D9                     u2562:
  1862     00D9  083D               	movf	(??___flmul+3)^(0+128),w
  1863     00DA  1103               	clrz
  1864     00DB  1803               	skipnc
  1865     00DC  3E01               	addlw	1
  1866     00DD  1903               	skipnz
  1867     00DE  28E0               	goto	u2563
  1868     00DF  07C3               	addwf	(___flmul@grs+3)^(0+128),f
  1869     00E0                     u2563:
  1870     00E0                     l1928:
  1871     00E0  084B               	movf	(___flmul@temp^(0+128)+1),w
  1872     00E1  00BA               	movwf	??___flmul^(0+128)
  1873     00E2  01BB               	clrf	(??___flmul^(0+128)+1)
  1874     00E3  01BC               	clrf	(??___flmul^(0+128)+2)
  1875     00E4  01BD               	clrf	(??___flmul^(0+128)+3)
  1876     00E5  083A               	movf	??___flmul^(0+128),w
  1877     00E6  07C6               	addwf	___flmul@prod^(0+128),f
  1878     00E7  083B               	movf	(??___flmul+1)^(0+128),w
  1879     00E8  1103               	clrz
  1880     00E9  1803               	skipnc
  1881     00EA  3E01               	addlw	1
  1882     00EB  1903               	skipnz
  1883     00EC  28EE               	goto	u2571
  1884     00ED  07C7               	addwf	(___flmul@prod+1)^(0+128),f
  1885     00EE                     u2571:
  1886     00EE  083C               	movf	(??___flmul+2)^(0+128),w
  1887     00EF  1103               	clrz
  1888     00F0  1803               	skipnc
  1889     00F1  3E01               	addlw	1
  1890     00F2  1903               	skipnz
  1891     00F3  28F5               	goto	u2572
  1892     00F4  07C8               	addwf	(___flmul@prod+2)^(0+128),f
  1893     00F5                     u2572:
  1894     00F5  083D               	movf	(??___flmul+3)^(0+128),w
  1895     00F6  1103               	clrz
  1896     00F7  1803               	skipnc
  1897     00F8  3E01               	addlw	1
  1898     00F9  1903               	skipnz
  1899     00FA  28FC               	goto	u2573
  1900     00FB  07C9               	addwf	(___flmul@prod+3)^(0+128),f
  1901     00FC                     u2573:
  1902     00FC  0834               	movf	(___flmul@b^(0+128)+2),w
  1903     00FD  00A4               	movwf	__Umul8_16@multiplicand^(0+128)
  1904     00FE  0836               	movf	___flmul@a^(0+128),w
  1905     00FF  160A  118A  2644  120A  118A  	fcall	__Umul8_16
  1906     0104  1683               	bsf	3,5	;RP0=1, select bank1
  1907     0105  1303               	bcf	3,6	;RP1=0, select bank1
  1908     0106  0825               	movf	(?__Umul8_16+1)^(0+128),w
  1909     0107  00CB               	movwf	(___flmul@temp+1)^(0+128)
  1910     0108  0824               	movf	?__Umul8_16^(0+128),w
  1911     0109  00CA               	movwf	___flmul@temp^(0+128)
  1912     010A                     l1930:
  1913     010A  084A               	movf	___flmul@temp^(0+128),w
  1914     010B  00BA               	movwf	??___flmul^(0+128)
  1915     010C  01BB               	clrf	(??___flmul^(0+128)+1)
  1916     010D  01BC               	clrf	(??___flmul^(0+128)+2)
  1917     010E  01BD               	clrf	(??___flmul^(0+128)+3)
  1918     010F  083A               	movf	??___flmul^(0+128),w
  1919     0110  07C0               	addwf	___flmul@grs^(0+128),f
  1920     0111  083B               	movf	(??___flmul+1)^(0+128),w
  1921     0112  1103               	clrz
  1922     0113  1803               	skipnc
  1923     0114  3E01               	addlw	1
  1924     0115  1903               	skipnz
  1925     0116  2918               	goto	u2581
  1926     0117  07C1               	addwf	(___flmul@grs+1)^(0+128),f
  1927     0118                     u2581:
  1928     0118  083C               	movf	(??___flmul+2)^(0+128),w
  1929     0119  1103               	clrz
  1930     011A  1803               	skipnc
  1931     011B  3E01               	addlw	1
  1932     011C  1903               	skipnz
  1933     011D  291F               	goto	u2582
  1934     011E  07C2               	addwf	(___flmul@grs+2)^(0+128),f
  1935     011F                     u2582:
  1936     011F  083D               	movf	(??___flmul+3)^(0+128),w
  1937     0120  1103               	clrz
  1938     0121  1803               	skipnc
  1939     0122  3E01               	addlw	1
  1940     0123  1903               	skipnz
  1941     0124  2926               	goto	u2583
  1942     0125  07C3               	addwf	(___flmul@grs+3)^(0+128),f
  1943     0126                     u2583:
  1944     0126                     l1932:
  1945     0126  084B               	movf	(___flmul@temp^(0+128)+1),w
  1946     0127  00BA               	movwf	??___flmul^(0+128)
  1947     0128  01BB               	clrf	(??___flmul^(0+128)+1)
  1948     0129  01BC               	clrf	(??___flmul^(0+128)+2)
  1949     012A  01BD               	clrf	(??___flmul^(0+128)+3)
  1950     012B  083A               	movf	??___flmul^(0+128),w
  1951     012C  07C6               	addwf	___flmul@prod^(0+128),f
  1952     012D  083B               	movf	(??___flmul+1)^(0+128),w
  1953     012E  1103               	clrz
  1954     012F  1803               	skipnc
  1955     0130  3E01               	addlw	1
  1956     0131  1903               	skipnz
  1957     0132  2934               	goto	u2591
  1958     0133  07C7               	addwf	(___flmul@prod+1)^(0+128),f
  1959     0134                     u2591:
  1960     0134  083C               	movf	(??___flmul+2)^(0+128),w
  1961     0135  1103               	clrz
  1962     0136  1803               	skipnc
  1963     0137  3E01               	addlw	1
  1964     0138  1903               	skipnz
  1965     0139  293B               	goto	u2592
  1966     013A  07C8               	addwf	(___flmul@prod+2)^(0+128),f
  1967     013B                     u2592:
  1968     013B  083D               	movf	(??___flmul+3)^(0+128),w
  1969     013C  1103               	clrz
  1970     013D  1803               	skipnc
  1971     013E  3E01               	addlw	1
  1972     013F  1903               	skipnz
  1973     0140  2942               	goto	u2593
  1974     0141  07C9               	addwf	(___flmul@prod+3)^(0+128),f
  1975     0142                     u2593:
  1976     0142                     l1934:
  1977     0142  3008               	movlw	8
  1978     0143  00BA               	movwf	??___flmul^(0+128)
  1979     0144                     u2605:
  1980     0144  1003               	clrc
  1981     0145  0DC0               	rlf	___flmul@grs^(0+128),f
  1982     0146  0DC1               	rlf	(___flmul@grs+1)^(0+128),f
  1983     0147  0DC2               	rlf	(___flmul@grs+2)^(0+128),f
  1984     0148  0DC3               	rlf	(___flmul@grs+3)^(0+128),f
  1985     0149  0BBA               	decfsz	??___flmul^(0+128),f
  1986     014A  2944               	goto	u2605
  1987     014B                     l1936:
  1988     014B  0833               	movf	(___flmul@b^(0+128)+1),w
  1989     014C  00A4               	movwf	__Umul8_16@multiplicand^(0+128)
  1990     014D  0836               	movf	___flmul@a^(0+128),w
  1991     014E  160A  118A  2644  120A  118A  	fcall	__Umul8_16
  1992     0153  1683               	bsf	3,5	;RP0=1, select bank1
  1993     0154  1303               	bcf	3,6	;RP1=0, select bank1
  1994     0155  0825               	movf	(?__Umul8_16+1)^(0+128),w
  1995     0156  00CB               	movwf	(___flmul@temp+1)^(0+128)
  1996     0157  0824               	movf	?__Umul8_16^(0+128),w
  1997     0158  00CA               	movwf	___flmul@temp^(0+128)
  1998     0159                     l1938:
  1999     0159  084A               	movf	___flmul@temp^(0+128),w
  2000     015A  00BA               	movwf	??___flmul^(0+128)
  2001     015B  084B               	movf	(___flmul@temp+1)^(0+128),w
  2002     015C  00BB               	movwf	(??___flmul^(0+128)+1)
  2003     015D  01BC               	clrf	(??___flmul^(0+128)+2)
  2004     015E  01BD               	clrf	(??___flmul^(0+128)+3)
  2005     015F  083A               	movf	??___flmul^(0+128),w
  2006     0160  07C0               	addwf	___flmul@grs^(0+128),f
  2007     0161  083B               	movf	(??___flmul+1)^(0+128),w
  2008     0162  1103               	clrz
  2009     0163  1803               	skipnc
  2010     0164  3E01               	addlw	1
  2011     0165  1903               	skipnz
  2012     0166  2968               	goto	u2611
  2013     0167  07C1               	addwf	(___flmul@grs+1)^(0+128),f
  2014     0168                     u2611:
  2015     0168  083C               	movf	(??___flmul+2)^(0+128),w
  2016     0169  1103               	clrz
  2017     016A  1803               	skipnc
  2018     016B  3E01               	addlw	1
  2019     016C  1903               	skipnz
  2020     016D  296F               	goto	u2612
  2021     016E  07C2               	addwf	(___flmul@grs+2)^(0+128),f
  2022     016F                     u2612:
  2023     016F  083D               	movf	(??___flmul+3)^(0+128),w
  2024     0170  1103               	clrz
  2025     0171  1803               	skipnc
  2026     0172  3E01               	addlw	1
  2027     0173  1903               	skipnz
  2028     0174  2976               	goto	u2613
  2029     0175  07C3               	addwf	(___flmul@grs+3)^(0+128),f
  2030     0176                     u2613:
  2031     0176                     l1940:
  2032     0176  0832               	movf	___flmul@b^(0+128),w
  2033     0177  00A4               	movwf	__Umul8_16@multiplicand^(0+128)
  2034     0178  0837               	movf	(___flmul@a^(0+128)+1),w
  2035     0179  160A  118A  2644  120A  118A  	fcall	__Umul8_16
  2036     017E  1683               	bsf	3,5	;RP0=1, select bank1
  2037     017F  1303               	bcf	3,6	;RP1=0, select bank1
  2038     0180  0825               	movf	(?__Umul8_16+1)^(0+128),w
  2039     0181  00CB               	movwf	(___flmul@temp+1)^(0+128)
  2040     0182  0824               	movf	?__Umul8_16^(0+128),w
  2041     0183  00CA               	movwf	___flmul@temp^(0+128)
  2042     0184                     l1942:
  2043     0184  084A               	movf	___flmul@temp^(0+128),w
  2044     0185  00BA               	movwf	??___flmul^(0+128)
  2045     0186  084B               	movf	(___flmul@temp+1)^(0+128),w
  2046     0187  00BB               	movwf	(??___flmul^(0+128)+1)
  2047     0188  01BC               	clrf	(??___flmul^(0+128)+2)
  2048     0189  01BD               	clrf	(??___flmul^(0+128)+3)
  2049     018A  083A               	movf	??___flmul^(0+128),w
  2050     018B  07C0               	addwf	___flmul@grs^(0+128),f
  2051     018C  083B               	movf	(??___flmul+1)^(0+128),w
  2052     018D  1103               	clrz
  2053     018E  1803               	skipnc
  2054     018F  3E01               	addlw	1
  2055     0190  1903               	skipnz
  2056     0191  2993               	goto	u2621
  2057     0192  07C1               	addwf	(___flmul@grs+1)^(0+128),f
  2058     0193                     u2621:
  2059     0193  083C               	movf	(??___flmul+2)^(0+128),w
  2060     0194  1103               	clrz
  2061     0195  1803               	skipnc
  2062     0196  3E01               	addlw	1
  2063     0197  1903               	skipnz
  2064     0198  299A               	goto	u2622
  2065     0199  07C2               	addwf	(___flmul@grs+2)^(0+128),f
  2066     019A                     u2622:
  2067     019A  083D               	movf	(??___flmul+3)^(0+128),w
  2068     019B  1103               	clrz
  2069     019C  1803               	skipnc
  2070     019D  3E01               	addlw	1
  2071     019E  1903               	skipnz
  2072     019F  29A1               	goto	u2623
  2073     01A0  07C3               	addwf	(___flmul@grs+3)^(0+128),f
  2074     01A1                     u2623:
  2075     01A1                     l1944:
  2076     01A1  3008               	movlw	8
  2077     01A2  00BA               	movwf	??___flmul^(0+128)
  2078     01A3                     u2635:
  2079     01A3  1003               	clrc
  2080     01A4  0DC0               	rlf	___flmul@grs^(0+128),f
  2081     01A5  0DC1               	rlf	(___flmul@grs+1)^(0+128),f
  2082     01A6  0DC2               	rlf	(___flmul@grs+2)^(0+128),f
  2083     01A7  0DC3               	rlf	(___flmul@grs+3)^(0+128),f
  2084     01A8  0BBA               	decfsz	??___flmul^(0+128),f
  2085     01A9  29A3               	goto	u2635
  2086     01AA  0832               	movf	___flmul@b^(0+128),w
  2087     01AB  00A4               	movwf	__Umul8_16@multiplicand^(0+128)
  2088     01AC  0836               	movf	___flmul@a^(0+128),w
  2089     01AD  160A  118A  2644  120A  118A  	fcall	__Umul8_16
  2090     01B2  1683               	bsf	3,5	;RP0=1, select bank1
  2091     01B3  1303               	bcf	3,6	;RP1=0, select bank1
  2092     01B4  0825               	movf	(?__Umul8_16+1)^(0+128),w
  2093     01B5  00CB               	movwf	(___flmul@temp+1)^(0+128)
  2094     01B6  0824               	movf	?__Umul8_16^(0+128),w
  2095     01B7  00CA               	movwf	___flmul@temp^(0+128)
  2096     01B8                     l1946:
  2097     01B8  084A               	movf	___flmul@temp^(0+128),w
  2098     01B9  00BA               	movwf	??___flmul^(0+128)
  2099     01BA  084B               	movf	(___flmul@temp+1)^(0+128),w
  2100     01BB  00BB               	movwf	(??___flmul^(0+128)+1)
  2101     01BC  01BC               	clrf	(??___flmul^(0+128)+2)
  2102     01BD  01BD               	clrf	(??___flmul^(0+128)+3)
  2103     01BE  083A               	movf	??___flmul^(0+128),w
  2104     01BF  07C0               	addwf	___flmul@grs^(0+128),f
  2105     01C0  083B               	movf	(??___flmul+1)^(0+128),w
  2106     01C1  1103               	clrz
  2107     01C2  1803               	skipnc
  2108     01C3  3E01               	addlw	1
  2109     01C4  1903               	skipnz
  2110     01C5  29C7               	goto	u2641
  2111     01C6  07C1               	addwf	(___flmul@grs+1)^(0+128),f
  2112     01C7                     u2641:
  2113     01C7  083C               	movf	(??___flmul+2)^(0+128),w
  2114     01C8  1103               	clrz
  2115     01C9  1803               	skipnc
  2116     01CA  3E01               	addlw	1
  2117     01CB  1903               	skipnz
  2118     01CC  29CE               	goto	u2642
  2119     01CD  07C2               	addwf	(___flmul@grs+2)^(0+128),f
  2120     01CE                     u2642:
  2121     01CE  083D               	movf	(??___flmul+3)^(0+128),w
  2122     01CF  1103               	clrz
  2123     01D0  1803               	skipnc
  2124     01D1  3E01               	addlw	1
  2125     01D2  1903               	skipnz
  2126     01D3  29D5               	goto	u2643
  2127     01D4  07C3               	addwf	(___flmul@grs+3)^(0+128),f
  2128     01D5                     u2643:
  2129     01D5                     l1948:
  2130     01D5  0833               	movf	(___flmul@b^(0+128)+1),w
  2131     01D6  00A4               	movwf	__Umul8_16@multiplicand^(0+128)
  2132     01D7  0838               	movf	(___flmul@a^(0+128)+2),w
  2133     01D8  160A  118A  2644  120A  118A  	fcall	__Umul8_16
  2134     01DD  1683               	bsf	3,5	;RP0=1, select bank1
  2135     01DE  1303               	bcf	3,6	;RP1=0, select bank1
  2136     01DF  0825               	movf	(?__Umul8_16+1)^(0+128),w
  2137     01E0  00CB               	movwf	(___flmul@temp+1)^(0+128)
  2138     01E1  0824               	movf	?__Umul8_16^(0+128),w
  2139     01E2  00CA               	movwf	___flmul@temp^(0+128)
  2140     01E3  084A               	movf	___flmul@temp^(0+128),w
  2141     01E4  00BA               	movwf	??___flmul^(0+128)
  2142     01E5  084B               	movf	(___flmul@temp+1)^(0+128),w
  2143     01E6  00BB               	movwf	(??___flmul^(0+128)+1)
  2144     01E7  01BC               	clrf	(??___flmul^(0+128)+2)
  2145     01E8  01BD               	clrf	(??___flmul^(0+128)+3)
  2146     01E9  083A               	movf	??___flmul^(0+128),w
  2147     01EA  07C6               	addwf	___flmul@prod^(0+128),f
  2148     01EB  083B               	movf	(??___flmul+1)^(0+128),w
  2149     01EC  1103               	clrz
  2150     01ED  1803               	skipnc
  2151     01EE  3E01               	addlw	1
  2152     01EF  1903               	skipnz
  2153     01F0  29F2               	goto	u2651
  2154     01F1  07C7               	addwf	(___flmul@prod+1)^(0+128),f
  2155     01F2                     u2651:
  2156     01F2  083C               	movf	(??___flmul+2)^(0+128),w
  2157     01F3  1103               	clrz
  2158     01F4  1803               	skipnc
  2159     01F5  3E01               	addlw	1
  2160     01F6  1903               	skipnz
  2161     01F7  29F9               	goto	u2652
  2162     01F8  07C8               	addwf	(___flmul@prod+2)^(0+128),f
  2163     01F9                     u2652:
  2164     01F9  083D               	movf	(??___flmul+3)^(0+128),w
  2165     01FA  1103               	clrz
  2166     01FB  1803               	skipnc
  2167     01FC  3E01               	addlw	1
  2168     01FD  1903               	skipnz
  2169     01FE  2A00               	goto	u2653
  2170     01FF  07C9               	addwf	(___flmul@prod+3)^(0+128),f
  2171     0200                     u2653:
  2172     0200                     l1950:
  2173     0200  0834               	movf	(___flmul@b^(0+128)+2),w
  2174     0201  00A4               	movwf	__Umul8_16@multiplicand^(0+128)
  2175     0202  0837               	movf	(___flmul@a^(0+128)+1),w
  2176     0203  160A  118A  2644  120A  118A  	fcall	__Umul8_16
  2177     0208  1683               	bsf	3,5	;RP0=1, select bank1
  2178     0209  1303               	bcf	3,6	;RP1=0, select bank1
  2179     020A  0825               	movf	(?__Umul8_16+1)^(0+128),w
  2180     020B  00CB               	movwf	(___flmul@temp+1)^(0+128)
  2181     020C  0824               	movf	?__Umul8_16^(0+128),w
  2182     020D  00CA               	movwf	___flmul@temp^(0+128)
  2183     020E                     l1952:
  2184     020E  084A               	movf	___flmul@temp^(0+128),w
  2185     020F  00BA               	movwf	??___flmul^(0+128)
  2186     0210  084B               	movf	(___flmul@temp+1)^(0+128),w
  2187     0211  00BB               	movwf	(??___flmul^(0+128)+1)
  2188     0212  01BC               	clrf	(??___flmul^(0+128)+2)
  2189     0213  01BD               	clrf	(??___flmul^(0+128)+3)
  2190     0214  083A               	movf	??___flmul^(0+128),w
  2191     0215  07C6               	addwf	___flmul@prod^(0+128),f
  2192     0216  083B               	movf	(??___flmul+1)^(0+128),w
  2193     0217  1103               	clrz
  2194     0218  1803               	skipnc
  2195     0219  3E01               	addlw	1
  2196     021A  1903               	skipnz
  2197     021B  2A1D               	goto	u2661
  2198     021C  07C7               	addwf	(___flmul@prod+1)^(0+128),f
  2199     021D                     u2661:
  2200     021D  083C               	movf	(??___flmul+2)^(0+128),w
  2201     021E  1103               	clrz
  2202     021F  1803               	skipnc
  2203     0220  3E01               	addlw	1
  2204     0221  1903               	skipnz
  2205     0222  2A24               	goto	u2662
  2206     0223  07C8               	addwf	(___flmul@prod+2)^(0+128),f
  2207     0224                     u2662:
  2208     0224  083D               	movf	(??___flmul+3)^(0+128),w
  2209     0225  1103               	clrz
  2210     0226  1803               	skipnc
  2211     0227  3E01               	addlw	1
  2212     0228  1903               	skipnz
  2213     0229  2A2B               	goto	u2663
  2214     022A  07C9               	addwf	(___flmul@prod+3)^(0+128),f
  2215     022B                     u2663:
  2216     022B  0834               	movf	(___flmul@b^(0+128)+2),w
  2217     022C  00A4               	movwf	__Umul8_16@multiplicand^(0+128)
  2218     022D  0838               	movf	(___flmul@a^(0+128)+2),w
  2219     022E  160A  118A  2644  120A  118A  	fcall	__Umul8_16
  2220     0233  1683               	bsf	3,5	;RP0=1, select bank1
  2221     0234  1303               	bcf	3,6	;RP1=0, select bank1
  2222     0235  0825               	movf	(?__Umul8_16+1)^(0+128),w
  2223     0236  00CB               	movwf	(___flmul@temp+1)^(0+128)
  2224     0237  0824               	movf	?__Umul8_16^(0+128),w
  2225     0238  00CA               	movwf	___flmul@temp^(0+128)
  2226     0239                     l1954:
  2227     0239  084A               	movf	___flmul@temp^(0+128),w
  2228     023A  00BA               	movwf	??___flmul^(0+128)
  2229     023B  084B               	movf	(___flmul@temp+1)^(0+128),w
  2230     023C  00BB               	movwf	(??___flmul^(0+128)+1)
  2231     023D  01BC               	clrf	(??___flmul^(0+128)+2)
  2232     023E  01BD               	clrf	(??___flmul^(0+128)+3)
  2233     023F  3008               	movlw	8
  2234     0240                     u2675:
  2235     0240  1003               	clrc
  2236     0241  0DBA               	rlf	??___flmul^(0+128),f
  2237     0242  0DBB               	rlf	(??___flmul^(0+128)+1),f
  2238     0243  0DBC               	rlf	(??___flmul^(0+128)+2),f
  2239     0244  0DBD               	rlf	(??___flmul^(0+128)+3),f
  2240     0245                     u2670:
  2241     0245  3EFF               	addlw	-1
  2242     0246  1D03               	skipz
  2243     0247  2A40               	goto	u2675
  2244     0248  083A               	movf	??___flmul^(0+128),w
  2245     0249  07C6               	addwf	___flmul@prod^(0+128),f
  2246     024A  083B               	movf	(??___flmul+1)^(0+128),w
  2247     024B  1103               	clrz
  2248     024C  1803               	skipnc
  2249     024D  3E01               	addlw	1
  2250     024E  1903               	skipnz
  2251     024F  2A51               	goto	u2681
  2252     0250  07C7               	addwf	(___flmul@prod+1)^(0+128),f
  2253     0251                     u2681:
  2254     0251  083C               	movf	(??___flmul+2)^(0+128),w
  2255     0252  1103               	clrz
  2256     0253  1803               	skipnc
  2257     0254  3E01               	addlw	1
  2258     0255  1903               	skipnz
  2259     0256  2A58               	goto	u2682
  2260     0257  07C8               	addwf	(___flmul@prod+2)^(0+128),f
  2261     0258                     u2682:
  2262     0258  083D               	movf	(??___flmul+3)^(0+128),w
  2263     0259  1103               	clrz
  2264     025A  1803               	skipnc
  2265     025B  3E01               	addlw	1
  2266     025C  1903               	skipnz
  2267     025D  2A5F               	goto	u2683
  2268     025E  07C9               	addwf	(___flmul@prod+3)^(0+128),f
  2269     025F                     u2683:
  2270     025F                     l1956:
  2271     025F  0840               	movf	___flmul@grs^(0+128),w
  2272     0260  00BA               	movwf	??___flmul^(0+128)
  2273     0261  0841               	movf	(___flmul@grs+1)^(0+128),w
  2274     0262  00BB               	movwf	(??___flmul^(0+128)+1)
  2275     0263  0842               	movf	(___flmul@grs+2)^(0+128),w
  2276     0264  00BC               	movwf	(??___flmul^(0+128)+2)
  2277     0265  0843               	movf	(___flmul@grs+3)^(0+128),w
  2278     0266  00BD               	movwf	(??___flmul^(0+128)+3)
  2279     0267  3018               	movlw	24
  2280     0268                     u2695:
  2281     0268  1003               	clrc
  2282     0269  0CBD               	rrf	(??___flmul^(0+128)+3),f
  2283     026A  0CBC               	rrf	(??___flmul^(0+128)+2),f
  2284     026B  0CBB               	rrf	(??___flmul^(0+128)+1),f
  2285     026C  0CBA               	rrf	??___flmul^(0+128),f
  2286     026D                     u2690:
  2287     026D  3EFF               	addlw	-1
  2288     026E  1D03               	skipz
  2289     026F  2A68               	goto	u2695
  2290     0270  083A               	movf	??___flmul^(0+128),w
  2291     0271  07C6               	addwf	___flmul@prod^(0+128),f
  2292     0272  083B               	movf	(??___flmul+1)^(0+128),w
  2293     0273  1103               	clrz
  2294     0274  1803               	skipnc
  2295     0275  3E01               	addlw	1
  2296     0276  1903               	skipnz
  2297     0277  2A79               	goto	u2701
  2298     0278  07C7               	addwf	(___flmul@prod+1)^(0+128),f
  2299     0279                     u2701:
  2300     0279  083C               	movf	(??___flmul+2)^(0+128),w
  2301     027A  1103               	clrz
  2302     027B  1803               	skipnc
  2303     027C  3E01               	addlw	1
  2304     027D  1903               	skipnz
  2305     027E  2A80               	goto	u2702
  2306     027F  07C8               	addwf	(___flmul@prod+2)^(0+128),f
  2307     0280                     u2702:
  2308     0280  083D               	movf	(??___flmul+3)^(0+128),w
  2309     0281  1103               	clrz
  2310     0282  1803               	skipnc
  2311     0283  3E01               	addlw	1
  2312     0284  1903               	skipnz
  2313     0285  2A87               	goto	u2703
  2314     0286  07C9               	addwf	(___flmul@prod+3)^(0+128),f
  2315     0287                     u2703:
  2316     0287                     l1958:
  2317     0287  3008               	movlw	8
  2318     0288  00BA               	movwf	??___flmul^(0+128)
  2319     0289                     u2715:
  2320     0289  1003               	clrc
  2321     028A  0DC0               	rlf	___flmul@grs^(0+128),f
  2322     028B  0DC1               	rlf	(___flmul@grs+1)^(0+128),f
  2323     028C  0DC2               	rlf	(___flmul@grs+2)^(0+128),f
  2324     028D  0DC3               	rlf	(___flmul@grs+3)^(0+128),f
  2325     028E  0BBA               	decfsz	??___flmul^(0+128),f
  2326     028F  2A89               	goto	u2715
  2327     0290                     l1960:
  2328     0290  0845               	movf	___flmul@bexp^(0+128),w
  2329     0291  0744               	addwf	___flmul@aexp^(0+128),w
  2330     0292  00BA               	movwf	??___flmul^(0+128)
  2331     0293  01BB               	clrf	(??___flmul^(0+128)+1)
  2332     0294  0DBB               	rlf	(??___flmul+1)^(0+128),f
  2333     0295  083A               	movf	??___flmul^(0+128),w
  2334     0296  3E82               	addlw	130
  2335     0297  00CA               	movwf	___flmul@temp^(0+128)
  2336     0298  083B               	movf	(??___flmul+1)^(0+128),w
  2337     0299  1803               	skipnc
  2338     029A  3E01               	addlw	1
  2339     029B  3EFF               	addlw	255
  2340     029C  00CB               	movwf	(___flmul@temp+1)^(0+128)
  2341     029D  2ABB               	goto	l1972
  2342     029E                     l1962:
  2343     029E  3001               	movlw	1
  2344     029F  00BA               	movwf	??___flmul^(0+128)
  2345     02A0                     u2725:
  2346     02A0  1003               	clrc
  2347     02A1  0DC6               	rlf	___flmul@prod^(0+128),f
  2348     02A2  0DC7               	rlf	(___flmul@prod+1)^(0+128),f
  2349     02A3  0DC8               	rlf	(___flmul@prod+2)^(0+128),f
  2350     02A4  0DC9               	rlf	(___flmul@prod+3)^(0+128),f
  2351     02A5  0BBA               	decfsz	??___flmul^(0+128),f
  2352     02A6  2AA0               	goto	u2725
  2353     02A7                     l1964:
  2354     02A7  1FC3               	btfss	(___flmul@grs+3)^(0+128),7
  2355     02A8  2AAA               	goto	u2731
  2356     02A9  2AAB               	goto	u2730
  2357     02AA                     u2731:
  2358     02AA  2AAC               	goto	l1968
  2359     02AB                     u2730:
  2360     02AB                     l1966:
  2361     02AB  1446               	bsf	___flmul@prod^(0+128),0
  2362     02AC                     l1968:
  2363     02AC  3001               	movlw	1
  2364     02AD  00BA               	movwf	??___flmul^(0+128)
  2365     02AE                     u2745:
  2366     02AE  1003               	clrc
  2367     02AF  0DC0               	rlf	___flmul@grs^(0+128),f
  2368     02B0  0DC1               	rlf	(___flmul@grs+1)^(0+128),f
  2369     02B1  0DC2               	rlf	(___flmul@grs+2)^(0+128),f
  2370     02B2  0DC3               	rlf	(___flmul@grs+3)^(0+128),f
  2371     02B3  0BBA               	decfsz	??___flmul^(0+128),f
  2372     02B4  2AAE               	goto	u2745
  2373     02B5                     l1970:
  2374     02B5  30FF               	movlw	255
  2375     02B6  07CA               	addwf	___flmul@temp^(0+128),f
  2376     02B7  1803               	skipnc
  2377     02B8  0ACB               	incf	(___flmul@temp+1)^(0+128),f
  2378     02B9  30FF               	movlw	255
  2379     02BA  07CB               	addwf	(___flmul@temp+1)^(0+128),f
  2380     02BB                     l1972:
  2381     02BB  1FC8               	btfss	(___flmul@prod+2)^(0+128),7
  2382     02BC  2ABE               	goto	u2751
  2383     02BD  2ABF               	goto	u2750
  2384     02BE                     u2751:
  2385     02BE  2A9E               	goto	l1962
  2386     02BF                     u2750:
  2387     02BF                     l1974:
  2388     02BF  01C4               	clrf	___flmul@aexp^(0+128)
  2389     02C0                     l1976:
  2390     02C0  1FC3               	btfss	(___flmul@grs+3)^(0+128),7
  2391     02C1  2AC3               	goto	u2761
  2392     02C2  2AC4               	goto	u2760
  2393     02C3                     u2761:
  2394     02C3  2AE0               	goto	l1984
  2395     02C4                     u2760:
  2396     02C4                     l1978:
  2397     02C4  30FF               	movlw	255
  2398     02C5  0540               	andwf	___flmul@grs^(0+128),w
  2399     02C6  00BA               	movwf	??___flmul^(0+128)
  2400     02C7  30FF               	movlw	255
  2401     02C8  0541               	andwf	(___flmul@grs+1)^(0+128),w
  2402     02C9  00BB               	movwf	(??___flmul^(0+128)+1)
  2403     02CA  30FF               	movlw	255
  2404     02CB  0542               	andwf	(___flmul@grs+2)^(0+128),w
  2405     02CC  00BC               	movwf	(??___flmul^(0+128)+2)
  2406     02CD  307F               	movlw	127
  2407     02CE  0543               	andwf	(___flmul@grs+3)^(0+128),w
  2408     02CF  00BD               	movwf	(??___flmul^(0+128)+3)
  2409     02D0  083D               	movf	(??___flmul+3)^(0+128),w
  2410     02D1  043C               	iorwf	(??___flmul+2)^(0+128),w
  2411     02D2  043B               	iorwf	(??___flmul+1)^(0+128),w
  2412     02D3  043A               	iorwf	??___flmul^(0+128),w
  2413     02D4  1903               	skipnz
  2414     02D5  2AD7               	goto	u2771
  2415     02D6  2AD8               	goto	u2770
  2416     02D7                     u2771:
  2417     02D7  2ADB               	goto	l621
  2418     02D8                     u2770:
  2419     02D8                     l1980:
  2420     02D8  01C4               	clrf	___flmul@aexp^(0+128)
  2421     02D9  0AC4               	incf	___flmul@aexp^(0+128),f
  2422     02DA  2AE0               	goto	l1984
  2423     02DB                     l621:
  2424     02DB  1C46               	btfss	___flmul@prod^(0+128),0
  2425     02DC  2ADE               	goto	u2781
  2426     02DD  2ADF               	goto	u2780
  2427     02DE                     u2781:
  2428     02DE  2AE0               	goto	l1984
  2429     02DF                     u2780:
  2430     02DF  2AD8               	goto	l1980
  2431     02E0                     l1984:
  2432     02E0  0844               	movf	___flmul@aexp^(0+128),w
  2433     02E1  1903               	btfsc	3,2
  2434     02E2  2AE4               	goto	u2791
  2435     02E3  2AE5               	goto	u2790
  2436     02E4                     u2791:
  2437     02E4  2B16               	goto	l1994
  2438     02E5                     u2790:
  2439     02E5                     l1986:
  2440     02E5  3001               	movlw	1
  2441     02E6  07C6               	addwf	___flmul@prod^(0+128),f
  2442     02E7  3000               	movlw	0
  2443     02E8  1803               	skipnc
  2444     02E9  3001               	movlw	1
  2445     02EA  07C7               	addwf	(___flmul@prod+1)^(0+128),f
  2446     02EB  3000               	movlw	0
  2447     02EC  1803               	skipnc
  2448     02ED  3001               	movlw	1
  2449     02EE  07C8               	addwf	(___flmul@prod+2)^(0+128),f
  2450     02EF  3000               	movlw	0
  2451     02F0  1803               	skipnc
  2452     02F1  3001               	movlw	1
  2453     02F2  07C9               	addwf	(___flmul@prod+3)^(0+128),f
  2454     02F3                     l1988:
  2455     02F3  1C49               	btfss	(___flmul@prod+3)^(0+128),0
  2456     02F4  2AF6               	goto	u2801
  2457     02F5  2AF7               	goto	u2800
  2458     02F6                     u2801:
  2459     02F6  2B16               	goto	l1994
  2460     02F7                     u2800:
  2461     02F7                     l1990:
  2462     02F7  0846               	movf	___flmul@prod^(0+128),w
  2463     02F8  00BA               	movwf	??___flmul^(0+128)
  2464     02F9  0847               	movf	(___flmul@prod+1)^(0+128),w
  2465     02FA  00BB               	movwf	(??___flmul^(0+128)+1)
  2466     02FB  0848               	movf	(___flmul@prod+2)^(0+128),w
  2467     02FC  00BC               	movwf	(??___flmul^(0+128)+2)
  2468     02FD  0849               	movf	(___flmul@prod+3)^(0+128),w
  2469     02FE  00BD               	movwf	(??___flmul^(0+128)+3)
  2470     02FF  3001               	movlw	1
  2471     0300  00BE               	movwf	(??___flmul+4)^(0+128)
  2472     0301                     u2815:
  2473     0301  0D3D               	rlf	(??___flmul^(0+128)+3),w
  2474     0302  0CBD               	rrf	(??___flmul^(0+128)+3),f
  2475     0303  0CBC               	rrf	(??___flmul^(0+128)+2),f
  2476     0304  0CBB               	rrf	(??___flmul^(0+128)+1),f
  2477     0305  0CBA               	rrf	??___flmul^(0+128),f
  2478     0306                     u2810:
  2479     0306  0BBE               	decfsz	(??___flmul+4)^(0+128),f
  2480     0307  2B01               	goto	u2815
  2481     0308  083D               	movf	(??___flmul+3)^(0+128),w
  2482     0309  00C9               	movwf	(___flmul@prod+3)^(0+128)
  2483     030A  083C               	movf	(??___flmul+2)^(0+128),w
  2484     030B  00C8               	movwf	(___flmul@prod+2)^(0+128)
  2485     030C  083B               	movf	(??___flmul+1)^(0+128),w
  2486     030D  00C7               	movwf	(___flmul@prod+1)^(0+128)
  2487     030E  083A               	movf	??___flmul^(0+128),w
  2488     030F  00C6               	movwf	___flmul@prod^(0+128)
  2489     0310                     l1992:
  2490     0310  3001               	movlw	1
  2491     0311  07CA               	addwf	___flmul@temp^(0+128),f
  2492     0312  1803               	skipnc
  2493     0313  0ACB               	incf	(___flmul@temp+1)^(0+128),f
  2494     0314  3000               	movlw	0
  2495     0315  07CB               	addwf	(___flmul@temp+1)^(0+128),f
  2496     0316                     l1994:
  2497     0316  084B               	movf	(___flmul@temp+1)^(0+128),w
  2498     0317  3A80               	xorlw	128
  2499     0318  00FF               	movwf	btemp+1
  2500     0319  3080               	movlw	128
  2501     031A  027F               	subwf	btemp+1,w
  2502     031B  1D03               	skipz
  2503     031C  2B1F               	goto	u2825
  2504     031D  30FF               	movlw	255
  2505     031E  024A               	subwf	___flmul@temp^(0+128),w
  2506     031F                     u2825:
  2507     031F  1C03               	skipc
  2508     0320  2B22               	goto	u2821
  2509     0321  2B23               	goto	u2820
  2510     0322                     u2821:
  2511     0322  2B2E               	goto	l1998
  2512     0323                     u2820:
  2513     0323                     l1996:
  2514     0323  307F               	movlw	127
  2515     0324  1683               	bsf	3,5	;RP0=1, select bank1
  2516     0325  1303               	bcf	3,6	;RP1=0, select bank1
  2517     0326  00C9               	movwf	(___flmul@prod+3)^(0+128)
  2518     0327  3080               	movlw	128
  2519     0328  00C8               	movwf	(___flmul@prod+2)^(0+128)
  2520     0329  3000               	movlw	0
  2521     032A  00C7               	movwf	(___flmul@prod+1)^(0+128)
  2522     032B  3000               	movlw	0
  2523     032C  00C6               	movwf	___flmul@prod^(0+128)
  2524     032D  2B5F               	goto	l627
  2525     032E                     l1998:
  2526     032E  1683               	bsf	3,5	;RP0=1, select bank1
  2527     032F  1303               	bcf	3,6	;RP1=0, select bank1
  2528     0330  084B               	movf	(___flmul@temp+1)^(0+128),w
  2529     0331  3A80               	xorlw	128
  2530     0332  00FF               	movwf	btemp+1
  2531     0333  3080               	movlw	128
  2532     0334  027F               	subwf	btemp+1,w
  2533     0335  1D03               	skipz
  2534     0336  2B39               	goto	u2835
  2535     0337  3001               	movlw	1
  2536     0338  024A               	subwf	___flmul@temp^(0+128),w
  2537     0339                     u2835:
  2538     0339  1803               	skipnc
  2539     033A  2B3C               	goto	u2831
  2540     033B  2B3D               	goto	u2830
  2541     033C                     u2831:
  2542     033C  2B49               	goto	l2004
  2543     033D                     u2830:
  2544     033D                     l2000:
  2545     033D  3000               	movlw	0
  2546     033E  1683               	bsf	3,5	;RP0=1, select bank1
  2547     033F  1303               	bcf	3,6	;RP1=0, select bank1
  2548     0340  00C9               	movwf	(___flmul@prod+3)^(0+128)
  2549     0341  3000               	movlw	0
  2550     0342  00C8               	movwf	(___flmul@prod+2)^(0+128)
  2551     0343  3000               	movlw	0
  2552     0344  00C7               	movwf	(___flmul@prod+1)^(0+128)
  2553     0345  3000               	movlw	0
  2554     0346  00C6               	movwf	___flmul@prod^(0+128)
  2555     0347                     l2002:
  2556     0347  01BF               	clrf	___flmul@sign^(0+128)
  2557     0348  2B5F               	goto	l627
  2558     0349                     l2004:
  2559     0349  1683               	bsf	3,5	;RP0=1, select bank1
  2560     034A  1303               	bcf	3,6	;RP1=0, select bank1
  2561     034B  084A               	movf	___flmul@temp^(0+128),w
  2562     034C  00C5               	movwf	___flmul@bexp^(0+128)
  2563     034D  30FF               	movlw	255
  2564     034E  05C6               	andwf	___flmul@prod^(0+128),f
  2565     034F  30FF               	movlw	255
  2566     0350  05C7               	andwf	(___flmul@prod+1)^(0+128),f
  2567     0351  307F               	movlw	127
  2568     0352  05C8               	andwf	(___flmul@prod+2)^(0+128),f
  2569     0353  3000               	movlw	0
  2570     0354  05C9               	andwf	(___flmul@prod+3)^(0+128),f
  2571     0355                     l2006:
  2572     0355  1C45               	btfss	___flmul@bexp^(0+128),0
  2573     0356  2B58               	goto	u2841
  2574     0357  2B59               	goto	u2840
  2575     0358                     u2841:
  2576     0358  2B5A               	goto	l2010
  2577     0359                     u2840:
  2578     0359                     l2008:
  2579     0359  17C8               	bsf	(___flmul@prod^(0+128)+2),7
  2580     035A                     l2010:
  2581     035A  0845               	movf	___flmul@bexp^(0+128),w
  2582     035B  00BA               	movwf	??___flmul^(0+128)
  2583     035C  1003               	clrc
  2584     035D  0C3A               	rrf	??___flmul^(0+128),w
  2585     035E  00C9               	movwf	(___flmul@prod^(0+128)+3)
  2586     035F                     l627:
  2587     035F  083F               	movf	___flmul@sign^(0+128),w
  2588     0360  00BA               	movwf	??___flmul^(0+128)
  2589     0361  083A               	movf	??___flmul^(0+128),w
  2590     0362  04C9               	iorwf	(___flmul@prod^(0+128)+3),f
  2591     0363                     l2012:
  2592     0363  0849               	movf	(___flmul@prod+3)^(0+128),w
  2593     0364  00B5               	movwf	(?___flmul+3)^(0+128)
  2594     0365  0848               	movf	(___flmul@prod+2)^(0+128),w
  2595     0366  00B4               	movwf	(?___flmul+2)^(0+128)
  2596     0367  0847               	movf	(___flmul@prod+1)^(0+128),w
  2597     0368  00B3               	movwf	(?___flmul+1)^(0+128)
  2598     0369  0846               	movf	___flmul@prod^(0+128),w
  2599     036A  00B2               	movwf	?___flmul^(0+128)
  2600     036B                     l615:
  2601     036B  0008               	return
  2602     036C                     __end_of___flmul:
  2603                           
  2604                           	psect	text4
  2605     1644                     __ptext4:	
  2606 ;; *************** function __Umul8_16 *****************
  2607 ;; Defined at:
  2608 ;;		line 4 in file "C:\Program Files\Microchip\xc8\v2.40\pic\sources\c90\common\Umul8_16.c"
  2609 ;; Parameters:    Size  Location     Type
  2610 ;;  multiplier      1    wreg     unsigned char 
  2611 ;;  multiplicand    1    4[BANK1 ] unsigned char 
  2612 ;; Auto vars:     Size  Location     Type
  2613 ;;  multiplier      1   12[BANK1 ] unsigned char 
  2614 ;;  word_mpld       2   10[BANK1 ] unsigned int 
  2615 ;;  product         2    8[BANK1 ] unsigned int 
  2616 ;; Return value:  Size  Location     Type
  2617 ;;                  2    4[BANK1 ] unsigned int 
  2618 ;; Registers used:
  2619 ;;		wreg, status,2, status,0
  2620 ;; Tracked objects:
  2621 ;;		On entry : 0/0
  2622 ;;		On exit  : 0/0
  2623 ;;		Unchanged: 0/0
  2624 ;; Data sizes:     COMMON   BANK0   BANK1   BANK3   BANK2
  2625 ;;      Params:         0       0       2       0       0
  2626 ;;      Locals:         0       0       5       0       0
  2627 ;;      Temps:          0       0       2       0       0
  2628 ;;      Totals:         0       0       9       0       0
  2629 ;;Total ram usage:        9 bytes
  2630 ;; Hardware stack levels used: 1
  2631 ;; Hardware stack levels required when called: 4
  2632 ;; This function calls:
  2633 ;;		Nothing
  2634 ;; This function is called by:
  2635 ;;		___flmul
  2636 ;; This function uses a non-reentrant model
  2637 ;;
  2638                           
  2639     1644                     __Umul8_16:	
  2640                           ;psect for function __Umul8_16
  2641                           
  2642                           
  2643                           ;incstack = 0
  2644                           ; Regs used in __Umul8_16: [wreg+status,2+status,0]
  2645                           ;__Umul8_16@multiplier stored from wreg
  2646     1644  1683               	bsf	3,5	;RP0=1, select bank1
  2647     1645  1303               	bcf	3,6	;RP1=0, select bank1
  2648     1646  00AC               	movwf	__Umul8_16@multiplier^(0+128)
  2649     1647                     l1684:
  2650     1647  01A8               	clrf	__Umul8_16@product^(0+128)
  2651     1648  01A9               	clrf	(__Umul8_16@product+1)^(0+128)
  2652     1649                     l1686:
  2653     1649  0824               	movf	__Umul8_16@multiplicand^(0+128),w
  2654     164A  00A6               	movwf	??__Umul8_16^(0+128)
  2655     164B  01A7               	clrf	(??__Umul8_16^(0+128)+1)
  2656     164C  0826               	movf	??__Umul8_16^(0+128),w
  2657     164D  00AA               	movwf	__Umul8_16@word_mpld^(0+128)
  2658     164E  0827               	movf	(??__Umul8_16+1)^(0+128),w
  2659     164F  00AB               	movwf	(__Umul8_16@word_mpld+1)^(0+128)
  2660     1650                     l1688:
  2661     1650  1C2C               	btfss	__Umul8_16@multiplier^(0+128),0
  2662     1651  2E53               	goto	u2061
  2663     1652  2E54               	goto	u2060
  2664     1653                     u2061:
  2665     1653  2E5A               	goto	l634
  2666     1654                     u2060:
  2667     1654                     l1690:
  2668     1654  082A               	movf	__Umul8_16@word_mpld^(0+128),w
  2669     1655  07A8               	addwf	__Umul8_16@product^(0+128),f
  2670     1656  1803               	skipnc
  2671     1657  0AA9               	incf	(__Umul8_16@product+1)^(0+128),f
  2672     1658  082B               	movf	(__Umul8_16@word_mpld+1)^(0+128),w
  2673     1659  07A9               	addwf	(__Umul8_16@product+1)^(0+128),f
  2674     165A                     l634:
  2675     165A  3001               	movlw	1
  2676     165B                     u2075:
  2677     165B  1003               	clrc
  2678     165C  0DAA               	rlf	__Umul8_16@word_mpld^(0+128),f
  2679     165D  0DAB               	rlf	(__Umul8_16@word_mpld+1)^(0+128),f
  2680     165E  3EFF               	addlw	-1
  2681     165F  1D03               	skipz
  2682     1660  2E5B               	goto	u2075
  2683     1661  1003               	clrc
  2684     1662  0CAC               	rrf	__Umul8_16@multiplier^(0+128),f
  2685     1663                     l1692:
  2686     1663  082C               	movf	__Umul8_16@multiplier^(0+128),w
  2687     1664  1D03               	btfss	3,2
  2688     1665  2E67               	goto	u2081
  2689     1666  2E68               	goto	u2080
  2690     1667                     u2081:
  2691     1667  2E50               	goto	l1688
  2692     1668                     u2080:
  2693     1668                     l1694:
  2694     1668  0829               	movf	(__Umul8_16@product+1)^(0+128),w
  2695     1669  00A5               	movwf	(?__Umul8_16+1)^(0+128)
  2696     166A  0828               	movf	__Umul8_16@product^(0+128),w
  2697     166B  00A4               	movwf	?__Umul8_16^(0+128)
  2698     166C                     l636:
  2699     166C  0008               	return
  2700     166D                     __end_of__Umul8_16:
  2701                           
  2702                           	psect	text5
  2703     16E5                     __ptext5:	
  2704 ;; *************** function _PWM_config *****************
  2705 ;; Defined at:
  2706 ;;		line 5 in file "PWM_SERVO.c"
  2707 ;; Parameters:    Size  Location     Type
  2708 ;;  canal           1    wreg     unsigned char 
  2709 ;;  periodo_ms      4    8[BANK3 ] float 
  2710 ;; Auto vars:     Size  Location     Type
  2711 ;;  canal           1   12[BANK3 ] unsigned char 
  2712 ;; Return value:  Size  Location     Type
  2713 ;;                  1    wreg      void 
  2714 ;; Registers used:
  2715 ;;		wreg, status,2, status,0, btemp+1, pclath, cstack
  2716 ;; Tracked objects:
  2717 ;;		On entry : 0/0
  2718 ;;		On exit  : 0/0
  2719 ;;		Unchanged: 0/0
  2720 ;; Data sizes:     COMMON   BANK0   BANK1   BANK3   BANK2
  2721 ;;      Params:         0       0       0       4       0
  2722 ;;      Locals:         0       0       0       1       0
  2723 ;;      Temps:          0       0       0       0       0
  2724 ;;      Totals:         0       0       0       5       0
  2725 ;;Total ram usage:        5 bytes
  2726 ;; Hardware stack levels used: 1
  2727 ;; Hardware stack levels required when called: 5
  2728 ;; This function calls:
  2729 ;;		___fldiv
  2730 ;;		___fltol
  2731 ;; This function is called by:
  2732 ;;		_setup
  2733 ;; This function uses a non-reentrant model
  2734 ;;
  2735                           
  2736     16E5                     _PWM_config:	
  2737                           ;psect for function _PWM_config
  2738                           
  2739                           
  2740                           ;incstack = 0
  2741                           ; Regs used in _PWM_config: [wreg+status,2+status,0+btemp+1+pclath+cstack]
  2742                           ;PWM_config@canal stored from wreg
  2743     16E5  1683               	bsf	3,5	;RP0=1, select bank3
  2744     16E6  1703               	bsf	3,6	;RP1=1, select bank3
  2745     16E7  009C               	movwf	PWM_config@canal^(0+384)
  2746     16E8                     l2664:
  2747                           
  2748                           ;PWM_SERVO.c: 6:     PR2 = (char) (periodo_ms/(4*(1.0f/4000000)*16));
  2749     16E8  081B               	movf	(PWM_config@periodo_ms+3)^(0+384),w
  2750     16E9  1683               	bsf	3,5	;RP0=1, select bank1
  2751     16EA  1303               	bcf	3,6	;RP1=0, select bank1
  2752     16EB  00D3               	movwf	(___fldiv@b+3)^(0+128)
  2753     16EC  1683               	bsf	3,5	;RP0=1, select bank3
  2754     16ED  1703               	bsf	3,6	;RP1=1, select bank3
  2755     16EE  081A               	movf	(PWM_config@periodo_ms+2)^(0+384),w
  2756     16EF  1683               	bsf	3,5	;RP0=1, select bank1
  2757     16F0  1303               	bcf	3,6	;RP1=0, select bank1
  2758     16F1  00D2               	movwf	(___fldiv@b+2)^(0+128)
  2759     16F2  1683               	bsf	3,5	;RP0=1, select bank3
  2760     16F3  1703               	bsf	3,6	;RP1=1, select bank3
  2761     16F4  0819               	movf	(PWM_config@periodo_ms+1)^(0+384),w
  2762     16F5  1683               	bsf	3,5	;RP0=1, select bank1
  2763     16F6  1303               	bcf	3,6	;RP1=0, select bank1
  2764     16F7  00D1               	movwf	(___fldiv@b+1)^(0+128)
  2765     16F8  1683               	bsf	3,5	;RP0=1, select bank3
  2766     16F9  1703               	bsf	3,6	;RP1=1, select bank3
  2767     16FA  0818               	movf	PWM_config@periodo_ms^(0+384),w
  2768     16FB  1683               	bsf	3,5	;RP0=1, select bank1
  2769     16FC  1303               	bcf	3,6	;RP1=0, select bank1
  2770     16FD  00D0               	movwf	___fldiv@b^(0+128)
  2771     16FE  3037               	movlw	55
  2772     16FF  00CF               	movwf	(___fldiv@a+3)^(0+128)
  2773     1700  3086               	movlw	134
  2774     1701  00CE               	movwf	(___fldiv@a+2)^(0+128)
  2775     1702  3037               	movlw	55
  2776     1703  00CD               	movwf	(___fldiv@a+1)^(0+128)
  2777     1704  30BD               	movlw	189
  2778     1705  00CC               	movwf	___fldiv@a^(0+128)
  2779     1706  120A  158A  262D  160A  118A  	fcall	___fldiv
  2780     170B  1683               	bsf	3,5	;RP0=1, select bank1
  2781     170C  1303               	bcf	3,6	;RP1=0, select bank1
  2782     170D  084F               	movf	(?___fldiv+3)^(0+128),w
  2783     170E  1683               	bsf	3,5	;RP0=1, select bank3
  2784     170F  1703               	bsf	3,6	;RP1=1, select bank3
  2785     1710  0093               	movwf	(___fltol@f1+3)^(0+384)
  2786     1711  1683               	bsf	3,5	;RP0=1, select bank1
  2787     1712  1303               	bcf	3,6	;RP1=0, select bank1
  2788     1713  084E               	movf	(?___fldiv+2)^(0+128),w
  2789     1714  1683               	bsf	3,5	;RP0=1, select bank3
  2790     1715  1703               	bsf	3,6	;RP1=1, select bank3
  2791     1716  0092               	movwf	(___fltol@f1+2)^(0+384)
  2792     1717  1683               	bsf	3,5	;RP0=1, select bank1
  2793     1718  1303               	bcf	3,6	;RP1=0, select bank1
  2794     1719  084D               	movf	(?___fldiv+1)^(0+128),w
  2795     171A  1683               	bsf	3,5	;RP0=1, select bank3
  2796     171B  1703               	bsf	3,6	;RP1=1, select bank3
  2797     171C  0091               	movwf	(___fltol@f1+1)^(0+384)
  2798     171D  1683               	bsf	3,5	;RP0=1, select bank1
  2799     171E  1303               	bcf	3,6	;RP1=0, select bank1
  2800     171F  084C               	movf	?___fldiv^(0+128),w
  2801     1720  1683               	bsf	3,5	;RP0=1, select bank3
  2802     1721  1703               	bsf	3,6	;RP1=1, select bank3
  2803     1722  0090               	movwf	___fltol@f1^(0+384)
  2804     1723  160A  118A  2772  160A  118A  	fcall	___fltol
  2805     1728  1683               	bsf	3,5	;RP0=1, select bank3
  2806     1729  1703               	bsf	3,6	;RP1=1, select bank3
  2807     172A  0810               	movf	?___fltol^(0+384),w
  2808     172B  1683               	bsf	3,5	;RP0=1, select bank1
  2809     172C  1303               	bcf	3,6	;RP1=0, select bank1
  2810     172D  0092               	movwf	18	;volatile
  2811     172E                     l2666:
  2812                           
  2813                           ;PWM_SERVO.c: 7:     if (canal == 1){
  2814     172E  1683               	bsf	3,5	;RP0=1, select bank3
  2815     172F  1703               	bsf	3,6	;RP1=1, select bank3
  2816     1730  031C               	decf	PWM_config@canal^(0+384),w
  2817     1731  1D03               	btfss	3,2
  2818     1732  2F34               	goto	u4201
  2819     1733  2F35               	goto	u4200
  2820     1734                     u4201:
  2821     1734  2F45               	goto	l2678
  2822     1735                     u4200:
  2823     1735                     l2668:
  2824                           
  2825                           ;PWM_SERVO.c: 8:         TRISCbits.TRISC2 = 1;
  2826     1735  1683               	bsf	3,5	;RP0=1, select bank1
  2827     1736  1303               	bcf	3,6	;RP1=0, select bank1
  2828     1737  1507               	bsf	7,2	;volatile
  2829     1738                     l2670:
  2830                           
  2831                           ;PWM_SERVO.c: 9:         CCP1CONbits.P1M = 0;
  2832     1738  303F               	movlw	-193
  2833     1739  1283               	bcf	3,5	;RP0=0, select bank0
  2834     173A  1303               	bcf	3,6	;RP1=0, select bank0
  2835     173B  0597               	andwf	23,f	;volatile
  2836                           
  2837                           ;PWM_SERVO.c: 10:         CCP1CONbits.CCP1M = 0b1100;
  2838     173C  0817               	movf	23,w	;volatile
  2839     173D  39F0               	andlw	-16
  2840     173E  380C               	iorlw	12
  2841     173F  0097               	movwf	23	;volatile
  2842     1740                     l2672:
  2843                           
  2844                           ;PWM_SERVO.c: 11:         CCPR1L = 0x0f;
  2845     1740  300F               	movlw	15
  2846     1741  0095               	movwf	21	;volatile
  2847     1742                     l2674:
  2848                           
  2849                           ;PWM_SERVO.c: 12:         CCP1CONbits.DC1B0 = 0;
  2850     1742  1217               	bcf	23,4	;volatile
  2851     1743                     l2676:
  2852                           
  2853                           ;PWM_SERVO.c: 13:         CCP1CONbits.DC1B1 = 0;
  2854     1743  1297               	bcf	23,5	;volatile
  2855                           
  2856                           ;PWM_SERVO.c: 14:     }
  2857     1744  2F58               	goto	l2690
  2858     1745                     l2678:
  2859     1745  3002               	movlw	2
  2860     1746  061C               	xorwf	PWM_config@canal^(0+384),w
  2861     1747  1D03               	btfss	3,2
  2862     1748  2F4A               	goto	u4211
  2863     1749  2F4B               	goto	u4210
  2864     174A                     u4211:
  2865     174A  2F58               	goto	l2690
  2866     174B                     u4210:
  2867     174B                     l2680:
  2868                           
  2869                           ;PWM_SERVO.c: 16:         TRISCbits.TRISC1 = 1;
  2870     174B  1683               	bsf	3,5	;RP0=1, select bank1
  2871     174C  1303               	bcf	3,6	;RP1=0, select bank1
  2872     174D  1487               	bsf	7,1	;volatile
  2873     174E                     l2682:
  2874                           
  2875                           ;PWM_SERVO.c: 18:         CCP2CONbits.CCP2M = 0b1100;
  2876     174E  1283               	bcf	3,5	;RP0=0, select bank0
  2877     174F  1303               	bcf	3,6	;RP1=0, select bank0
  2878     1750  081D               	movf	29,w	;volatile
  2879     1751  39F0               	andlw	-16
  2880     1752  380C               	iorlw	12
  2881     1753  009D               	movwf	29	;volatile
  2882     1754                     l2684:
  2883                           
  2884                           ;PWM_SERVO.c: 19:         CCPR2L = 0x0f;
  2885     1754  300F               	movlw	15
  2886     1755  009B               	movwf	27	;volatile
  2887     1756                     l2686:
  2888                           
  2889                           ;PWM_SERVO.c: 20:         CCP2CONbits.DC2B0 = 0;
  2890     1756  121D               	bcf	29,4	;volatile
  2891     1757                     l2688:
  2892                           
  2893                           ;PWM_SERVO.c: 21:         CCP2CONbits.DC2B1 = 0;
  2894     1757  129D               	bcf	29,5	;volatile
  2895     1758                     l2690:
  2896                           
  2897                           ;PWM_SERVO.c: 23:     PIR1bits.TMR2IF = 0;
  2898     1758  1283               	bcf	3,5	;RP0=0, select bank0
  2899     1759  1303               	bcf	3,6	;RP1=0, select bank0
  2900     175A  108C               	bcf	12,1	;volatile
  2901     175B                     l2692:
  2902                           
  2903                           ;PWM_SERVO.c: 24:     T2CONbits.T2CKPS = 0b11;
  2904     175B  3003               	movlw	3
  2905     175C  0492               	iorwf	18,f	;volatile
  2906     175D                     l2694:
  2907                           
  2908                           ;PWM_SERVO.c: 25:     T2CONbits.TMR2ON = 1;
  2909     175D  1512               	bsf	18,2	;volatile
  2910     175E                     l22:	
  2911                           ;PWM_SERVO.c: 26:     while(PIR1bits.TMR2IF == 0);
  2912                           
  2913     175E  1C8C               	btfss	12,1	;volatile
  2914     175F  2F61               	goto	u4221
  2915     1760  2F62               	goto	u4220
  2916     1761                     u4221:
  2917     1761  2F5E               	goto	l22
  2918     1762                     u4220:
  2919     1762                     l24:
  2920                           
  2921                           ;PWM_SERVO.c: 27:     PIR1bits.TMR2IF = 0;
  2922     1762  108C               	bcf	12,1	;volatile
  2923     1763                     l2696:
  2924                           
  2925                           ;PWM_SERVO.c: 28:     if (canal == 1)
  2926     1763  1683               	bsf	3,5	;RP0=1, select bank3
  2927     1764  1703               	bsf	3,6	;RP1=1, select bank3
  2928     1765  031C               	decf	PWM_config@canal^(0+384),w
  2929     1766  1D03               	btfss	3,2
  2930     1767  2F69               	goto	u4231
  2931     1768  2F6A               	goto	u4230
  2932     1769                     u4231:
  2933     1769  2F6E               	goto	l25
  2934     176A                     u4230:
  2935     176A                     l2698:
  2936                           
  2937                           ;PWM_SERVO.c: 29:         TRISCbits.TRISC2 = 0;
  2938     176A  1683               	bsf	3,5	;RP0=1, select bank1
  2939     176B  1303               	bcf	3,6	;RP1=0, select bank1
  2940     176C  1107               	bcf	7,2	;volatile
  2941     176D  2F71               	goto	l27
  2942     176E                     l25:	
  2943                           ;PWM_SERVO.c: 30:     else
  2944                           
  2945                           
  2946                           ;PWM_SERVO.c: 31:         TRISCbits.TRISC1 = 0;
  2947     176E  1683               	bsf	3,5	;RP0=1, select bank1
  2948     176F  1303               	bcf	3,6	;RP1=0, select bank1
  2949     1770  1087               	bcf	7,1	;volatile
  2950     1771                     l27:
  2951     1771  0008               	return
  2952     1772                     __end_of_PWM_config:
  2953                           
  2954                           	psect	text6
  2955     1772                     __ptext6:	
  2956 ;; *************** function ___fltol *****************
  2957 ;; Defined at:
  2958 ;;		line 43 in file "C:\Program Files\Microchip\xc8\v2.40\pic\sources\c90\common\fltol.c"
  2959 ;; Parameters:    Size  Location     Type
  2960 ;;  f1              4    0[BANK3 ] void 
  2961 ;; Auto vars:     Size  Location     Type
  2962 ;;  exp1            1   71[BANK1 ] unsigned char 
  2963 ;;  sign1           1   70[BANK1 ] unsigned char 
  2964 ;; Return value:  Size  Location     Type
  2965 ;;                  4    0[BANK3 ] long 
  2966 ;; Registers used:
  2967 ;;		wreg, status,2, status,0
  2968 ;; Tracked objects:
  2969 ;;		On entry : 0/0
  2970 ;;		On exit  : 0/0
  2971 ;;		Unchanged: 0/0
  2972 ;; Data sizes:     COMMON   BANK0   BANK1   BANK3   BANK2
  2973 ;;      Params:         0       0       0       4       0
  2974 ;;      Locals:         0       0       2       0       0
  2975 ;;      Temps:          0       0       0       4       0
  2976 ;;      Totals:         0       0       2       8       0
  2977 ;;Total ram usage:       10 bytes
  2978 ;; Hardware stack levels used: 1
  2979 ;; Hardware stack levels required when called: 4
  2980 ;; This function calls:
  2981 ;;		Nothing
  2982 ;; This function is called by:
  2983 ;;		_PWM_config
  2984 ;;		_PWM_duty
  2985 ;;		_main
  2986 ;;		_Duty_Pot
  2987 ;; This function uses a non-reentrant model
  2988 ;;
  2989                           
  2990     1772                     ___fltol:	
  2991                           ;psect for function ___fltol
  2992                           
  2993     1772                     l2628:	
  2994                           ;incstack = 0
  2995                           ; Regs used in ___fltol: [wreg+status,2+status,0]
  2996                           
  2997     1772  1003               	clrc
  2998     1773  1683               	bsf	3,5	;RP0=1, select bank3
  2999     1774  1703               	bsf	3,6	;RP1=1, select bank3
  3000     1775  0D12               	rlf	(___fltol@f1+2)^(0+384),w
  3001     1776  0D13               	rlf	(___fltol@f1+3)^(0+384),w
  3002     1777  1683               	bsf	3,5	;RP0=1, select bank1
  3003     1778  1303               	bcf	3,6	;RP1=0, select bank1
  3004     1779  00E7               	movwf	___fltol@exp1^(0+128)
  3005     177A  0867               	movf	___fltol@exp1^(0+128),w
  3006     177B  1D03               	btfss	3,2
  3007     177C  2F7E               	goto	u4101
  3008     177D  2F7F               	goto	u4100
  3009     177E                     u4101:
  3010     177E  2F8A               	goto	l2634
  3011     177F                     u4100:
  3012     177F                     l2630:
  3013     177F  3000               	movlw	0
  3014     1780  1683               	bsf	3,5	;RP0=1, select bank3
  3015     1781  1703               	bsf	3,6	;RP1=1, select bank3
  3016     1782  0093               	movwf	(?___fltol+3)^(0+384)
  3017     1783  3000               	movlw	0
  3018     1784  0092               	movwf	(?___fltol+2)^(0+384)
  3019     1785  3000               	movlw	0
  3020     1786  0091               	movwf	(?___fltol+1)^(0+384)
  3021     1787  3000               	movlw	0
  3022     1788  0090               	movwf	?___fltol^(0+384)
  3023     1789  2FFF               	goto	l412
  3024     178A                     l2634:
  3025     178A  1683               	bsf	3,5	;RP0=1, select bank3
  3026     178B  1703               	bsf	3,6	;RP1=1, select bank3
  3027     178C  0810               	movf	___fltol@f1^(0+384),w
  3028     178D  0094               	movwf	??___fltol^(0+384)
  3029     178E  0811               	movf	(___fltol@f1+1)^(0+384),w
  3030     178F  0095               	movwf	(??___fltol^(0+384)+1)
  3031     1790  0812               	movf	(___fltol@f1+2)^(0+384),w
  3032     1791  0096               	movwf	(??___fltol^(0+384)+2)
  3033     1792  0813               	movf	(___fltol@f1+3)^(0+384),w
  3034     1793  0097               	movwf	(??___fltol^(0+384)+3)
  3035     1794  301F               	movlw	31
  3036     1795                     u4115:
  3037     1795  1003               	clrc
  3038     1796  0C97               	rrf	(??___fltol^(0+384)+3),f
  3039     1797  0C96               	rrf	(??___fltol^(0+384)+2),f
  3040     1798  0C95               	rrf	(??___fltol^(0+384)+1),f
  3041     1799  0C94               	rrf	??___fltol^(0+384),f
  3042     179A                     u4110:
  3043     179A  3EFF               	addlw	-1
  3044     179B  1D03               	skipz
  3045     179C  2F95               	goto	u4115
  3046     179D  0814               	movf	??___fltol^(0+384),w
  3047     179E  1683               	bsf	3,5	;RP0=1, select bank1
  3048     179F  1303               	bcf	3,6	;RP1=0, select bank1
  3049     17A0  00E6               	movwf	___fltol@sign1^(0+128)
  3050     17A1                     l2636:
  3051     17A1  1683               	bsf	3,5	;RP0=1, select bank3
  3052     17A2  1703               	bsf	3,6	;RP1=1, select bank3
  3053     17A3  1792               	bsf	(___fltol@f1^(0+384)+2),7
  3054     17A4                     l2638:
  3055     17A4  30FF               	movlw	255
  3056     17A5  0590               	andwf	___fltol@f1^(0+384),f
  3057     17A6  30FF               	movlw	255
  3058     17A7  0591               	andwf	(___fltol@f1+1)^(0+384),f
  3059     17A8  30FF               	movlw	255
  3060     17A9  0592               	andwf	(___fltol@f1+2)^(0+384),f
  3061     17AA  3000               	movlw	0
  3062     17AB  0593               	andwf	(___fltol@f1+3)^(0+384),f
  3063     17AC                     l2640:
  3064     17AC  3096               	movlw	150
  3065     17AD  1683               	bsf	3,5	;RP0=1, select bank1
  3066     17AE  1303               	bcf	3,6	;RP1=0, select bank1
  3067     17AF  02E7               	subwf	___fltol@exp1^(0+128),f
  3068     17B0                     l2642:
  3069     17B0  1FE7               	btfss	___fltol@exp1^(0+128),7
  3070     17B1  2FB3               	goto	u4121
  3071     17B2  2FB4               	goto	u4120
  3072     17B3                     u4121:
  3073     17B3  2FD2               	goto	l2652
  3074     17B4                     u4120:
  3075     17B4                     l2644:
  3076     17B4  0867               	movf	___fltol@exp1^(0+128),w
  3077     17B5  3A80               	xorlw	128
  3078     17B6  3E97               	addlw	151
  3079     17B7  1803               	skipnc
  3080     17B8  2FBA               	goto	u4131
  3081     17B9  2FBB               	goto	u4130
  3082     17BA                     u4131:
  3083     17BA  2FBC               	goto	l2650
  3084     17BB                     u4130:
  3085     17BB  2F7F               	goto	l2630
  3086     17BC                     l2650:
  3087     17BC  3001               	movlw	1
  3088     17BD                     u4145:
  3089     17BD  1003               	clrc
  3090     17BE  1683               	bsf	3,5	;RP0=1, select bank3
  3091     17BF  1703               	bsf	3,6	;RP1=1, select bank3
  3092     17C0  0C93               	rrf	(___fltol@f1+3)^(0+384),f
  3093     17C1  0C92               	rrf	(___fltol@f1+2)^(0+384),f
  3094     17C2  0C91               	rrf	(___fltol@f1+1)^(0+384),f
  3095     17C3  0C90               	rrf	___fltol@f1^(0+384),f
  3096     17C4  3EFF               	addlw	-1
  3097     17C5  1D03               	skipz
  3098     17C6  2FBD               	goto	u4145
  3099     17C7  3001               	movlw	1
  3100     17C8  0094               	movwf	??___fltol^(0+384)
  3101     17C9  0814               	movf	??___fltol^(0+384),w
  3102     17CA  1683               	bsf	3,5	;RP0=1, select bank1
  3103     17CB  1303               	bcf	3,6	;RP1=0, select bank1
  3104     17CC  07E7               	addwf	___fltol@exp1^(0+128),f
  3105     17CD  1D03               	btfss	3,2
  3106     17CE  2FD0               	goto	u4151
  3107     17CF  2FD1               	goto	u4150
  3108     17D0                     u4151:
  3109     17D0  2FBC               	goto	l2650
  3110     17D1                     u4150:
  3111     17D1  2FED               	goto	l2660
  3112     17D2                     l2652:
  3113     17D2  3020               	movlw	32
  3114     17D3  0267               	subwf	___fltol@exp1^(0+128),w
  3115     17D4  1C03               	skipc
  3116     17D5  2FD7               	goto	u4161
  3117     17D6  2FD8               	goto	u4160
  3118     17D7                     u4161:
  3119     17D7  2FE8               	goto	l419
  3120     17D8                     u4160:
  3121     17D8  2F7F               	goto	l2630
  3122     17D9                     l2658:
  3123     17D9  3001               	movlw	1
  3124     17DA  1683               	bsf	3,5	;RP0=1, select bank3
  3125     17DB  1703               	bsf	3,6	;RP1=1, select bank3
  3126     17DC  0094               	movwf	??___fltol^(0+384)
  3127     17DD                     u4175:
  3128     17DD  1003               	clrc
  3129     17DE  0D90               	rlf	___fltol@f1^(0+384),f
  3130     17DF  0D91               	rlf	(___fltol@f1+1)^(0+384),f
  3131     17E0  0D92               	rlf	(___fltol@f1+2)^(0+384),f
  3132     17E1  0D93               	rlf	(___fltol@f1+3)^(0+384),f
  3133     17E2  0B94               	decfsz	??___fltol^(0+384),f
  3134     17E3  2FDD               	goto	u4175
  3135     17E4  3001               	movlw	1
  3136     17E5  1683               	bsf	3,5	;RP0=1, select bank1
  3137     17E6  1303               	bcf	3,6	;RP1=0, select bank1
  3138     17E7  02E7               	subwf	___fltol@exp1^(0+128),f
  3139     17E8                     l419:
  3140     17E8  0867               	movf	___fltol@exp1^(0+128),w
  3141     17E9  1D03               	btfss	3,2
  3142     17EA  2FEC               	goto	u4181
  3143     17EB  2FED               	goto	u4180
  3144     17EC                     u4181:
  3145     17EC  2FD9               	goto	l2658
  3146     17ED                     u4180:
  3147     17ED                     l2660:
  3148     17ED  0866               	movf	___fltol@sign1^(0+128),w
  3149     17EE  1903               	btfsc	3,2
  3150     17EF  2FF1               	goto	u4191
  3151     17F0  2FF2               	goto	u4190
  3152     17F1                     u4191:
  3153     17F1  2FFF               	goto	l422
  3154     17F2                     u4190:
  3155     17F2                     l2662:
  3156     17F2  1683               	bsf	3,5	;RP0=1, select bank3
  3157     17F3  1703               	bsf	3,6	;RP1=1, select bank3
  3158     17F4  0990               	comf	___fltol@f1^(0+384),f
  3159     17F5  0991               	comf	(___fltol@f1+1)^(0+384),f
  3160     17F6  0992               	comf	(___fltol@f1+2)^(0+384),f
  3161     17F7  0993               	comf	(___fltol@f1+3)^(0+384),f
  3162     17F8  0A90               	incf	___fltol@f1^(0+384),f
  3163     17F9  1903               	skipnz
  3164     17FA  0A91               	incf	(___fltol@f1+1)^(0+384),f
  3165     17FB  1903               	skipnz
  3166     17FC  0A92               	incf	(___fltol@f1+2)^(0+384),f
  3167     17FD  1903               	skipnz
  3168     17FE  0A93               	incf	(___fltol@f1+3)^(0+384),f
  3169     17FF                     l422:
  3170     17FF                     l412:
  3171     17FF  0008               	return
  3172     1800                     __end_of___fltol:
  3173                           
  3174                           	psect	text7
  3175     0E2D                     __ptext7:	
  3176 ;; *************** function ___fldiv *****************
  3177 ;; Defined at:
  3178 ;;		line 8 in file "C:\Program Files\Microchip\xc8\v2.40\pic\sources\c90\common\sprcdiv.c"
  3179 ;; Parameters:    Size  Location     Type
  3180 ;;  a               4   44[BANK1 ] long 
  3181 ;;  b               4   48[BANK1 ] long 
  3182 ;; Auto vars:     Size  Location     Type
  3183 ;;  grs             4   64[BANK1 ] unsigned long 
  3184 ;;  rem             4   57[BANK1 ] unsigned long 
  3185 ;;  new_exp         2   62[BANK1 ] int 
  3186 ;;  aexp            1   69[BANK1 ] unsigned char 
  3187 ;;  bexp            1   68[BANK1 ] unsigned char 
  3188 ;;  sign            1   61[BANK1 ] unsigned char 
  3189 ;; Return value:  Size  Location     Type
  3190 ;;                  4   44[BANK1 ] unsigned char 
  3191 ;; Registers used:
  3192 ;;		wreg, status,2, status,0, btemp+1
  3193 ;; Tracked objects:
  3194 ;;		On entry : 0/0
  3195 ;;		On exit  : 0/0
  3196 ;;		Unchanged: 0/0
  3197 ;; Data sizes:     COMMON   BANK0   BANK1   BANK3   BANK2
  3198 ;;      Params:         0       0       8       0       0
  3199 ;;      Locals:         0       0      13       0       0
  3200 ;;      Temps:          0       0       5       0       0
  3201 ;;      Totals:         0       0      26       0       0
  3202 ;;Total ram usage:       26 bytes
  3203 ;; Hardware stack levels used: 1
  3204 ;; Hardware stack levels required when called: 4
  3205 ;; This function calls:
  3206 ;;		Nothing
  3207 ;; This function is called by:
  3208 ;;		_PWM_config
  3209 ;;		_PWM_duty
  3210 ;;		_main
  3211 ;;		_Mapeo_Pot
  3212 ;; This function uses a non-reentrant model
  3213 ;;
  3214                           
  3215     0E2D                     ___fldiv:	
  3216                           ;psect for function ___fldiv
  3217                           
  3218     0E2D                     l1734:	
  3219                           ;incstack = 0
  3220                           ; Regs used in ___fldiv: [wreg+status,2+status,0+btemp+1]
  3221                           
  3222     0E2D  1683               	bsf	3,5	;RP0=1, select bank1
  3223     0E2E  1303               	bcf	3,6	;RP1=0, select bank1
  3224     0E2F  0853               	movf	(___fldiv@b^(0+128)+3),w
  3225     0E30  3980               	andlw	128
  3226     0E31  00DD               	movwf	___fldiv@sign^(0+128)
  3227     0E32                     l1736:
  3228     0E32  0853               	movf	(___fldiv@b^(0+128)+3),w
  3229     0E33  00D4               	movwf	??___fldiv^(0+128)
  3230     0E34  0754               	addwf	??___fldiv^(0+128),w
  3231     0E35  00E4               	movwf	___fldiv@bexp^(0+128)
  3232     0E36                     l1738:
  3233     0E36  1FD2               	btfss	(___fldiv@b^(0+128)+2),7
  3234     0E37  2E39               	goto	u2191
  3235     0E38  2E3A               	goto	u2190
  3236     0E39                     u2191:
  3237     0E39  2E3B               	goto	l1742
  3238     0E3A                     u2190:
  3239     0E3A                     l1740:
  3240     0E3A  1464               	bsf	___fldiv@bexp^(0+128),0
  3241     0E3B                     l1742:
  3242     0E3B  0864               	movf	___fldiv@bexp^(0+128),w
  3243     0E3C  1903               	btfsc	3,2
  3244     0E3D  2E3F               	goto	u2201
  3245     0E3E  2E40               	goto	u2200
  3246     0E3F                     u2201:
  3247     0E3F  2E50               	goto	l1752
  3248     0E40                     u2200:
  3249     0E40                     l1744:
  3250     0E40  0A64               	incf	___fldiv@bexp^(0+128),w
  3251     0E41  1D03               	btfss	3,2
  3252     0E42  2E44               	goto	u2211
  3253     0E43  2E45               	goto	u2210
  3254     0E44                     u2211:
  3255     0E44  2E4D               	goto	l1748
  3256     0E45                     u2210:
  3257     0E45                     l1746:
  3258     0E45  3000               	movlw	0
  3259     0E46  00D3               	movwf	(___fldiv@b+3)^(0+128)
  3260     0E47  3000               	movlw	0
  3261     0E48  00D2               	movwf	(___fldiv@b+2)^(0+128)
  3262     0E49  3000               	movlw	0
  3263     0E4A  00D1               	movwf	(___fldiv@b+1)^(0+128)
  3264     0E4B  3000               	movlw	0
  3265     0E4C  00D0               	movwf	___fldiv@b^(0+128)
  3266     0E4D                     l1748:
  3267     0E4D  17D2               	bsf	(___fldiv@b^(0+128)+2),7
  3268     0E4E                     l1750:
  3269     0E4E  01D3               	clrf	(___fldiv@b^(0+128)+3)
  3270     0E4F  2E58               	goto	l1754
  3271     0E50                     l1752:
  3272     0E50  3000               	movlw	0
  3273     0E51  00D3               	movwf	(___fldiv@b+3)^(0+128)
  3274     0E52  3000               	movlw	0
  3275     0E53  00D2               	movwf	(___fldiv@b+2)^(0+128)
  3276     0E54  3000               	movlw	0
  3277     0E55  00D1               	movwf	(___fldiv@b+1)^(0+128)
  3278     0E56  3000               	movlw	0
  3279     0E57  00D0               	movwf	___fldiv@b^(0+128)
  3280     0E58                     l1754:
  3281     0E58  084F               	movf	(___fldiv@a^(0+128)+3),w
  3282     0E59  3980               	andlw	128
  3283     0E5A  00D4               	movwf	??___fldiv^(0+128)
  3284     0E5B  0854               	movf	??___fldiv^(0+128),w
  3285     0E5C  06DD               	xorwf	___fldiv@sign^(0+128),f
  3286     0E5D                     l1756:
  3287     0E5D  084F               	movf	(___fldiv@a^(0+128)+3),w
  3288     0E5E  00D4               	movwf	??___fldiv^(0+128)
  3289     0E5F  0754               	addwf	??___fldiv^(0+128),w
  3290     0E60  00E5               	movwf	___fldiv@aexp^(0+128)
  3291     0E61                     l1758:
  3292     0E61  1FCE               	btfss	(___fldiv@a^(0+128)+2),7
  3293     0E62  2E64               	goto	u2221
  3294     0E63  2E65               	goto	u2220
  3295     0E64                     u2221:
  3296     0E64  2E66               	goto	l1762
  3297     0E65                     u2220:
  3298     0E65                     l1760:
  3299     0E65  1465               	bsf	___fldiv@aexp^(0+128),0
  3300     0E66                     l1762:
  3301     0E66  0865               	movf	___fldiv@aexp^(0+128),w
  3302     0E67  1903               	btfsc	3,2
  3303     0E68  2E6A               	goto	u2231
  3304     0E69  2E6B               	goto	u2230
  3305     0E6A                     u2231:
  3306     0E6A  2E7B               	goto	l1772
  3307     0E6B                     u2230:
  3308     0E6B                     l1764:
  3309     0E6B  0A65               	incf	___fldiv@aexp^(0+128),w
  3310     0E6C  1D03               	btfss	3,2
  3311     0E6D  2E6F               	goto	u2241
  3312     0E6E  2E70               	goto	u2240
  3313     0E6F                     u2241:
  3314     0E6F  2E78               	goto	l1768
  3315     0E70                     u2240:
  3316     0E70                     l1766:
  3317     0E70  3000               	movlw	0
  3318     0E71  00CF               	movwf	(___fldiv@a+3)^(0+128)
  3319     0E72  3000               	movlw	0
  3320     0E73  00CE               	movwf	(___fldiv@a+2)^(0+128)
  3321     0E74  3000               	movlw	0
  3322     0E75  00CD               	movwf	(___fldiv@a+1)^(0+128)
  3323     0E76  3000               	movlw	0
  3324     0E77  00CC               	movwf	___fldiv@a^(0+128)
  3325     0E78                     l1768:
  3326     0E78  17CE               	bsf	(___fldiv@a^(0+128)+2),7
  3327     0E79                     l1770:
  3328     0E79  01CF               	clrf	(___fldiv@a^(0+128)+3)
  3329     0E7A  2E83               	goto	l575
  3330     0E7B                     l1772:
  3331     0E7B  3000               	movlw	0
  3332     0E7C  00CF               	movwf	(___fldiv@a+3)^(0+128)
  3333     0E7D  3000               	movlw	0
  3334     0E7E  00CE               	movwf	(___fldiv@a+2)^(0+128)
  3335     0E7F  3000               	movlw	0
  3336     0E80  00CD               	movwf	(___fldiv@a+1)^(0+128)
  3337     0E81  3000               	movlw	0
  3338     0E82  00CC               	movwf	___fldiv@a^(0+128)
  3339     0E83                     l575:
  3340     0E83  084F               	movf	(___fldiv@a+3)^(0+128),w
  3341     0E84  044E               	iorwf	(___fldiv@a+2)^(0+128),w
  3342     0E85  044D               	iorwf	(___fldiv@a+1)^(0+128),w
  3343     0E86  044C               	iorwf	___fldiv@a^(0+128),w
  3344     0E87  1D03               	skipz
  3345     0E88  2E8A               	goto	u2251
  3346     0E89  2E8B               	goto	u2250
  3347     0E8A                     u2251:
  3348     0E8A  2EA4               	goto	l1782
  3349     0E8B                     u2250:
  3350     0E8B                     l1774:
  3351     0E8B  3000               	movlw	0
  3352     0E8C  00D3               	movwf	(___fldiv@b+3)^(0+128)
  3353     0E8D  3000               	movlw	0
  3354     0E8E  00D2               	movwf	(___fldiv@b+2)^(0+128)
  3355     0E8F  3000               	movlw	0
  3356     0E90  00D1               	movwf	(___fldiv@b+1)^(0+128)
  3357     0E91  3000               	movlw	0
  3358     0E92  00D0               	movwf	___fldiv@b^(0+128)
  3359     0E93  3080               	movlw	128
  3360     0E94  04D2               	iorwf	(___fldiv@b^(0+128)+2),f
  3361     0E95  307F               	movlw	127
  3362     0E96  04D3               	iorwf	((___fldiv@b+1)^(0+128)+2),f
  3363     0E97                     l1776:
  3364     0E97  085D               	movf	___fldiv@sign^(0+128),w
  3365     0E98  00D4               	movwf	??___fldiv^(0+128)
  3366     0E99  0854               	movf	??___fldiv^(0+128),w
  3367     0E9A  04D3               	iorwf	(___fldiv@b^(0+128)+3),f
  3368     0E9B                     l1778:
  3369     0E9B  0853               	movf	(___fldiv@b+3)^(0+128),w
  3370     0E9C  00CF               	movwf	(?___fldiv+3)^(0+128)
  3371     0E9D  0852               	movf	(___fldiv@b+2)^(0+128),w
  3372     0E9E  00CE               	movwf	(?___fldiv+2)^(0+128)
  3373     0E9F  0851               	movf	(___fldiv@b+1)^(0+128),w
  3374     0EA0  00CD               	movwf	(?___fldiv+1)^(0+128)
  3375     0EA1  0850               	movf	___fldiv@b^(0+128),w
  3376     0EA2  00CC               	movwf	?___fldiv^(0+128)
  3377     0EA3  2FFF               	goto	l577
  3378     0EA4                     l1782:
  3379     0EA4  0864               	movf	___fldiv@bexp^(0+128),w
  3380     0EA5  1D03               	btfss	3,2
  3381     0EA6  2EA8               	goto	u2261
  3382     0EA7  2EA9               	goto	u2260
  3383     0EA8                     u2261:
  3384     0EA8  2EB2               	goto	l1788
  3385     0EA9                     u2260:
  3386     0EA9                     l1784:
  3387     0EA9  3000               	movlw	0
  3388     0EAA  00CF               	movwf	(?___fldiv+3)^(0+128)
  3389     0EAB  3000               	movlw	0
  3390     0EAC  00CE               	movwf	(?___fldiv+2)^(0+128)
  3391     0EAD  3000               	movlw	0
  3392     0EAE  00CD               	movwf	(?___fldiv+1)^(0+128)
  3393     0EAF  3000               	movlw	0
  3394     0EB0  00CC               	movwf	?___fldiv^(0+128)
  3395     0EB1  2FFF               	goto	l577
  3396     0EB2                     l1788:
  3397     0EB2  0864               	movf	___fldiv@bexp^(0+128),w
  3398     0EB3  00D4               	movwf	??___fldiv^(0+128)
  3399     0EB4  01D5               	clrf	(??___fldiv^(0+128)+1)
  3400     0EB5  0855               	movf	(??___fldiv+1)^(0+128),w
  3401     0EB6  00D7               	movwf	((??___fldiv+2)^(0+128)+1)
  3402     0EB7  0865               	movf	___fldiv@aexp^(0+128),w
  3403     0EB8  0254               	subwf	??___fldiv^(0+128),w
  3404     0EB9  00D6               	movwf	(??___fldiv+2)^(0+128)
  3405     0EBA  1C03               	skipc
  3406     0EBB  03D7               	decf	((??___fldiv+2)^(0+128)+1),f
  3407     0EBC  0856               	movf	(??___fldiv+2)^(0+128),w
  3408     0EBD  3E7F               	addlw	127
  3409     0EBE  00DE               	movwf	___fldiv@new_exp^(0+128)
  3410     0EBF  0857               	movf	(??___fldiv+3)^(0+128),w
  3411     0EC0  1803               	skipnc
  3412     0EC1  3E01               	addlw	1
  3413     0EC2  3E00               	addlw	0
  3414     0EC3  00DF               	movwf	(___fldiv@new_exp+1)^(0+128)
  3415     0EC4                     l1790:
  3416     0EC4  0853               	movf	(___fldiv@b+3)^(0+128),w
  3417     0EC5  00DC               	movwf	(___fldiv@rem+3)^(0+128)
  3418     0EC6  0852               	movf	(___fldiv@b+2)^(0+128),w
  3419     0EC7  00DB               	movwf	(___fldiv@rem+2)^(0+128)
  3420     0EC8  0851               	movf	(___fldiv@b+1)^(0+128),w
  3421     0EC9  00DA               	movwf	(___fldiv@rem+1)^(0+128)
  3422     0ECA  0850               	movf	___fldiv@b^(0+128),w
  3423     0ECB  00D9               	movwf	___fldiv@rem^(0+128)
  3424     0ECC                     l1792:
  3425     0ECC  3000               	movlw	0
  3426     0ECD  00D3               	movwf	(___fldiv@b+3)^(0+128)
  3427     0ECE  3000               	movlw	0
  3428     0ECF  00D2               	movwf	(___fldiv@b+2)^(0+128)
  3429     0ED0  3000               	movlw	0
  3430     0ED1  00D1               	movwf	(___fldiv@b+1)^(0+128)
  3431     0ED2  3000               	movlw	0
  3432     0ED3  00D0               	movwf	___fldiv@b^(0+128)
  3433     0ED4                     l1794:
  3434     0ED4  3000               	movlw	0
  3435     0ED5  00E3               	movwf	(___fldiv@grs+3)^(0+128)
  3436     0ED6  3000               	movlw	0
  3437     0ED7  00E2               	movwf	(___fldiv@grs+2)^(0+128)
  3438     0ED8  3000               	movlw	0
  3439     0ED9  00E1               	movwf	(___fldiv@grs+1)^(0+128)
  3440     0EDA  3000               	movlw	0
  3441     0EDB  00E0               	movwf	___fldiv@grs^(0+128)
  3442     0EDC                     l1796:
  3443     0EDC  01E5               	clrf	___fldiv@aexp^(0+128)
  3444     0EDD  2F28               	goto	l1816
  3445     0EDE                     l1798:
  3446     0EDE  0865               	movf	___fldiv@aexp^(0+128),w
  3447     0EDF  1903               	btfsc	3,2
  3448     0EE0  2EE2               	goto	u2271
  3449     0EE1  2EE3               	goto	u2270
  3450     0EE2                     u2271:
  3451     0EE2  2F03               	goto	l1808
  3452     0EE3                     u2270:
  3453     0EE3                     l1800:
  3454     0EE3  3001               	movlw	1
  3455     0EE4  00D4               	movwf	??___fldiv^(0+128)
  3456     0EE5                     u2285:
  3457     0EE5  1003               	clrc
  3458     0EE6  0DD9               	rlf	___fldiv@rem^(0+128),f
  3459     0EE7  0DDA               	rlf	(___fldiv@rem+1)^(0+128),f
  3460     0EE8  0DDB               	rlf	(___fldiv@rem+2)^(0+128),f
  3461     0EE9  0DDC               	rlf	(___fldiv@rem+3)^(0+128),f
  3462     0EEA  0BD4               	decfsz	??___fldiv^(0+128),f
  3463     0EEB  2EE5               	goto	u2285
  3464     0EEC  3001               	movlw	1
  3465     0EED  00D4               	movwf	??___fldiv^(0+128)
  3466     0EEE                     u2295:
  3467     0EEE  1003               	clrc
  3468     0EEF  0DD0               	rlf	___fldiv@b^(0+128),f
  3469     0EF0  0DD1               	rlf	(___fldiv@b+1)^(0+128),f
  3470     0EF1  0DD2               	rlf	(___fldiv@b+2)^(0+128),f
  3471     0EF2  0DD3               	rlf	(___fldiv@b+3)^(0+128),f
  3472     0EF3  0BD4               	decfsz	??___fldiv^(0+128),f
  3473     0EF4  2EEE               	goto	u2295
  3474     0EF5                     l1802:
  3475     0EF5  1FE3               	btfss	(___fldiv@grs+3)^(0+128),7
  3476     0EF6  2EF8               	goto	u2301
  3477     0EF7  2EF9               	goto	u2300
  3478     0EF8                     u2301:
  3479     0EF8  2EFA               	goto	l1806
  3480     0EF9                     u2300:
  3481     0EF9                     l1804:
  3482     0EF9  1450               	bsf	___fldiv@b^(0+128),0
  3483     0EFA                     l1806:
  3484     0EFA  3001               	movlw	1
  3485     0EFB  00D4               	movwf	??___fldiv^(0+128)
  3486     0EFC                     u2315:
  3487     0EFC  1003               	clrc
  3488     0EFD  0DE0               	rlf	___fldiv@grs^(0+128),f
  3489     0EFE  0DE1               	rlf	(___fldiv@grs+1)^(0+128),f
  3490     0EFF  0DE2               	rlf	(___fldiv@grs+2)^(0+128),f
  3491     0F00  0DE3               	rlf	(___fldiv@grs+3)^(0+128),f
  3492     0F01  0BD4               	decfsz	??___fldiv^(0+128),f
  3493     0F02  2EFC               	goto	u2315
  3494     0F03                     l1808:
  3495     0F03  084F               	movf	(___fldiv@a+3)^(0+128),w
  3496     0F04  025C               	subwf	(___fldiv@rem+3)^(0+128),w
  3497     0F05  1D03               	skipz
  3498     0F06  2F11               	goto	u2325
  3499     0F07  084E               	movf	(___fldiv@a+2)^(0+128),w
  3500     0F08  025B               	subwf	(___fldiv@rem+2)^(0+128),w
  3501     0F09  1D03               	skipz
  3502     0F0A  2F11               	goto	u2325
  3503     0F0B  084D               	movf	(___fldiv@a+1)^(0+128),w
  3504     0F0C  025A               	subwf	(___fldiv@rem+1)^(0+128),w
  3505     0F0D  1D03               	skipz
  3506     0F0E  2F11               	goto	u2325
  3507     0F0F  084C               	movf	___fldiv@a^(0+128),w
  3508     0F10  0259               	subwf	___fldiv@rem^(0+128),w
  3509     0F11                     u2325:
  3510     0F11  1C03               	skipc
  3511     0F12  2F14               	goto	u2321
  3512     0F13  2F15               	goto	u2320
  3513     0F14                     u2321:
  3514     0F14  2F24               	goto	l1814
  3515     0F15                     u2320:
  3516     0F15                     l1810:
  3517     0F15  1763               	bsf	(___fldiv@grs^(0+128)+3),6
  3518     0F16                     l1812:
  3519     0F16  084C               	movf	___fldiv@a^(0+128),w
  3520     0F17  02D9               	subwf	___fldiv@rem^(0+128),f
  3521     0F18  084D               	movf	(___fldiv@a+1)^(0+128),w
  3522     0F19  1C03               	skipc
  3523     0F1A  0F4D               	incfsz	(___fldiv@a+1)^(0+128),w
  3524     0F1B  02DA               	subwf	(___fldiv@rem+1)^(0+128),f
  3525     0F1C  084E               	movf	(___fldiv@a+2)^(0+128),w
  3526     0F1D  1C03               	skipc
  3527     0F1E  0F4E               	incfsz	(___fldiv@a+2)^(0+128),w
  3528     0F1F  02DB               	subwf	(___fldiv@rem+2)^(0+128),f
  3529     0F20  084F               	movf	(___fldiv@a+3)^(0+128),w
  3530     0F21  1C03               	skipc
  3531     0F22  0F4F               	incfsz	(___fldiv@a+3)^(0+128),w
  3532     0F23  02DC               	subwf	(___fldiv@rem+3)^(0+128),f
  3533     0F24                     l1814:
  3534     0F24  3001               	movlw	1
  3535     0F25  00D4               	movwf	??___fldiv^(0+128)
  3536     0F26  0854               	movf	??___fldiv^(0+128),w
  3537     0F27  07E5               	addwf	___fldiv@aexp^(0+128),f
  3538     0F28                     l1816:
  3539     0F28  301A               	movlw	26
  3540     0F29  0265               	subwf	___fldiv@aexp^(0+128),w
  3541     0F2A  1C03               	skipc
  3542     0F2B  2F2D               	goto	u2331
  3543     0F2C  2F2E               	goto	u2330
  3544     0F2D                     u2331:
  3545     0F2D  2EDE               	goto	l1798
  3546     0F2E                     u2330:
  3547     0F2E                     l1818:
  3548     0F2E  085C               	movf	(___fldiv@rem+3)^(0+128),w
  3549     0F2F  045B               	iorwf	(___fldiv@rem+2)^(0+128),w
  3550     0F30  045A               	iorwf	(___fldiv@rem+1)^(0+128),w
  3551     0F31  0459               	iorwf	___fldiv@rem^(0+128),w
  3552     0F32  1903               	skipnz
  3553     0F33  2F35               	goto	u2341
  3554     0F34  2F36               	goto	u2340
  3555     0F35                     u2341:
  3556     0F35  2F55               	goto	l1832
  3557     0F36                     u2340:
  3558     0F36                     l1820:
  3559     0F36  1460               	bsf	___fldiv@grs^(0+128),0
  3560     0F37  2F55               	goto	l1832
  3561     0F38                     l1822:
  3562     0F38  3001               	movlw	1
  3563     0F39  00D4               	movwf	??___fldiv^(0+128)
  3564     0F3A                     u2355:
  3565     0F3A  1003               	clrc
  3566     0F3B  0DD0               	rlf	___fldiv@b^(0+128),f
  3567     0F3C  0DD1               	rlf	(___fldiv@b+1)^(0+128),f
  3568     0F3D  0DD2               	rlf	(___fldiv@b+2)^(0+128),f
  3569     0F3E  0DD3               	rlf	(___fldiv@b+3)^(0+128),f
  3570     0F3F  0BD4               	decfsz	??___fldiv^(0+128),f
  3571     0F40  2F3A               	goto	u2355
  3572     0F41                     l1824:
  3573     0F41  1FE3               	btfss	(___fldiv@grs+3)^(0+128),7
  3574     0F42  2F44               	goto	u2361
  3575     0F43  2F45               	goto	u2360
  3576     0F44                     u2361:
  3577     0F44  2F46               	goto	l1828
  3578     0F45                     u2360:
  3579     0F45                     l1826:
  3580     0F45  1450               	bsf	___fldiv@b^(0+128),0
  3581     0F46                     l1828:
  3582     0F46  3001               	movlw	1
  3583     0F47  00D4               	movwf	??___fldiv^(0+128)
  3584     0F48                     u2375:
  3585     0F48  1003               	clrc
  3586     0F49  0DE0               	rlf	___fldiv@grs^(0+128),f
  3587     0F4A  0DE1               	rlf	(___fldiv@grs+1)^(0+128),f
  3588     0F4B  0DE2               	rlf	(___fldiv@grs+2)^(0+128),f
  3589     0F4C  0DE3               	rlf	(___fldiv@grs+3)^(0+128),f
  3590     0F4D  0BD4               	decfsz	??___fldiv^(0+128),f
  3591     0F4E  2F48               	goto	u2375
  3592     0F4F                     l1830:
  3593     0F4F  30FF               	movlw	255
  3594     0F50  07DE               	addwf	___fldiv@new_exp^(0+128),f
  3595     0F51  1803               	skipnc
  3596     0F52  0ADF               	incf	(___fldiv@new_exp+1)^(0+128),f
  3597     0F53  30FF               	movlw	255
  3598     0F54  07DF               	addwf	(___fldiv@new_exp+1)^(0+128),f
  3599     0F55                     l1832:
  3600     0F55  1FD2               	btfss	(___fldiv@b+2)^(0+128),7
  3601     0F56  2F58               	goto	u2381
  3602     0F57  2F59               	goto	u2380
  3603     0F58                     u2381:
  3604     0F58  2F38               	goto	l1822
  3605     0F59                     u2380:
  3606     0F59                     l1834:
  3607     0F59  01E5               	clrf	___fldiv@aexp^(0+128)
  3608     0F5A                     l1836:
  3609     0F5A  1FE3               	btfss	(___fldiv@grs+3)^(0+128),7
  3610     0F5B  2F5D               	goto	u2391
  3611     0F5C  2F5E               	goto	u2390
  3612     0F5D                     u2391:
  3613     0F5D  2F7A               	goto	l1844
  3614     0F5E                     u2390:
  3615     0F5E                     l1838:
  3616     0F5E  30FF               	movlw	255
  3617     0F5F  0560               	andwf	___fldiv@grs^(0+128),w
  3618     0F60  00D4               	movwf	??___fldiv^(0+128)
  3619     0F61  30FF               	movlw	255
  3620     0F62  0561               	andwf	(___fldiv@grs+1)^(0+128),w
  3621     0F63  00D5               	movwf	(??___fldiv^(0+128)+1)
  3622     0F64  30FF               	movlw	255
  3623     0F65  0562               	andwf	(___fldiv@grs+2)^(0+128),w
  3624     0F66  00D6               	movwf	(??___fldiv^(0+128)+2)
  3625     0F67  307F               	movlw	127
  3626     0F68  0563               	andwf	(___fldiv@grs+3)^(0+128),w
  3627     0F69  00D7               	movwf	(??___fldiv^(0+128)+3)
  3628     0F6A  0857               	movf	(??___fldiv+3)^(0+128),w
  3629     0F6B  0456               	iorwf	(??___fldiv+2)^(0+128),w
  3630     0F6C  0455               	iorwf	(??___fldiv+1)^(0+128),w
  3631     0F6D  0454               	iorwf	??___fldiv^(0+128),w
  3632     0F6E  1903               	skipnz
  3633     0F6F  2F71               	goto	u2401
  3634     0F70  2F72               	goto	u2400
  3635     0F71                     u2401:
  3636     0F71  2F75               	goto	l591
  3637     0F72                     u2400:
  3638     0F72                     l1840:
  3639     0F72  01E5               	clrf	___fldiv@aexp^(0+128)
  3640     0F73  0AE5               	incf	___fldiv@aexp^(0+128),f
  3641     0F74  2F7A               	goto	l1844
  3642     0F75                     l591:
  3643     0F75  1C50               	btfss	___fldiv@b^(0+128),0
  3644     0F76  2F78               	goto	u2411
  3645     0F77  2F79               	goto	u2410
  3646     0F78                     u2411:
  3647     0F78  2F7A               	goto	l1844
  3648     0F79                     u2410:
  3649     0F79  2F72               	goto	l1840
  3650     0F7A                     l1844:
  3651     0F7A  0865               	movf	___fldiv@aexp^(0+128),w
  3652     0F7B  1903               	btfsc	3,2
  3653     0F7C  2F7E               	goto	u2421
  3654     0F7D  2F7F               	goto	u2420
  3655     0F7E                     u2421:
  3656     0F7E  2FB0               	goto	l1854
  3657     0F7F                     u2420:
  3658     0F7F                     l1846:
  3659     0F7F  3001               	movlw	1
  3660     0F80  07D0               	addwf	___fldiv@b^(0+128),f
  3661     0F81  3000               	movlw	0
  3662     0F82  1803               	skipnc
  3663     0F83  3001               	movlw	1
  3664     0F84  07D1               	addwf	(___fldiv@b+1)^(0+128),f
  3665     0F85  3000               	movlw	0
  3666     0F86  1803               	skipnc
  3667     0F87  3001               	movlw	1
  3668     0F88  07D2               	addwf	(___fldiv@b+2)^(0+128),f
  3669     0F89  3000               	movlw	0
  3670     0F8A  1803               	skipnc
  3671     0F8B  3001               	movlw	1
  3672     0F8C  07D3               	addwf	(___fldiv@b+3)^(0+128),f
  3673     0F8D                     l1848:
  3674     0F8D  1C53               	btfss	(___fldiv@b+3)^(0+128),0
  3675     0F8E  2F90               	goto	u2431
  3676     0F8F  2F91               	goto	u2430
  3677     0F90                     u2431:
  3678     0F90  2FB0               	goto	l1854
  3679     0F91                     u2430:
  3680     0F91                     l1850:
  3681     0F91  0850               	movf	___fldiv@b^(0+128),w
  3682     0F92  00D4               	movwf	??___fldiv^(0+128)
  3683     0F93  0851               	movf	(___fldiv@b+1)^(0+128),w
  3684     0F94  00D5               	movwf	(??___fldiv^(0+128)+1)
  3685     0F95  0852               	movf	(___fldiv@b+2)^(0+128),w
  3686     0F96  00D6               	movwf	(??___fldiv^(0+128)+2)
  3687     0F97  0853               	movf	(___fldiv@b+3)^(0+128),w
  3688     0F98  00D7               	movwf	(??___fldiv^(0+128)+3)
  3689     0F99  3001               	movlw	1
  3690     0F9A  00D8               	movwf	(??___fldiv+4)^(0+128)
  3691     0F9B                     u2445:
  3692     0F9B  0D57               	rlf	(??___fldiv^(0+128)+3),w
  3693     0F9C  0CD7               	rrf	(??___fldiv^(0+128)+3),f
  3694     0F9D  0CD6               	rrf	(??___fldiv^(0+128)+2),f
  3695     0F9E  0CD5               	rrf	(??___fldiv^(0+128)+1),f
  3696     0F9F  0CD4               	rrf	??___fldiv^(0+128),f
  3697     0FA0                     u2440:
  3698     0FA0  0BD8               	decfsz	(??___fldiv+4)^(0+128),f
  3699     0FA1  2F9B               	goto	u2445
  3700     0FA2  0857               	movf	(??___fldiv+3)^(0+128),w
  3701     0FA3  00D3               	movwf	(___fldiv@b+3)^(0+128)
  3702     0FA4  0856               	movf	(??___fldiv+2)^(0+128),w
  3703     0FA5  00D2               	movwf	(___fldiv@b+2)^(0+128)
  3704     0FA6  0855               	movf	(??___fldiv+1)^(0+128),w
  3705     0FA7  00D1               	movwf	(___fldiv@b+1)^(0+128)
  3706     0FA8  0854               	movf	??___fldiv^(0+128),w
  3707     0FA9  00D0               	movwf	___fldiv@b^(0+128)
  3708     0FAA                     l1852:
  3709     0FAA  3001               	movlw	1
  3710     0FAB  07DE               	addwf	___fldiv@new_exp^(0+128),f
  3711     0FAC  1803               	skipnc
  3712     0FAD  0ADF               	incf	(___fldiv@new_exp+1)^(0+128),f
  3713     0FAE  3000               	movlw	0
  3714     0FAF  07DF               	addwf	(___fldiv@new_exp+1)^(0+128),f
  3715     0FB0                     l1854:
  3716     0FB0  085F               	movf	(___fldiv@new_exp+1)^(0+128),w
  3717     0FB1  3A80               	xorlw	128
  3718     0FB2  00FF               	movwf	btemp+1
  3719     0FB3  3080               	movlw	128
  3720     0FB4  027F               	subwf	btemp+1,w
  3721     0FB5  1D03               	skipz
  3722     0FB6  2FB9               	goto	u2455
  3723     0FB7  30FF               	movlw	255
  3724     0FB8  025E               	subwf	___fldiv@new_exp^(0+128),w
  3725     0FB9                     u2455:
  3726     0FB9  1C03               	skipc
  3727     0FBA  2FBC               	goto	u2451
  3728     0FBB  2FBD               	goto	u2450
  3729     0FBC                     u2451:
  3730     0FBC  2FCB               	goto	l1858
  3731     0FBD                     u2450:
  3732     0FBD                     l1856:
  3733     0FBD  30FF               	movlw	255
  3734     0FBE  1683               	bsf	3,5	;RP0=1, select bank1
  3735     0FBF  1303               	bcf	3,6	;RP1=0, select bank1
  3736     0FC0  00DE               	movwf	___fldiv@new_exp^(0+128)
  3737     0FC1  3000               	movlw	0
  3738     0FC2  00DF               	movwf	(___fldiv@new_exp^(0+128)+1)
  3739     0FC3  3000               	movlw	0
  3740     0FC4  00D3               	movwf	(___fldiv@b+3)^(0+128)
  3741     0FC5  3000               	movlw	0
  3742     0FC6  00D2               	movwf	(___fldiv@b+2)^(0+128)
  3743     0FC7  3000               	movlw	0
  3744     0FC8  00D1               	movwf	(___fldiv@b+1)^(0+128)
  3745     0FC9  3000               	movlw	0
  3746     0FCA  00D0               	movwf	___fldiv@b^(0+128)
  3747     0FCB                     l1858:
  3748     0FCB  1683               	bsf	3,5	;RP0=1, select bank1
  3749     0FCC  1303               	bcf	3,6	;RP1=0, select bank1
  3750     0FCD  085F               	movf	(___fldiv@new_exp+1)^(0+128),w
  3751     0FCE  3A80               	xorlw	128
  3752     0FCF  00FF               	movwf	btemp+1
  3753     0FD0  3080               	movlw	128
  3754     0FD1  027F               	subwf	btemp+1,w
  3755     0FD2  1D03               	skipz
  3756     0FD3  2FD6               	goto	u2465
  3757     0FD4  3001               	movlw	1
  3758     0FD5  025E               	subwf	___fldiv@new_exp^(0+128),w
  3759     0FD6                     u2465:
  3760     0FD6  1803               	skipnc
  3761     0FD7  2FD9               	goto	u2461
  3762     0FD8  2FDA               	goto	u2460
  3763     0FD9                     u2461:
  3764     0FD9  2FE7               	goto	l597
  3765     0FDA                     u2460:
  3766     0FDA                     l1860:
  3767     0FDA  1683               	bsf	3,5	;RP0=1, select bank1
  3768     0FDB  1303               	bcf	3,6	;RP1=0, select bank1
  3769     0FDC  01DE               	clrf	___fldiv@new_exp^(0+128)
  3770     0FDD  01DF               	clrf	(___fldiv@new_exp+1)^(0+128)
  3771     0FDE                     l1862:
  3772     0FDE  3000               	movlw	0
  3773     0FDF  00D3               	movwf	(___fldiv@b+3)^(0+128)
  3774     0FE0  3000               	movlw	0
  3775     0FE1  00D2               	movwf	(___fldiv@b+2)^(0+128)
  3776     0FE2  3000               	movlw	0
  3777     0FE3  00D1               	movwf	(___fldiv@b+1)^(0+128)
  3778     0FE4  3000               	movlw	0
  3779     0FE5  00D0               	movwf	___fldiv@b^(0+128)
  3780     0FE6                     l1864:
  3781     0FE6  01DD               	clrf	___fldiv@sign^(0+128)
  3782     0FE7                     l597:
  3783     0FE7  1683               	bsf	3,5	;RP0=1, select bank1
  3784     0FE8  1303               	bcf	3,6	;RP1=0, select bank1
  3785     0FE9  085E               	movf	___fldiv@new_exp^(0+128),w
  3786     0FEA  00E4               	movwf	___fldiv@bexp^(0+128)
  3787     0FEB                     l1866:
  3788     0FEB  1C64               	btfss	___fldiv@bexp^(0+128),0
  3789     0FEC  2FEE               	goto	u2471
  3790     0FED  2FEF               	goto	u2470
  3791     0FEE                     u2471:
  3792     0FEE  2FF1               	goto	l1870
  3793     0FEF                     u2470:
  3794     0FEF                     l1868:
  3795     0FEF  17D2               	bsf	(___fldiv@b^(0+128)+2),7
  3796     0FF0  2FF5               	goto	l599
  3797     0FF1                     l1870:
  3798     0FF1  307F               	movlw	127
  3799     0FF2  00D4               	movwf	??___fldiv^(0+128)
  3800     0FF3  0854               	movf	??___fldiv^(0+128),w
  3801     0FF4  05D2               	andwf	(___fldiv@b^(0+128)+2),f
  3802     0FF5                     l599:
  3803     0FF5  0864               	movf	___fldiv@bexp^(0+128),w
  3804     0FF6  00D4               	movwf	??___fldiv^(0+128)
  3805     0FF7  1003               	clrc
  3806     0FF8  0C54               	rrf	??___fldiv^(0+128),w
  3807     0FF9  00D3               	movwf	(___fldiv@b^(0+128)+3)
  3808     0FFA  085D               	movf	___fldiv@sign^(0+128),w
  3809     0FFB  00D4               	movwf	??___fldiv^(0+128)
  3810     0FFC  0854               	movf	??___fldiv^(0+128),w
  3811     0FFD  04D3               	iorwf	(___fldiv@b^(0+128)+3),f
  3812     0FFE  2E9B               	goto	l1778
  3813     0FFF                     l577:
  3814     0FFF  0008               	return
  3815     1000                     __end_of___fldiv:
  3816                           
  3817                           	psect	text8
  3818     09C2                     __ptext8:	
  3819 ;; *************** function ___xxtofl *****************
  3820 ;; Defined at:
  3821 ;;		line 10 in file "C:\Program Files\Microchip\xc8\v2.40\pic\sources\c90\common\xxtofl.c"
  3822 ;; Parameters:    Size  Location     Type
  3823 ;;  sign            1    wreg     unsigned char 
  3824 ;;  val             4    4[BANK1 ] long 
  3825 ;; Auto vars:     Size  Location     Type
  3826 ;;  sign            1   12[BANK1 ] unsigned char 
  3827 ;;  arg             4   14[BANK1 ] unsigned long 
  3828 ;;  exp             1   13[BANK1 ] unsigned char 
  3829 ;; Return value:  Size  Location     Type
  3830 ;;                  4    4[BANK1 ] unsigned char 
  3831 ;; Registers used:
  3832 ;;		wreg, status,2, status,0
  3833 ;; Tracked objects:
  3834 ;;		On entry : 0/0
  3835 ;;		On exit  : 0/0
  3836 ;;		Unchanged: 0/0
  3837 ;; Data sizes:     COMMON   BANK0   BANK1   BANK3   BANK2
  3838 ;;      Params:         0       0       4       0       0
  3839 ;;      Locals:         0       0       6       0       0
  3840 ;;      Temps:          0       0       4       0       0
  3841 ;;      Totals:         0       0      14       0       0
  3842 ;;Total ram usage:       14 bytes
  3843 ;; Hardware stack levels used: 1
  3844 ;; Hardware stack levels required when called: 4
  3845 ;; This function calls:
  3846 ;;		Nothing
  3847 ;; This function is called by:
  3848 ;;		_main
  3849 ;;		_Mapeo_Pot
  3850 ;;		_Duty_Pot
  3851 ;; This function uses a non-reentrant model
  3852 ;;
  3853                           
  3854     09C2                     ___xxtofl:	
  3855                           ;psect for function ___xxtofl
  3856                           
  3857                           
  3858                           ;incstack = 0
  3859                           ; Regs used in ___xxtofl: [wreg+status,2+status,0]
  3860                           ;___xxtofl@sign stored from wreg
  3861     09C2  1683               	bsf	3,5	;RP0=1, select bank1
  3862     09C3  1303               	bcf	3,6	;RP1=0, select bank1
  3863     09C4  00AC               	movwf	___xxtofl@sign^(0+128)
  3864     09C5                     l2462:
  3865     09C5  082C               	movf	___xxtofl@sign^(0+128),w
  3866     09C6  1903               	btfsc	3,2
  3867     09C7  29C9               	goto	u3711
  3868     09C8  29CA               	goto	u3710
  3869     09C9                     u3711:
  3870     09C9  29DE               	goto	l2468
  3871     09CA                     u3710:
  3872     09CA                     l2464:
  3873     09CA  1FA7               	btfss	(___xxtofl@val+3)^(0+128),7
  3874     09CB  29CD               	goto	u3721
  3875     09CC  29CE               	goto	u3720
  3876     09CD                     u3721:
  3877     09CD  29DE               	goto	l2468
  3878     09CE                     u3720:
  3879     09CE                     l2466:
  3880     09CE  0924               	comf	___xxtofl@val^(0+128),w
  3881     09CF  00AE               	movwf	___xxtofl@arg^(0+128)
  3882     09D0  0925               	comf	(___xxtofl@val^(0+128)+1),w
  3883     09D1  00AF               	movwf	(___xxtofl@arg+1)^(0+128)
  3884     09D2  0926               	comf	(___xxtofl@val^(0+128)+2),w
  3885     09D3  00B0               	movwf	(___xxtofl@arg+2)^(0+128)
  3886     09D4  0927               	comf	(___xxtofl@val^(0+128)+3),w
  3887     09D5  00B1               	movwf	(___xxtofl@arg+3)^(0+128)
  3888     09D6  0AAE               	incf	___xxtofl@arg^(0+128),f
  3889     09D7  1903               	skipnz
  3890     09D8  0AAF               	incf	(___xxtofl@arg+1)^(0+128),f
  3891     09D9  1903               	skipnz
  3892     09DA  0AB0               	incf	(___xxtofl@arg+2)^(0+128),f
  3893     09DB  1903               	skipnz
  3894     09DC  0AB1               	incf	(___xxtofl@arg+3)^(0+128),f
  3895     09DD  29E6               	goto	l659
  3896     09DE                     l2468:
  3897     09DE  0827               	movf	(___xxtofl@val+3)^(0+128),w
  3898     09DF  00B1               	movwf	(___xxtofl@arg+3)^(0+128)
  3899     09E0  0826               	movf	(___xxtofl@val+2)^(0+128),w
  3900     09E1  00B0               	movwf	(___xxtofl@arg+2)^(0+128)
  3901     09E2  0825               	movf	(___xxtofl@val+1)^(0+128),w
  3902     09E3  00AF               	movwf	(___xxtofl@arg+1)^(0+128)
  3903     09E4  0824               	movf	___xxtofl@val^(0+128),w
  3904     09E5  00AE               	movwf	___xxtofl@arg^(0+128)
  3905     09E6                     l659:
  3906     09E6  0827               	movf	(___xxtofl@val+3)^(0+128),w
  3907     09E7  0426               	iorwf	(___xxtofl@val+2)^(0+128),w
  3908     09E8  0425               	iorwf	(___xxtofl@val+1)^(0+128),w
  3909     09E9  0424               	iorwf	___xxtofl@val^(0+128),w
  3910     09EA  1D03               	skipz
  3911     09EB  29ED               	goto	u3731
  3912     09EC  29EE               	goto	u3730
  3913     09ED                     u3731:
  3914     09ED  29F7               	goto	l2474
  3915     09EE                     u3730:
  3916     09EE                     l2470:
  3917     09EE  3000               	movlw	0
  3918     09EF  00A7               	movwf	(?___xxtofl+3)^(0+128)
  3919     09F0  3000               	movlw	0
  3920     09F1  00A6               	movwf	(?___xxtofl+2)^(0+128)
  3921     09F2  3000               	movlw	0
  3922     09F3  00A5               	movwf	(?___xxtofl+1)^(0+128)
  3923     09F4  3000               	movlw	0
  3924     09F5  00A4               	movwf	?___xxtofl^(0+128)
  3925     09F6  2A7B               	goto	l661
  3926     09F7                     l2474:
  3927     09F7  3096               	movlw	150
  3928     09F8  00AD               	movwf	___xxtofl@exp^(0+128)
  3929     09F9  2A07               	goto	l2478
  3930     09FA                     l2476:
  3931     09FA  3001               	movlw	1
  3932     09FB  00A8               	movwf	??___xxtofl^(0+128)
  3933     09FC  0828               	movf	??___xxtofl^(0+128),w
  3934     09FD  07AD               	addwf	___xxtofl@exp^(0+128),f
  3935     09FE  3001               	movlw	1
  3936     09FF                     u3745:
  3937     09FF  1003               	clrc
  3938     0A00  0CB1               	rrf	(___xxtofl@arg+3)^(0+128),f
  3939     0A01  0CB0               	rrf	(___xxtofl@arg+2)^(0+128),f
  3940     0A02  0CAF               	rrf	(___xxtofl@arg+1)^(0+128),f
  3941     0A03  0CAE               	rrf	___xxtofl@arg^(0+128),f
  3942     0A04  3EFF               	addlw	-1
  3943     0A05  1D03               	skipz
  3944     0A06  29FF               	goto	u3745
  3945     0A07                     l2478:
  3946     0A07  30FE               	movlw	254
  3947     0A08  0531               	andwf	(___xxtofl@arg+3)^(0+128),w
  3948     0A09  1D03               	btfss	3,2
  3949     0A0A  2A0C               	goto	u3751
  3950     0A0B  2A0D               	goto	u3750
  3951     0A0C                     u3751:
  3952     0A0C  29FA               	goto	l2476
  3953     0A0D                     u3750:
  3954     0A0D  2A29               	goto	l665
  3955     0A0E                     l2480:
  3956     0A0E  3001               	movlw	1
  3957     0A0F  00A8               	movwf	??___xxtofl^(0+128)
  3958     0A10  0828               	movf	??___xxtofl^(0+128),w
  3959     0A11  07AD               	addwf	___xxtofl@exp^(0+128),f
  3960     0A12                     l2482:
  3961     0A12  3001               	movlw	1
  3962     0A13  07AE               	addwf	___xxtofl@arg^(0+128),f
  3963     0A14  3000               	movlw	0
  3964     0A15  1803               	skipnc
  3965     0A16  3001               	movlw	1
  3966     0A17  07AF               	addwf	(___xxtofl@arg+1)^(0+128),f
  3967     0A18  3000               	movlw	0
  3968     0A19  1803               	skipnc
  3969     0A1A  3001               	movlw	1
  3970     0A1B  07B0               	addwf	(___xxtofl@arg+2)^(0+128),f
  3971     0A1C  3000               	movlw	0
  3972     0A1D  1803               	skipnc
  3973     0A1E  3001               	movlw	1
  3974     0A1F  07B1               	addwf	(___xxtofl@arg+3)^(0+128),f
  3975     0A20                     l2484:
  3976     0A20  3001               	movlw	1
  3977     0A21                     u3765:
  3978     0A21  1003               	clrc
  3979     0A22  0CB1               	rrf	(___xxtofl@arg+3)^(0+128),f
  3980     0A23  0CB0               	rrf	(___xxtofl@arg+2)^(0+128),f
  3981     0A24  0CAF               	rrf	(___xxtofl@arg+1)^(0+128),f
  3982     0A25  0CAE               	rrf	___xxtofl@arg^(0+128),f
  3983     0A26  3EFF               	addlw	-1
  3984     0A27  1D03               	skipz
  3985     0A28  2A21               	goto	u3765
  3986     0A29                     l665:
  3987     0A29  30FF               	movlw	255
  3988     0A2A  0531               	andwf	(___xxtofl@arg+3)^(0+128),w
  3989     0A2B  1D03               	btfss	3,2
  3990     0A2C  2A2E               	goto	u3771
  3991     0A2D  2A2F               	goto	u3770
  3992     0A2E                     u3771:
  3993     0A2E  2A0E               	goto	l2480
  3994     0A2F                     u3770:
  3995     0A2F  2A3B               	goto	l2488
  3996     0A30                     l2486:
  3997     0A30  3001               	movlw	1
  3998     0A31  02AD               	subwf	___xxtofl@exp^(0+128),f
  3999     0A32  3001               	movlw	1
  4000     0A33  00A8               	movwf	??___xxtofl^(0+128)
  4001     0A34                     u3785:
  4002     0A34  1003               	clrc
  4003     0A35  0DAE               	rlf	___xxtofl@arg^(0+128),f
  4004     0A36  0DAF               	rlf	(___xxtofl@arg+1)^(0+128),f
  4005     0A37  0DB0               	rlf	(___xxtofl@arg+2)^(0+128),f
  4006     0A38  0DB1               	rlf	(___xxtofl@arg+3)^(0+128),f
  4007     0A39  0BA8               	decfsz	??___xxtofl^(0+128),f
  4008     0A3A  2A34               	goto	u3785
  4009     0A3B                     l2488:
  4010     0A3B  1BB0               	btfsc	(___xxtofl@arg+2)^(0+128),7
  4011     0A3C  2A3E               	goto	u3791
  4012     0A3D  2A3F               	goto	u3790
  4013     0A3E                     u3791:
  4014     0A3E  2A45               	goto	l672
  4015     0A3F                     u3790:
  4016     0A3F                     l2490:
  4017     0A3F  3002               	movlw	2
  4018     0A40  022D               	subwf	___xxtofl@exp^(0+128),w
  4019     0A41  1803               	skipnc
  4020     0A42  2A44               	goto	u3801
  4021     0A43  2A45               	goto	u3800
  4022     0A44                     u3801:
  4023     0A44  2A30               	goto	l2486
  4024     0A45                     u3800:
  4025     0A45                     l672:
  4026     0A45  182D               	btfsc	___xxtofl@exp^(0+128),0
  4027     0A46  2A48               	goto	u3811
  4028     0A47  2A49               	goto	u3810
  4029     0A48                     u3811:
  4030     0A48  2A51               	goto	l673
  4031     0A49                     u3810:
  4032     0A49                     l2492:
  4033     0A49  30FF               	movlw	255
  4034     0A4A  05AE               	andwf	___xxtofl@arg^(0+128),f
  4035     0A4B  30FF               	movlw	255
  4036     0A4C  05AF               	andwf	(___xxtofl@arg+1)^(0+128),f
  4037     0A4D  307F               	movlw	127
  4038     0A4E  05B0               	andwf	(___xxtofl@arg+2)^(0+128),f
  4039     0A4F  30FF               	movlw	255
  4040     0A50  05B1               	andwf	(___xxtofl@arg+3)^(0+128),f
  4041     0A51                     l673:
  4042     0A51  1003               	clrc
  4043     0A52  0CAD               	rrf	___xxtofl@exp^(0+128),f
  4044     0A53                     l2494:
  4045     0A53  082D               	movf	___xxtofl@exp^(0+128),w
  4046     0A54  00A8               	movwf	??___xxtofl^(0+128)
  4047     0A55  01A9               	clrf	(??___xxtofl^(0+128)+1)
  4048     0A56  01AA               	clrf	(??___xxtofl^(0+128)+2)
  4049     0A57  01AB               	clrf	(??___xxtofl^(0+128)+3)
  4050     0A58  3018               	movlw	24
  4051     0A59                     u3825:
  4052     0A59  1003               	clrc
  4053     0A5A  0DA8               	rlf	??___xxtofl^(0+128),f
  4054     0A5B  0DA9               	rlf	(??___xxtofl^(0+128)+1),f
  4055     0A5C  0DAA               	rlf	(??___xxtofl^(0+128)+2),f
  4056     0A5D  0DAB               	rlf	(??___xxtofl^(0+128)+3),f
  4057     0A5E                     u3820:
  4058     0A5E  3EFF               	addlw	-1
  4059     0A5F  1D03               	skipz
  4060     0A60  2A59               	goto	u3825
  4061     0A61  0828               	movf	??___xxtofl^(0+128),w
  4062     0A62  04AE               	iorwf	___xxtofl@arg^(0+128),f
  4063     0A63  0829               	movf	(??___xxtofl+1)^(0+128),w
  4064     0A64  04AF               	iorwf	(___xxtofl@arg+1)^(0+128),f
  4065     0A65  082A               	movf	(??___xxtofl+2)^(0+128),w
  4066     0A66  04B0               	iorwf	(___xxtofl@arg+2)^(0+128),f
  4067     0A67  082B               	movf	(??___xxtofl+3)^(0+128),w
  4068     0A68  04B1               	iorwf	(___xxtofl@arg+3)^(0+128),f
  4069     0A69                     l2496:
  4070     0A69  082C               	movf	___xxtofl@sign^(0+128),w
  4071     0A6A  1903               	btfsc	3,2
  4072     0A6B  2A6D               	goto	u3831
  4073     0A6C  2A6E               	goto	u3830
  4074     0A6D                     u3831:
  4075     0A6D  2A73               	goto	l2502
  4076     0A6E                     u3830:
  4077     0A6E                     l2498:
  4078     0A6E  1FA7               	btfss	(___xxtofl@val+3)^(0+128),7
  4079     0A6F  2A71               	goto	u3841
  4080     0A70  2A72               	goto	u3840
  4081     0A71                     u3841:
  4082     0A71  2A73               	goto	l2502
  4083     0A72                     u3840:
  4084     0A72                     l2500:
  4085     0A72  17B1               	bsf	(___xxtofl@arg^(0+128)+3),7
  4086     0A73                     l2502:
  4087     0A73  0831               	movf	(___xxtofl@arg+3)^(0+128),w
  4088     0A74  00A7               	movwf	(?___xxtofl+3)^(0+128)
  4089     0A75  0830               	movf	(___xxtofl@arg+2)^(0+128),w
  4090     0A76  00A6               	movwf	(?___xxtofl+2)^(0+128)
  4091     0A77  082F               	movf	(___xxtofl@arg+1)^(0+128),w
  4092     0A78  00A5               	movwf	(?___xxtofl+1)^(0+128)
  4093     0A79  082E               	movf	___xxtofl@arg^(0+128),w
  4094     0A7A  00A4               	movwf	?___xxtofl^(0+128)
  4095     0A7B                     l661:
  4096     0A7B  0008               	return
  4097     0A7C                     __end_of___xxtofl:
  4098                           
  4099                           	psect	text9
  4100     06B1                     __ptext9:	
  4101 ;; *************** function _isr *****************
  4102 ;; Defined at:
  4103 ;;		line 62 in file "PostLabC02.c"
  4104 ;; Parameters:    Size  Location     Type
  4105 ;;		None
  4106 ;; Auto vars:     Size  Location     Type
  4107 ;;		None
  4108 ;; Return value:  Size  Location     Type
  4109 ;;                  1    wreg      void 
  4110 ;; Registers used:
  4111 ;;		wreg, status,2, status,0, btemp+1, pclath, cstack
  4112 ;; Tracked objects:
  4113 ;;		On entry : 0/0
  4114 ;;		On exit  : 0/0
  4115 ;;		Unchanged: 0/0
  4116 ;; Data sizes:     COMMON   BANK0   BANK1   BANK3   BANK2
  4117 ;;      Params:         0       0       0       0       0
  4118 ;;      Locals:         0       0       4       0       0
  4119 ;;      Temps:          0       7       0       0       0
  4120 ;;      Totals:         0       7       4       0       0
  4121 ;;Total ram usage:       11 bytes
  4122 ;; Hardware stack levels used: 1
  4123 ;; Hardware stack levels required when called: 3
  4124 ;; This function calls:
  4125 ;;		_duty_cicle
  4126 ;;		i1_PWM_duty
  4127 ;;		i1___fldiv
  4128 ;;		i1___flmul
  4129 ;;		i1___xxtofl
  4130 ;; This function is called by:
  4131 ;;		Interrupt level 1
  4132 ;; This function uses a non-reentrant model
  4133 ;;
  4134                           
  4135     06B1                     _isr:	
  4136                           ;psect for function _isr
  4137                           
  4138     06B1                     i1l2570:
  4139                           
  4140                           ;PostLabC02.c: 63:     if (INTCONbits.T0IF){
  4141     06B1  1D0B               	btfss	11,2	;volatile
  4142     06B2  2EB4               	goto	u401_21
  4143     06B3  2EB5               	goto	u401_20
  4144     06B4                     u401_21:
  4145     06B4  2EC5               	goto	i1l2578
  4146     06B5                     u401_20:
  4147     06B5                     i1l2572:
  4148                           
  4149                           ;PostLabC02.c: 64:         duty_cicle(dutyPot);
  4150     06B5  1683               	bsf	3,5	;RP0=1, select bank1
  4151     06B6  1303               	bcf	3,6	;RP1=0, select bank1
  4152     06B7  0869               	movf	(_dutyPot+1)^(0+128),w
  4153     06B8  00F1               	movwf	duty_cicle@ciclo+1
  4154     06B9  0868               	movf	_dutyPot^(0+128),w
  4155     06BA  00F0               	movwf	duty_cicle@ciclo
  4156     06BB  160A  118A  25FB  120A  118A  	fcall	_duty_cicle
  4157     06C0                     i1l2574:
  4158                           
  4159                           ;PostLabC02.c: 65:         INTCONbits.T0IF = 0;
  4160     06C0  110B               	bcf	11,2	;volatile
  4161     06C1                     i1l2576:
  4162                           
  4163                           ;PostLabC02.c: 66:         TMR0 = 98;
  4164     06C1  3062               	movlw	98
  4165     06C2  1283               	bcf	3,5	;RP0=0, select bank0
  4166     06C3  1303               	bcf	3,6	;RP1=0, select bank0
  4167     06C4  0081               	movwf	1	;volatile
  4168     06C5                     i1l2578:
  4169                           
  4170                           ;PostLabC02.c: 68:     if (PIR1bits.ADIF) {
  4171     06C5  1F0C               	btfss	12,6	;volatile
  4172     06C6  2EC8               	goto	u402_21
  4173     06C7  2EC9               	goto	u402_20
  4174     06C8                     u402_21:
  4175     06C8  2FE0               	goto	i1l107
  4176     06C9                     u402_20:
  4177     06C9                     i1l2580:
  4178                           
  4179                           ;PostLabC02.c: 69:         if (ADCON0bits.CHS == 0b0000){
  4180     06C9  0C1F               	rrf	31,w	;volatile
  4181     06CA  00E8               	movwf	??_isr
  4182     06CB  0C68               	rrf	??_isr,w
  4183     06CC  390F               	andlw	15
  4184     06CD  3A00               	xorlw	0
  4185     06CE  1D03               	skipz
  4186     06CF  2ED1               	goto	u403_21
  4187     06D0  2ED2               	goto	u403_20
  4188     06D1                     u403_21:
  4189     06D1  2F48               	goto	i1l2584
  4190     06D2                     u403_20:
  4191     06D2                     i1l2582:
  4192                           
  4193                           ;PostLabC02.c: 70:             PWM_duty(1, 0.0025f*(ADRESH/255.0f));
  4194     06D2  303B               	movlw	59
  4195     06D3  00BD               	movwf	i1___flmul@b+3
  4196     06D4  3023               	movlw	35
  4197     06D5  00BC               	movwf	i1___flmul@b+2
  4198     06D6  30D7               	movlw	215
  4199     06D7  00BB               	movwf	i1___flmul@b+1
  4200     06D8  300A               	movlw	10
  4201     06D9  00BA               	movwf	i1___flmul@b
  4202     06DA  3043               	movlw	67
  4203     06DB  00A3               	movwf	i1___fldiv@a+3
  4204     06DC  307F               	movlw	127
  4205     06DD  00A2               	movwf	i1___fldiv@a+2
  4206     06DE  3000               	movlw	0
  4207     06DF  00A1               	movwf	i1___fldiv@a+1
  4208     06E0  3000               	movlw	0
  4209     06E1  00A0               	movwf	i1___fldiv@a
  4210     06E2  081E               	movf	30,w	;volatile
  4211     06E3  00E8               	movwf	??_isr
  4212     06E4  01E9               	clrf	??_isr+1
  4213     06E5  01EA               	clrf	??_isr+2
  4214     06E6  01EB               	clrf	??_isr+3
  4215     06E7  086B               	movf	??_isr+3,w
  4216     06E8  00F3               	movwf	i1___xxtofl@val+3
  4217     06E9  086A               	movf	??_isr+2,w
  4218     06EA  00F2               	movwf	i1___xxtofl@val+2
  4219     06EB  0869               	movf	??_isr+1,w
  4220     06EC  00F1               	movwf	i1___xxtofl@val+1
  4221     06ED  0868               	movf	??_isr,w
  4222     06EE  00F0               	movwf	i1___xxtofl@val
  4223     06EF  3001               	movlw	1
  4224     06F0  120A  158A  210A  120A  118A  	fcall	i1___xxtofl
  4225     06F5  0873               	movf	?i1___xxtofl+3,w
  4226     06F6  1283               	bcf	3,5	;RP0=0, select bank0
  4227     06F7  1303               	bcf	3,6	;RP1=0, select bank0
  4228     06F8  00A7               	movwf	i1___fldiv@b+3
  4229     06F9  0872               	movf	?i1___xxtofl+2,w
  4230     06FA  00A6               	movwf	i1___fldiv@b+2
  4231     06FB  0871               	movf	?i1___xxtofl+1,w
  4232     06FC  00A5               	movwf	i1___fldiv@b+1
  4233     06FD  0870               	movf	?i1___xxtofl,w
  4234     06FE  00A4               	movwf	i1___fldiv@b
  4235     06FF  120A  158A  245A  120A  118A  	fcall	i1___fldiv
  4236     0704  1283               	bcf	3,5	;RP0=0, select bank0
  4237     0705  1303               	bcf	3,6	;RP1=0, select bank0
  4238     0706  0823               	movf	?i1___fldiv+3,w
  4239     0707  00C1               	movwf	i1___flmul@a+3
  4240     0708  0822               	movf	?i1___fldiv+2,w
  4241     0709  00C0               	movwf	i1___flmul@a+2
  4242     070A  0821               	movf	?i1___fldiv+1,w
  4243     070B  00BF               	movwf	i1___flmul@a+1
  4244     070C  0820               	movf	?i1___fldiv,w
  4245     070D  00BE               	movwf	i1___flmul@a
  4246     070E  120A  118A  236C  120A  118A  	fcall	i1___flmul
  4247     0713  1283               	bcf	3,5	;RP0=0, select bank0
  4248     0714  1303               	bcf	3,6	;RP1=0, select bank0
  4249     0715  083D               	movf	?i1___flmul+3,w
  4250     0716  1683               	bsf	3,5	;RP0=1, select bank1
  4251     0717  1303               	bcf	3,6	;RP1=0, select bank1
  4252     0718  00A3               	movwf	(_isr$1218+3)^(0+128)
  4253     0719  1283               	bcf	3,5	;RP0=0, select bank0
  4254     071A  1303               	bcf	3,6	;RP1=0, select bank0
  4255     071B  083C               	movf	?i1___flmul+2,w
  4256     071C  1683               	bsf	3,5	;RP0=1, select bank1
  4257     071D  1303               	bcf	3,6	;RP1=0, select bank1
  4258     071E  00A2               	movwf	(_isr$1218+2)^(0+128)
  4259     071F  1283               	bcf	3,5	;RP0=0, select bank0
  4260     0720  1303               	bcf	3,6	;RP1=0, select bank0
  4261     0721  083B               	movf	?i1___flmul+1,w
  4262     0722  1683               	bsf	3,5	;RP0=1, select bank1
  4263     0723  1303               	bcf	3,6	;RP1=0, select bank1
  4264     0724  00A1               	movwf	(_isr$1218+1)^(0+128)
  4265     0725  1283               	bcf	3,5	;RP0=0, select bank0
  4266     0726  1303               	bcf	3,6	;RP1=0, select bank0
  4267     0727  083A               	movf	?i1___flmul,w
  4268     0728  1683               	bsf	3,5	;RP0=1, select bank1
  4269     0729  1303               	bcf	3,6	;RP1=0, select bank1
  4270     072A  00A0               	movwf	_isr$1218^(0+128)
  4271                           
  4272                           ;PostLabC02.c: 70:             PWM_duty(1, 0.0025f*(ADRESH/255.0f));
  4273     072B  0823               	movf	(_isr$1218+3)^(0+128),w
  4274     072C  1283               	bcf	3,5	;RP0=0, select bank0
  4275     072D  1303               	bcf	3,6	;RP1=0, select bank0
  4276     072E  00E1               	movwf	i1PWM_duty@duty+3
  4277     072F  1683               	bsf	3,5	;RP0=1, select bank1
  4278     0730  1303               	bcf	3,6	;RP1=0, select bank1
  4279     0731  0822               	movf	(_isr$1218+2)^(0+128),w
  4280     0732  1283               	bcf	3,5	;RP0=0, select bank0
  4281     0733  1303               	bcf	3,6	;RP1=0, select bank0
  4282     0734  00E0               	movwf	i1PWM_duty@duty+2
  4283     0735  1683               	bsf	3,5	;RP0=1, select bank1
  4284     0736  1303               	bcf	3,6	;RP1=0, select bank1
  4285     0737  0821               	movf	(_isr$1218+1)^(0+128),w
  4286     0738  1283               	bcf	3,5	;RP0=0, select bank0
  4287     0739  1303               	bcf	3,6	;RP1=0, select bank0
  4288     073A  00DF               	movwf	i1PWM_duty@duty+1
  4289     073B  1683               	bsf	3,5	;RP0=1, select bank1
  4290     073C  1303               	bcf	3,6	;RP1=0, select bank1
  4291     073D  0820               	movf	_isr$1218^(0+128),w
  4292     073E  1283               	bcf	3,5	;RP0=0, select bank0
  4293     073F  1303               	bcf	3,6	;RP1=0, select bank0
  4294     0740  00DE               	movwf	i1PWM_duty@duty
  4295     0741  3001               	movlw	1
  4296     0742  120A  158A  206D  120A  118A  	fcall	i1_PWM_duty
  4297                           
  4298                           ;PostLabC02.c: 71:         }
  4299     0747  2FDD               	goto	i1l2592
  4300     0748                     i1l2584:
  4301     0748  0C1F               	rrf	31,w	;volatile
  4302     0749  00E8               	movwf	??_isr
  4303     074A  0C68               	rrf	??_isr,w
  4304     074B  390F               	andlw	15
  4305     074C  3A04               	xorlw	4
  4306     074D  1D03               	skipz
  4307     074E  2F50               	goto	u404_21
  4308     074F  2F51               	goto	u404_20
  4309     0750                     u404_21:
  4310     0750  2FC7               	goto	i1l2588
  4311     0751                     u404_20:
  4312     0751                     i1l2586:
  4313                           
  4314                           ;PostLabC02.c: 73:             PWM_duty(2, 0.0025f*(ADRESH/255.0f));
  4315     0751  303B               	movlw	59
  4316     0752  00BD               	movwf	i1___flmul@b+3
  4317     0753  3023               	movlw	35
  4318     0754  00BC               	movwf	i1___flmul@b+2
  4319     0755  30D7               	movlw	215
  4320     0756  00BB               	movwf	i1___flmul@b+1
  4321     0757  300A               	movlw	10
  4322     0758  00BA               	movwf	i1___flmul@b
  4323     0759  3043               	movlw	67
  4324     075A  00A3               	movwf	i1___fldiv@a+3
  4325     075B  307F               	movlw	127
  4326     075C  00A2               	movwf	i1___fldiv@a+2
  4327     075D  3000               	movlw	0
  4328     075E  00A1               	movwf	i1___fldiv@a+1
  4329     075F  3000               	movlw	0
  4330     0760  00A0               	movwf	i1___fldiv@a
  4331     0761  081E               	movf	30,w	;volatile
  4332     0762  00E8               	movwf	??_isr
  4333     0763  01E9               	clrf	??_isr+1
  4334     0764  01EA               	clrf	??_isr+2
  4335     0765  01EB               	clrf	??_isr+3
  4336     0766  086B               	movf	??_isr+3,w
  4337     0767  00F3               	movwf	i1___xxtofl@val+3
  4338     0768  086A               	movf	??_isr+2,w
  4339     0769  00F2               	movwf	i1___xxtofl@val+2
  4340     076A  0869               	movf	??_isr+1,w
  4341     076B  00F1               	movwf	i1___xxtofl@val+1
  4342     076C  0868               	movf	??_isr,w
  4343     076D  00F0               	movwf	i1___xxtofl@val
  4344     076E  3001               	movlw	1
  4345     076F  120A  158A  210A  120A  118A  	fcall	i1___xxtofl
  4346     0774  0873               	movf	?i1___xxtofl+3,w
  4347     0775  1283               	bcf	3,5	;RP0=0, select bank0
  4348     0776  1303               	bcf	3,6	;RP1=0, select bank0
  4349     0777  00A7               	movwf	i1___fldiv@b+3
  4350     0778  0872               	movf	?i1___xxtofl+2,w
  4351     0779  00A6               	movwf	i1___fldiv@b+2
  4352     077A  0871               	movf	?i1___xxtofl+1,w
  4353     077B  00A5               	movwf	i1___fldiv@b+1
  4354     077C  0870               	movf	?i1___xxtofl,w
  4355     077D  00A4               	movwf	i1___fldiv@b
  4356     077E  120A  158A  245A  120A  118A  	fcall	i1___fldiv
  4357     0783  1283               	bcf	3,5	;RP0=0, select bank0
  4358     0784  1303               	bcf	3,6	;RP1=0, select bank0
  4359     0785  0823               	movf	?i1___fldiv+3,w
  4360     0786  00C1               	movwf	i1___flmul@a+3
  4361     0787  0822               	movf	?i1___fldiv+2,w
  4362     0788  00C0               	movwf	i1___flmul@a+2
  4363     0789  0821               	movf	?i1___fldiv+1,w
  4364     078A  00BF               	movwf	i1___flmul@a+1
  4365     078B  0820               	movf	?i1___fldiv,w
  4366     078C  00BE               	movwf	i1___flmul@a
  4367     078D  120A  118A  236C  120A  118A  	fcall	i1___flmul
  4368     0792  1283               	bcf	3,5	;RP0=0, select bank0
  4369     0793  1303               	bcf	3,6	;RP1=0, select bank0
  4370     0794  083D               	movf	?i1___flmul+3,w
  4371     0795  1683               	bsf	3,5	;RP0=1, select bank1
  4372     0796  1303               	bcf	3,6	;RP1=0, select bank1
  4373     0797  00A3               	movwf	(_isr$1218+3)^(0+128)
  4374     0798  1283               	bcf	3,5	;RP0=0, select bank0
  4375     0799  1303               	bcf	3,6	;RP1=0, select bank0
  4376     079A  083C               	movf	?i1___flmul+2,w
  4377     079B  1683               	bsf	3,5	;RP0=1, select bank1
  4378     079C  1303               	bcf	3,6	;RP1=0, select bank1
  4379     079D  00A2               	movwf	(_isr$1218+2)^(0+128)
  4380     079E  1283               	bcf	3,5	;RP0=0, select bank0
  4381     079F  1303               	bcf	3,6	;RP1=0, select bank0
  4382     07A0  083B               	movf	?i1___flmul+1,w
  4383     07A1  1683               	bsf	3,5	;RP0=1, select bank1
  4384     07A2  1303               	bcf	3,6	;RP1=0, select bank1
  4385     07A3  00A1               	movwf	(_isr$1218+1)^(0+128)
  4386     07A4  1283               	bcf	3,5	;RP0=0, select bank0
  4387     07A5  1303               	bcf	3,6	;RP1=0, select bank0
  4388     07A6  083A               	movf	?i1___flmul,w
  4389     07A7  1683               	bsf	3,5	;RP0=1, select bank1
  4390     07A8  1303               	bcf	3,6	;RP1=0, select bank1
  4391     07A9  00A0               	movwf	_isr$1218^(0+128)
  4392                           
  4393                           ;PostLabC02.c: 73:             PWM_duty(2, 0.0025f*(ADRESH/255.0f));
  4394     07AA  0823               	movf	(_isr$1218+3)^(0+128),w
  4395     07AB  1283               	bcf	3,5	;RP0=0, select bank0
  4396     07AC  1303               	bcf	3,6	;RP1=0, select bank0
  4397     07AD  00E1               	movwf	i1PWM_duty@duty+3
  4398     07AE  1683               	bsf	3,5	;RP0=1, select bank1
  4399     07AF  1303               	bcf	3,6	;RP1=0, select bank1
  4400     07B0  0822               	movf	(_isr$1218+2)^(0+128),w
  4401     07B1  1283               	bcf	3,5	;RP0=0, select bank0
  4402     07B2  1303               	bcf	3,6	;RP1=0, select bank0
  4403     07B3  00E0               	movwf	i1PWM_duty@duty+2
  4404     07B4  1683               	bsf	3,5	;RP0=1, select bank1
  4405     07B5  1303               	bcf	3,6	;RP1=0, select bank1
  4406     07B6  0821               	movf	(_isr$1218+1)^(0+128),w
  4407     07B7  1283               	bcf	3,5	;RP0=0, select bank0
  4408     07B8  1303               	bcf	3,6	;RP1=0, select bank0
  4409     07B9  00DF               	movwf	i1PWM_duty@duty+1
  4410     07BA  1683               	bsf	3,5	;RP0=1, select bank1
  4411     07BB  1303               	bcf	3,6	;RP1=0, select bank1
  4412     07BC  0820               	movf	_isr$1218^(0+128),w
  4413     07BD  1283               	bcf	3,5	;RP0=0, select bank0
  4414     07BE  1303               	bcf	3,6	;RP1=0, select bank0
  4415     07BF  00DE               	movwf	i1PWM_duty@duty
  4416     07C0  3002               	movlw	2
  4417     07C1  120A  158A  206D  120A  118A  	fcall	i1_PWM_duty
  4418                           
  4419                           ;PostLabC02.c: 74:         }
  4420     07C6  2FDD               	goto	i1l2592
  4421     07C7                     i1l2588:
  4422     07C7  0C1F               	rrf	31,w	;volatile
  4423     07C8  00E8               	movwf	??_isr
  4424     07C9  0C68               	rrf	??_isr,w
  4425     07CA  390F               	andlw	15
  4426     07CB  3A02               	xorlw	2
  4427     07CC  1D03               	skipz
  4428     07CD  2FCF               	goto	u405_21
  4429     07CE  2FD0               	goto	u405_20
  4430     07CF                     u405_21:
  4431     07CF  2FDD               	goto	i1l2592
  4432     07D0                     u405_20:
  4433     07D0                     i1l2590:
  4434                           
  4435                           ;PostLabC02.c: 76:             potenciometro = ADRESH;
  4436     07D0  081E               	movf	30,w	;volatile
  4437     07D1  00E8               	movwf	??_isr
  4438     07D2  01E9               	clrf	??_isr+1
  4439     07D3  0868               	movf	??_isr,w
  4440     07D4  1683               	bsf	3,5	;RP0=1, select bank3
  4441     07D5  1703               	bsf	3,6	;RP1=1, select bank3
  4442     07D6  00AA               	movwf	_potenciometro^(0+384)
  4443     07D7  1283               	bcf	3,5	;RP0=0, select bank0
  4444     07D8  1303               	bcf	3,6	;RP1=0, select bank0
  4445     07D9  0869               	movf	??_isr+1,w
  4446     07DA  1683               	bsf	3,5	;RP0=1, select bank3
  4447     07DB  1703               	bsf	3,6	;RP1=1, select bank3
  4448     07DC  00AB               	movwf	(_potenciometro+1)^(0+384)
  4449     07DD                     i1l2592:
  4450                           
  4451                           ;PostLabC02.c: 79:         PIR1bits.ADIF = 0;
  4452     07DD  1283               	bcf	3,5	;RP0=0, select bank0
  4453     07DE  1303               	bcf	3,6	;RP1=0, select bank0
  4454     07DF  130C               	bcf	12,6	;volatile
  4455     07E0                     i1l107:
  4456     07E0  086E               	movf	??_isr+6,w
  4457     07E1  00FF               	movwf	btemp+1
  4458     07E2  086D               	movf	??_isr+5,w
  4459     07E3  008A               	movwf	10
  4460     07E4  0E6C               	swapf	??_isr+4,w
  4461     07E5  0083               	movwf	3
  4462     07E6  0EFE               	swapf	btemp,f
  4463     07E7  0E7E               	swapf	btemp,w
  4464     07E8  0009               	retfie
  4465     07E9                     __end_of_isr:
  4466                           
  4467                           	psect	intentry
  4468     0004                     __pintentry:	
  4469                           ;incstack = 0
  4470                           ; Regs used in _isr: [wreg+status,2+status,0+btemp+1+pclath+cstack]
  4471                           
  4472     0004                     interrupt_function:
  4473     007E                     saved_w	set	btemp
  4474     0004  00FE               	movwf	btemp
  4475     0005  0E03               	swapf	3,w
  4476     0006  1283               	bcf	3,5	;RP0=0, select bank0
  4477     0007  1303               	bcf	3,6	;RP1=0, select bank0
  4478     0008  00EC               	movwf	??_isr+4
  4479     0009  080A               	movf	10,w
  4480     000A  00ED               	movwf	??_isr+5
  4481     000B  087F               	movf	btemp+1,w
  4482     000C  00EE               	movwf	??_isr+6
  4483     000D  120A  118A  2EB1   	ljmp	_isr
  4484                           
  4485                           	psect	text10
  4486     090A                     __ptext10:	
  4487 ;; *************** function i1___xxtofl *****************
  4488 ;; Defined at:
  4489 ;;		line 10 in file "C:\Program Files\Microchip\xc8\v2.40\pic\sources\c90\common\xxtofl.c"
  4490 ;; Parameters:    Size  Location     Type
  4491 ;;  sign            1    wreg     unsigned char 
  4492 ;;  val             4    0[COMMON] long 
  4493 ;; Auto vars:     Size  Location     Type
  4494 ;;  sign            1    8[COMMON] unsigned char 
  4495 ;;  arg             4   10[COMMON] unsigned long 
  4496 ;;  exp             1    9[COMMON] unsigned char 
  4497 ;; Return value:  Size  Location     Type
  4498 ;;                  4    0[COMMON] unsigned char 
  4499 ;; Registers used:
  4500 ;;		wreg, status,2, status,0
  4501 ;; Tracked objects:
  4502 ;;		On entry : 0/0
  4503 ;;		On exit  : 0/0
  4504 ;;		Unchanged: 0/0
  4505 ;; Data sizes:     COMMON   BANK0   BANK1   BANK3   BANK2
  4506 ;;      Params:         4       0       0       0       0
  4507 ;;      Locals:         6       0       0       0       0
  4508 ;;      Temps:          4       0       0       0       0
  4509 ;;      Totals:        14       0       0       0       0
  4510 ;;Total ram usage:       14 bytes
  4511 ;; Hardware stack levels used: 1
  4512 ;; This function calls:
  4513 ;;		Nothing
  4514 ;; This function is called by:
  4515 ;;		_isr
  4516 ;; This function uses a non-reentrant model
  4517 ;;
  4518                           
  4519     090A                     i1___xxtofl:	
  4520                           ;psect for function i1___xxtofl
  4521                           
  4522                           
  4523                           ;incstack = 0
  4524                           ; Regs used in i1___xxtofl: [wreg+status,2+status,0]
  4525                           ;i1___xxtofl@sign stored from wreg
  4526     090A  00F8               	movwf	i1___xxtofl@sign
  4527     090B                     i1l2526:
  4528     090B  0878               	movf	i1___xxtofl@sign,w
  4529     090C  1903               	btfsc	3,2
  4530     090D  290F               	goto	u387_21
  4531     090E  2910               	goto	u387_20
  4532     090F                     u387_21:
  4533     090F  2924               	goto	i1l2532
  4534     0910                     u387_20:
  4535     0910                     i1l2528:
  4536     0910  1FF3               	btfss	i1___xxtofl@val+3,7
  4537     0911  2913               	goto	u388_21
  4538     0912  2914               	goto	u388_20
  4539     0913                     u388_21:
  4540     0913  2924               	goto	i1l2532
  4541     0914                     u388_20:
  4542     0914                     i1l2530:
  4543     0914  0970               	comf	i1___xxtofl@val,w
  4544     0915  00FA               	movwf	i1___xxtofl@arg
  4545     0916  0971               	comf	i1___xxtofl@val+1,w
  4546     0917  00FB               	movwf	i1___xxtofl@arg+1
  4547     0918  0972               	comf	i1___xxtofl@val+2,w
  4548     0919  00FC               	movwf	i1___xxtofl@arg+2
  4549     091A  0973               	comf	i1___xxtofl@val+3,w
  4550     091B  00FD               	movwf	i1___xxtofl@arg+3
  4551     091C  0AFA               	incf	i1___xxtofl@arg,f
  4552     091D  1903               	skipnz
  4553     091E  0AFB               	incf	i1___xxtofl@arg+1,f
  4554     091F  1903               	skipnz
  4555     0920  0AFC               	incf	i1___xxtofl@arg+2,f
  4556     0921  1903               	skipnz
  4557     0922  0AFD               	incf	i1___xxtofl@arg+3,f
  4558     0923  292C               	goto	i1l659
  4559     0924                     i1l2532:
  4560     0924  0873               	movf	i1___xxtofl@val+3,w
  4561     0925  00FD               	movwf	i1___xxtofl@arg+3
  4562     0926  0872               	movf	i1___xxtofl@val+2,w
  4563     0927  00FC               	movwf	i1___xxtofl@arg+2
  4564     0928  0871               	movf	i1___xxtofl@val+1,w
  4565     0929  00FB               	movwf	i1___xxtofl@arg+1
  4566     092A  0870               	movf	i1___xxtofl@val,w
  4567     092B  00FA               	movwf	i1___xxtofl@arg
  4568     092C                     i1l659:
  4569     092C  0873               	movf	i1___xxtofl@val+3,w
  4570     092D  0472               	iorwf	i1___xxtofl@val+2,w
  4571     092E  0471               	iorwf	i1___xxtofl@val+1,w
  4572     092F  0470               	iorwf	i1___xxtofl@val,w
  4573     0930  1D03               	skipz
  4574     0931  2933               	goto	u389_21
  4575     0932  2934               	goto	u389_20
  4576     0933                     u389_21:
  4577     0933  293D               	goto	i1l2538
  4578     0934                     u389_20:
  4579     0934                     i1l2534:
  4580     0934  3000               	movlw	0
  4581     0935  00F3               	movwf	?i1___xxtofl+3
  4582     0936  3000               	movlw	0
  4583     0937  00F2               	movwf	?i1___xxtofl+2
  4584     0938  3000               	movlw	0
  4585     0939  00F1               	movwf	?i1___xxtofl+1
  4586     093A  3000               	movlw	0
  4587     093B  00F0               	movwf	?i1___xxtofl
  4588     093C  29C1               	goto	i1l661
  4589     093D                     i1l2538:
  4590     093D  3096               	movlw	150
  4591     093E  00F9               	movwf	i1___xxtofl@exp
  4592     093F  294D               	goto	i1l2542
  4593     0940                     i1l2540:
  4594     0940  3001               	movlw	1
  4595     0941  00F4               	movwf	??i1___xxtofl
  4596     0942  0874               	movf	??i1___xxtofl,w
  4597     0943  07F9               	addwf	i1___xxtofl@exp,f
  4598     0944  3001               	movlw	1
  4599     0945                     u390_25:
  4600     0945  1003               	clrc
  4601     0946  0CFD               	rrf	i1___xxtofl@arg+3,f
  4602     0947  0CFC               	rrf	i1___xxtofl@arg+2,f
  4603     0948  0CFB               	rrf	i1___xxtofl@arg+1,f
  4604     0949  0CFA               	rrf	i1___xxtofl@arg,f
  4605     094A  3EFF               	addlw	-1
  4606     094B  1D03               	skipz
  4607     094C  2945               	goto	u390_25
  4608     094D                     i1l2542:
  4609     094D  30FE               	movlw	254
  4610     094E  057D               	andwf	i1___xxtofl@arg+3,w
  4611     094F  1D03               	btfss	3,2
  4612     0950  2952               	goto	u391_21
  4613     0951  2953               	goto	u391_20
  4614     0952                     u391_21:
  4615     0952  2940               	goto	i1l2540
  4616     0953                     u391_20:
  4617     0953  296F               	goto	i1l665
  4618     0954                     i1l2544:
  4619     0954  3001               	movlw	1
  4620     0955  00F4               	movwf	??i1___xxtofl
  4621     0956  0874               	movf	??i1___xxtofl,w
  4622     0957  07F9               	addwf	i1___xxtofl@exp,f
  4623     0958                     i1l2546:
  4624     0958  3001               	movlw	1
  4625     0959  07FA               	addwf	i1___xxtofl@arg,f
  4626     095A  3000               	movlw	0
  4627     095B  1803               	skipnc
  4628     095C  3001               	movlw	1
  4629     095D  07FB               	addwf	i1___xxtofl@arg+1,f
  4630     095E  3000               	movlw	0
  4631     095F  1803               	skipnc
  4632     0960  3001               	movlw	1
  4633     0961  07FC               	addwf	i1___xxtofl@arg+2,f
  4634     0962  3000               	movlw	0
  4635     0963  1803               	skipnc
  4636     0964  3001               	movlw	1
  4637     0965  07FD               	addwf	i1___xxtofl@arg+3,f
  4638     0966                     i1l2548:
  4639     0966  3001               	movlw	1
  4640     0967                     u392_25:
  4641     0967  1003               	clrc
  4642     0968  0CFD               	rrf	i1___xxtofl@arg+3,f
  4643     0969  0CFC               	rrf	i1___xxtofl@arg+2,f
  4644     096A  0CFB               	rrf	i1___xxtofl@arg+1,f
  4645     096B  0CFA               	rrf	i1___xxtofl@arg,f
  4646     096C  3EFF               	addlw	-1
  4647     096D  1D03               	skipz
  4648     096E  2967               	goto	u392_25
  4649     096F                     i1l665:
  4650     096F  30FF               	movlw	255
  4651     0970  057D               	andwf	i1___xxtofl@arg+3,w
  4652     0971  1D03               	btfss	3,2
  4653     0972  2974               	goto	u393_21
  4654     0973  2975               	goto	u393_20
  4655     0974                     u393_21:
  4656     0974  2954               	goto	i1l2544
  4657     0975                     u393_20:
  4658     0975  2981               	goto	i1l2552
  4659     0976                     i1l2550:
  4660     0976  3001               	movlw	1
  4661     0977  02F9               	subwf	i1___xxtofl@exp,f
  4662     0978  3001               	movlw	1
  4663     0979  00F4               	movwf	??i1___xxtofl
  4664     097A                     u394_25:
  4665     097A  1003               	clrc
  4666     097B  0DFA               	rlf	i1___xxtofl@arg,f
  4667     097C  0DFB               	rlf	i1___xxtofl@arg+1,f
  4668     097D  0DFC               	rlf	i1___xxtofl@arg+2,f
  4669     097E  0DFD               	rlf	i1___xxtofl@arg+3,f
  4670     097F  0BF4               	decfsz	??i1___xxtofl,f
  4671     0980  297A               	goto	u394_25
  4672     0981                     i1l2552:
  4673     0981  1BFC               	btfsc	i1___xxtofl@arg+2,7
  4674     0982  2984               	goto	u395_21
  4675     0983  2985               	goto	u395_20
  4676     0984                     u395_21:
  4677     0984  298B               	goto	i1l672
  4678     0985                     u395_20:
  4679     0985                     i1l2554:
  4680     0985  3002               	movlw	2
  4681     0986  0279               	subwf	i1___xxtofl@exp,w
  4682     0987  1803               	skipnc
  4683     0988  298A               	goto	u396_21
  4684     0989  298B               	goto	u396_20
  4685     098A                     u396_21:
  4686     098A  2976               	goto	i1l2550
  4687     098B                     u396_20:
  4688     098B                     i1l672:
  4689     098B  1879               	btfsc	i1___xxtofl@exp,0
  4690     098C  298E               	goto	u397_21
  4691     098D  298F               	goto	u397_20
  4692     098E                     u397_21:
  4693     098E  2997               	goto	i1l673
  4694     098F                     u397_20:
  4695     098F                     i1l2556:
  4696     098F  30FF               	movlw	255
  4697     0990  05FA               	andwf	i1___xxtofl@arg,f
  4698     0991  30FF               	movlw	255
  4699     0992  05FB               	andwf	i1___xxtofl@arg+1,f
  4700     0993  307F               	movlw	127
  4701     0994  05FC               	andwf	i1___xxtofl@arg+2,f
  4702     0995  30FF               	movlw	255
  4703     0996  05FD               	andwf	i1___xxtofl@arg+3,f
  4704     0997                     i1l673:
  4705     0997  1003               	clrc
  4706     0998  0CF9               	rrf	i1___xxtofl@exp,f
  4707     0999                     i1l2558:
  4708     0999  0879               	movf	i1___xxtofl@exp,w
  4709     099A  00F4               	movwf	??i1___xxtofl
  4710     099B  01F5               	clrf	??i1___xxtofl+1
  4711     099C  01F6               	clrf	??i1___xxtofl+2
  4712     099D  01F7               	clrf	??i1___xxtofl+3
  4713     099E  3018               	movlw	24
  4714     099F                     u398_25:
  4715     099F  1003               	clrc
  4716     09A0  0DF4               	rlf	??i1___xxtofl,f
  4717     09A1  0DF5               	rlf	??i1___xxtofl+1,f
  4718     09A2  0DF6               	rlf	??i1___xxtofl+2,f
  4719     09A3  0DF7               	rlf	??i1___xxtofl+3,f
  4720     09A4                     u398_20:
  4721     09A4  3EFF               	addlw	-1
  4722     09A5  1D03               	skipz
  4723     09A6  299F               	goto	u398_25
  4724     09A7  0874               	movf	??i1___xxtofl,w
  4725     09A8  04FA               	iorwf	i1___xxtofl@arg,f
  4726     09A9  0875               	movf	??i1___xxtofl+1,w
  4727     09AA  04FB               	iorwf	i1___xxtofl@arg+1,f
  4728     09AB  0876               	movf	??i1___xxtofl+2,w
  4729     09AC  04FC               	iorwf	i1___xxtofl@arg+2,f
  4730     09AD  0877               	movf	??i1___xxtofl+3,w
  4731     09AE  04FD               	iorwf	i1___xxtofl@arg+3,f
  4732     09AF                     i1l2560:
  4733     09AF  0878               	movf	i1___xxtofl@sign,w
  4734     09B0  1903               	btfsc	3,2
  4735     09B1  29B3               	goto	u399_21
  4736     09B2  29B4               	goto	u399_20
  4737     09B3                     u399_21:
  4738     09B3  29B9               	goto	i1l2566
  4739     09B4                     u399_20:
  4740     09B4                     i1l2562:
  4741     09B4  1FF3               	btfss	i1___xxtofl@val+3,7
  4742     09B5  29B7               	goto	u400_21
  4743     09B6  29B8               	goto	u400_20
  4744     09B7                     u400_21:
  4745     09B7  29B9               	goto	i1l2566
  4746     09B8                     u400_20:
  4747     09B8                     i1l2564:
  4748     09B8  17FD               	bsf	i1___xxtofl@arg+3,7
  4749     09B9                     i1l2566:
  4750     09B9  087D               	movf	i1___xxtofl@arg+3,w
  4751     09BA  00F3               	movwf	?i1___xxtofl+3
  4752     09BB  087C               	movf	i1___xxtofl@arg+2,w
  4753     09BC  00F2               	movwf	?i1___xxtofl+2
  4754     09BD  087B               	movf	i1___xxtofl@arg+1,w
  4755     09BE  00F1               	movwf	?i1___xxtofl+1
  4756     09BF  087A               	movf	i1___xxtofl@arg,w
  4757     09C0  00F0               	movwf	?i1___xxtofl
  4758     09C1                     i1l661:
  4759     09C1  0008               	return
  4760     09C2                     __end_ofi1___xxtofl:
  4761                           
  4762                           	psect	text11
  4763     086D                     __ptext11:	
  4764 ;; *************** function i1_PWM_duty *****************
  4765 ;; Defined at:
  4766 ;;		line 34 in file "PWM_SERVO.c"
  4767 ;; Parameters:    Size  Location     Type
  4768 ;;  canal           1    wreg     unsigned char 
  4769 ;;  duty            4   62[BANK0 ] float 
  4770 ;; Auto vars:     Size  Location     Type
  4771 ;;  canal           1   69[BANK0 ] unsigned char 
  4772 ;;  particion       2   70[BANK0 ] int 
  4773 ;; Return value:  Size  Location     Type
  4774 ;;                  1    wreg      void 
  4775 ;; Registers used:
  4776 ;;		wreg, status,2, status,0, btemp+1, pclath, cstack
  4777 ;; Tracked objects:
  4778 ;;		On entry : 0/0
  4779 ;;		On exit  : 0/0
  4780 ;;		Unchanged: 0/0
  4781 ;; Data sizes:     COMMON   BANK0   BANK1   BANK3   BANK2
  4782 ;;      Params:         0       4       0       0       0
  4783 ;;      Locals:         0       3       0       0       0
  4784 ;;      Temps:          0       3       0       0       0
  4785 ;;      Totals:         0      10       0       0       0
  4786 ;;Total ram usage:       10 bytes
  4787 ;; Hardware stack levels used: 1
  4788 ;; Hardware stack levels required when called: 2
  4789 ;; This function calls:
  4790 ;;		i1___fldiv
  4791 ;;		i1___flmul
  4792 ;;		i1___fltol
  4793 ;; This function is called by:
  4794 ;;		_isr
  4795 ;; This function uses a non-reentrant model
  4796 ;;
  4797                           
  4798     086D                     i1_PWM_duty:	
  4799                           ;psect for function i1_PWM_duty
  4800                           
  4801                           
  4802                           ;incstack = 0
  4803                           ; Regs used in i1_PWM_duty: [wreg+status,2+status,0+btemp+1+pclath+cstack]
  4804                           ;i1PWM_duty@canal stored from wreg
  4805     086D  1283               	bcf	3,5	;RP0=0, select bank0
  4806     086E  1303               	bcf	3,6	;RP1=0, select bank0
  4807     086F  00E5               	movwf	i1PWM_duty@canal
  4808     0870                     i1l2506:
  4809                           
  4810                           ;PWM_SERVO.c: 35:     int particion = (int)(4*duty/((1.0f/4000000)*16));
  4811     0870  0861               	movf	i1PWM_duty@duty+3,w
  4812     0871  00C1               	movwf	i1___flmul@a+3
  4813     0872  0860               	movf	i1PWM_duty@duty+2,w
  4814     0873  00C0               	movwf	i1___flmul@a+2
  4815     0874  085F               	movf	i1PWM_duty@duty+1,w
  4816     0875  00BF               	movwf	i1___flmul@a+1
  4817     0876  085E               	movf	i1PWM_duty@duty,w
  4818     0877  00BE               	movwf	i1___flmul@a
  4819     0878  3040               	movlw	64
  4820     0879  00BD               	movwf	i1___flmul@b+3
  4821     087A  3080               	movlw	128
  4822     087B  00BC               	movwf	i1___flmul@b+2
  4823     087C  3000               	movlw	0
  4824     087D  00BB               	movwf	i1___flmul@b+1
  4825     087E  3000               	movlw	0
  4826     087F  00BA               	movwf	i1___flmul@b
  4827     0880  120A  118A  236C  120A  158A  	fcall	i1___flmul
  4828     0885  1283               	bcf	3,5	;RP0=0, select bank0
  4829     0886  1303               	bcf	3,6	;RP1=0, select bank0
  4830     0887  083D               	movf	?i1___flmul+3,w
  4831     0888  00A7               	movwf	i1___fldiv@b+3
  4832     0889  083C               	movf	?i1___flmul+2,w
  4833     088A  00A6               	movwf	i1___fldiv@b+2
  4834     088B  083B               	movf	?i1___flmul+1,w
  4835     088C  00A5               	movwf	i1___fldiv@b+1
  4836     088D  083A               	movf	?i1___flmul,w
  4837     088E  00A4               	movwf	i1___fldiv@b
  4838     088F  3036               	movlw	54
  4839     0890  00A3               	movwf	i1___fldiv@a+3
  4840     0891  3086               	movlw	134
  4841     0892  00A2               	movwf	i1___fldiv@a+2
  4842     0893  3037               	movlw	55
  4843     0894  00A1               	movwf	i1___fldiv@a+1
  4844     0895  30BD               	movlw	189
  4845     0896  00A0               	movwf	i1___fldiv@a
  4846     0897  120A  158A  245A  120A  158A  	fcall	i1___fldiv
  4847     089C  1283               	bcf	3,5	;RP0=0, select bank0
  4848     089D  1303               	bcf	3,6	;RP1=0, select bank0
  4849     089E  0823               	movf	?i1___fldiv+3,w
  4850     089F  00D7               	movwf	i1___fltol@f1+3
  4851     08A0  0822               	movf	?i1___fldiv+2,w
  4852     08A1  00D6               	movwf	i1___fltol@f1+2
  4853     08A2  0821               	movf	?i1___fldiv+1,w
  4854     08A3  00D5               	movwf	i1___fltol@f1+1
  4855     08A4  0820               	movf	?i1___fldiv,w
  4856     08A5  00D4               	movwf	i1___fltol@f1
  4857     08A6  160A  118A  266D  120A  158A  	fcall	i1___fltol
  4858     08AB  1283               	bcf	3,5	;RP0=0, select bank0
  4859     08AC  1303               	bcf	3,6	;RP1=0, select bank0
  4860     08AD  0855               	movf	?i1___fltol+1,w
  4861     08AE  00E7               	movwf	i1PWM_duty@particion+1
  4862     08AF  0854               	movf	?i1___fltol,w
  4863     08B0  00E6               	movwf	i1PWM_duty@particion
  4864     08B1                     i1l2508:
  4865                           
  4866                           ;PWM_SERVO.c: 36:     if (canal == 1){
  4867     08B1  0365               	decf	i1PWM_duty@canal,w
  4868     08B2  1D03               	btfss	3,2
  4869     08B3  28B5               	goto	u385_21
  4870     08B4  28B6               	goto	u385_20
  4871     08B5                     u385_21:
  4872     08B5  28DD               	goto	i1l2516
  4873     08B6                     u385_20:
  4874     08B6                     i1l2510:
  4875                           
  4876                           ;PWM_SERVO.c: 37:         CCPR1L = (char)(particion >> 2);
  4877     08B6  0867               	movf	i1PWM_duty@particion+1,w
  4878     08B7  00E3               	movwf	??i1_PWM_duty+1
  4879     08B8  0866               	movf	i1PWM_duty@particion,w
  4880     08B9  00E2               	movwf	??i1_PWM_duty
  4881     08BA  0D63               	rlf	??i1_PWM_duty+1,w
  4882     08BB  0CE3               	rrf	??i1_PWM_duty+1,f
  4883     08BC  0CE2               	rrf	??i1_PWM_duty,f
  4884     08BD  0D63               	rlf	??i1_PWM_duty+1,w
  4885     08BE  0CE3               	rrf	??i1_PWM_duty+1,f
  4886     08BF  0CE2               	rrf	??i1_PWM_duty,f
  4887     08C0  0862               	movf	??i1_PWM_duty,w
  4888     08C1  0095               	movwf	21	;volatile
  4889     08C2                     i1l2512:
  4890                           
  4891                           ;PWM_SERVO.c: 38:         CCP1CONbits.DC1B0 = (particion&(0b1));
  4892     08C2  0866               	movf	i1PWM_duty@particion,w
  4893     08C3  3901               	andlw	1
  4894     08C4  00E2               	movwf	??i1_PWM_duty
  4895     08C5  0EE2               	swapf	??i1_PWM_duty,f
  4896     08C6  0817               	movf	23,w	;volatile
  4897     08C7  0662               	xorwf	??i1_PWM_duty,w
  4898     08C8  39EF               	andlw	-17
  4899     08C9  0662               	xorwf	??i1_PWM_duty,w
  4900     08CA  0097               	movwf	23	;volatile
  4901     08CB                     i1l2514:
  4902                           
  4903                           ;PWM_SERVO.c: 39:         CCP1CONbits.DC1B1 = ((particion>>1) &(0b1));
  4904     08CB  0867               	movf	i1PWM_duty@particion+1,w
  4905     08CC  00E3               	movwf	??i1_PWM_duty+1
  4906     08CD  0866               	movf	i1PWM_duty@particion,w
  4907     08CE  00E2               	movwf	??i1_PWM_duty
  4908     08CF  0D63               	rlf	??i1_PWM_duty+1,w
  4909     08D0  0CE3               	rrf	??i1_PWM_duty+1,f
  4910     08D1  0CE2               	rrf	??i1_PWM_duty,f
  4911     08D2  0862               	movf	??i1_PWM_duty,w
  4912     08D3  3901               	andlw	1
  4913     08D4  00E4               	movwf	??i1_PWM_duty+2
  4914     08D5  0EE4               	swapf	??i1_PWM_duty+2,f
  4915     08D6  0DE4               	rlf	??i1_PWM_duty+2,f
  4916     08D7  0817               	movf	23,w	;volatile
  4917     08D8  0664               	xorwf	??i1_PWM_duty+2,w
  4918     08D9  39DF               	andlw	-33
  4919     08DA  0664               	xorwf	??i1_PWM_duty+2,w
  4920     08DB  0097               	movwf	23	;volatile
  4921                           
  4922                           ;PWM_SERVO.c: 40:     }
  4923     08DC  2909               	goto	i1l33
  4924     08DD                     i1l2516:
  4925     08DD  3002               	movlw	2
  4926     08DE  0665               	xorwf	i1PWM_duty@canal,w
  4927     08DF  1D03               	btfss	3,2
  4928     08E0  28E2               	goto	u386_21
  4929     08E1  28E3               	goto	u386_20
  4930     08E2                     u386_21:
  4931     08E2  2909               	goto	i1l33
  4932     08E3                     u386_20:
  4933     08E3                     i1l2518:
  4934                           
  4935                           ;PWM_SERVO.c: 42:         CCPR2L = (char)(particion >> 2);
  4936     08E3  0867               	movf	i1PWM_duty@particion+1,w
  4937     08E4  00E3               	movwf	??i1_PWM_duty+1
  4938     08E5  0866               	movf	i1PWM_duty@particion,w
  4939     08E6  00E2               	movwf	??i1_PWM_duty
  4940     08E7  0D63               	rlf	??i1_PWM_duty+1,w
  4941     08E8  0CE3               	rrf	??i1_PWM_duty+1,f
  4942     08E9  0CE2               	rrf	??i1_PWM_duty,f
  4943     08EA  0D63               	rlf	??i1_PWM_duty+1,w
  4944     08EB  0CE3               	rrf	??i1_PWM_duty+1,f
  4945     08EC  0CE2               	rrf	??i1_PWM_duty,f
  4946     08ED  0862               	movf	??i1_PWM_duty,w
  4947     08EE  009B               	movwf	27	;volatile
  4948     08EF                     i1l2520:
  4949                           
  4950                           ;PWM_SERVO.c: 43:         CCP2CONbits.DC2B0 = (particion&(0b1));
  4951     08EF  0866               	movf	i1PWM_duty@particion,w
  4952     08F0  3901               	andlw	1
  4953     08F1  00E2               	movwf	??i1_PWM_duty
  4954     08F2  0EE2               	swapf	??i1_PWM_duty,f
  4955     08F3  081D               	movf	29,w	;volatile
  4956     08F4  0662               	xorwf	??i1_PWM_duty,w
  4957     08F5  39EF               	andlw	-17
  4958     08F6  0662               	xorwf	??i1_PWM_duty,w
  4959     08F7  009D               	movwf	29	;volatile
  4960     08F8                     i1l2522:
  4961                           
  4962                           ;PWM_SERVO.c: 44:         CCP2CONbits.DC2B1 = ((particion>>1) &(0b1));
  4963     08F8  0867               	movf	i1PWM_duty@particion+1,w
  4964     08F9  00E3               	movwf	??i1_PWM_duty+1
  4965     08FA  0866               	movf	i1PWM_duty@particion,w
  4966     08FB  00E2               	movwf	??i1_PWM_duty
  4967     08FC  0D63               	rlf	??i1_PWM_duty+1,w
  4968     08FD  0CE3               	rrf	??i1_PWM_duty+1,f
  4969     08FE  0CE2               	rrf	??i1_PWM_duty,f
  4970     08FF  0862               	movf	??i1_PWM_duty,w
  4971     0900  3901               	andlw	1
  4972     0901  00E4               	movwf	??i1_PWM_duty+2
  4973     0902  0EE4               	swapf	??i1_PWM_duty+2,f
  4974     0903  0DE4               	rlf	??i1_PWM_duty+2,f
  4975     0904  081D               	movf	29,w	;volatile
  4976     0905  0664               	xorwf	??i1_PWM_duty+2,w
  4977     0906  39DF               	andlw	-33
  4978     0907  0664               	xorwf	??i1_PWM_duty+2,w
  4979     0908  009D               	movwf	29	;volatile
  4980     0909                     i1l33:
  4981     0909  0008               	return
  4982     090A                     __end_ofi1_PWM_duty:
  4983                           
  4984                           	psect	text12
  4985     166D                     __ptext12:	
  4986 ;; *************** function i1___fltol *****************
  4987 ;; Defined at:
  4988 ;;		line 43 in file "C:\Program Files\Microchip\xc8\v2.40\pic\sources\c90\common\fltol.c"
  4989 ;; Parameters:    Size  Location     Type
  4990 ;;  f1              4   52[BANK0 ] void 
  4991 ;; Auto vars:     Size  Location     Type
  4992 ;;  exp1            1   61[BANK0 ] unsigned char 
  4993 ;;  sign1           1   60[BANK0 ] unsigned char 
  4994 ;; Return value:  Size  Location     Type
  4995 ;;                  4   52[BANK0 ] long 
  4996 ;; Registers used:
  4997 ;;		wreg, status,2, status,0
  4998 ;; Tracked objects:
  4999 ;;		On entry : 0/0
  5000 ;;		On exit  : 0/0
  5001 ;;		Unchanged: 0/0
  5002 ;; Data sizes:     COMMON   BANK0   BANK1   BANK3   BANK2
  5003 ;;      Params:         0       4       0       0       0
  5004 ;;      Locals:         0       2       0       0       0
  5005 ;;      Temps:          0       4       0       0       0
  5006 ;;      Totals:         0      10       0       0       0
  5007 ;;Total ram usage:       10 bytes
  5008 ;; Hardware stack levels used: 1
  5009 ;; This function calls:
  5010 ;;		Nothing
  5011 ;; This function is called by:
  5012 ;;		i1_PWM_duty
  5013 ;; This function uses a non-reentrant model
  5014 ;;
  5015                           
  5016     166D                     i1___fltol:	
  5017                           ;psect for function i1___fltol
  5018                           
  5019     166D                     i1l2086:	
  5020                           ;incstack = 0
  5021                           ; Regs used in i1___fltol: [wreg+status,2+status,0]
  5022                           
  5023     166D  1003               	clrc
  5024     166E  1283               	bcf	3,5	;RP0=0, select bank0
  5025     166F  1303               	bcf	3,6	;RP1=0, select bank0
  5026     1670  0D56               	rlf	i1___fltol@f1+2,w
  5027     1671  0D57               	rlf	i1___fltol@f1+3,w
  5028     1672  00DD               	movwf	i1___fltol@exp1
  5029     1673  085D               	movf	i1___fltol@exp1,w
  5030     1674  1D03               	btfss	3,2
  5031     1675  2E77               	goto	u294_21
  5032     1676  2E78               	goto	u294_20
  5033     1677                     u294_21:
  5034     1677  2E81               	goto	i1l2092
  5035     1678                     u294_20:
  5036     1678                     i1l2088:
  5037     1678  3000               	movlw	0
  5038     1679  00D7               	movwf	?i1___fltol+3
  5039     167A  3000               	movlw	0
  5040     167B  00D6               	movwf	?i1___fltol+2
  5041     167C  3000               	movlw	0
  5042     167D  00D5               	movwf	?i1___fltol+1
  5043     167E  3000               	movlw	0
  5044     167F  00D4               	movwf	?i1___fltol
  5045     1680  2EE4               	goto	i1l412
  5046     1681                     i1l2092:
  5047     1681  0854               	movf	i1___fltol@f1,w
  5048     1682  00D8               	movwf	??i1___fltol
  5049     1683  0855               	movf	i1___fltol@f1+1,w
  5050     1684  00D9               	movwf	??i1___fltol+1
  5051     1685  0856               	movf	i1___fltol@f1+2,w
  5052     1686  00DA               	movwf	??i1___fltol+2
  5053     1687  0857               	movf	i1___fltol@f1+3,w
  5054     1688  00DB               	movwf	??i1___fltol+3
  5055     1689  301F               	movlw	31
  5056     168A                     u295_25:
  5057     168A  1003               	clrc
  5058     168B  0CDB               	rrf	??i1___fltol+3,f
  5059     168C  0CDA               	rrf	??i1___fltol+2,f
  5060     168D  0CD9               	rrf	??i1___fltol+1,f
  5061     168E  0CD8               	rrf	??i1___fltol,f
  5062     168F                     u295_20:
  5063     168F  3EFF               	addlw	-1
  5064     1690  1D03               	skipz
  5065     1691  2E8A               	goto	u295_25
  5066     1692  0858               	movf	??i1___fltol,w
  5067     1693  00DC               	movwf	i1___fltol@sign1
  5068     1694                     i1l2094:
  5069     1694  17D6               	bsf	i1___fltol@f1+2,7
  5070     1695                     i1l2096:
  5071     1695  30FF               	movlw	255
  5072     1696  05D4               	andwf	i1___fltol@f1,f
  5073     1697  30FF               	movlw	255
  5074     1698  05D5               	andwf	i1___fltol@f1+1,f
  5075     1699  30FF               	movlw	255
  5076     169A  05D6               	andwf	i1___fltol@f1+2,f
  5077     169B  3000               	movlw	0
  5078     169C  05D7               	andwf	i1___fltol@f1+3,f
  5079     169D                     i1l2098:
  5080     169D  3096               	movlw	150
  5081     169E  02DD               	subwf	i1___fltol@exp1,f
  5082     169F                     i1l2100:
  5083     169F  1FDD               	btfss	i1___fltol@exp1,7
  5084     16A0  2EA2               	goto	u296_21
  5085     16A1  2EA3               	goto	u296_20
  5086     16A2                     u296_21:
  5087     16A2  2EBD               	goto	i1l2110
  5088     16A3                     u296_20:
  5089     16A3                     i1l2102:
  5090     16A3  085D               	movf	i1___fltol@exp1,w
  5091     16A4  3A80               	xorlw	128
  5092     16A5  3E97               	addlw	151
  5093     16A6  1803               	skipnc
  5094     16A7  2EA9               	goto	u297_21
  5095     16A8  2EAA               	goto	u297_20
  5096     16A9                     u297_21:
  5097     16A9  2EAB               	goto	i1l2108
  5098     16AA                     u297_20:
  5099     16AA  2E78               	goto	i1l2088
  5100     16AB                     i1l2108:
  5101     16AB  3001               	movlw	1
  5102     16AC                     u298_25:
  5103     16AC  1003               	clrc
  5104     16AD  0CD7               	rrf	i1___fltol@f1+3,f
  5105     16AE  0CD6               	rrf	i1___fltol@f1+2,f
  5106     16AF  0CD5               	rrf	i1___fltol@f1+1,f
  5107     16B0  0CD4               	rrf	i1___fltol@f1,f
  5108     16B1  3EFF               	addlw	-1
  5109     16B2  1D03               	skipz
  5110     16B3  2EAC               	goto	u298_25
  5111     16B4  3001               	movlw	1
  5112     16B5  00D8               	movwf	??i1___fltol
  5113     16B6  0858               	movf	??i1___fltol,w
  5114     16B7  07DD               	addwf	i1___fltol@exp1,f
  5115     16B8  1D03               	btfss	3,2
  5116     16B9  2EBB               	goto	u299_21
  5117     16BA  2EBC               	goto	u299_20
  5118     16BB                     u299_21:
  5119     16BB  2EAB               	goto	i1l2108
  5120     16BC                     u299_20:
  5121     16BC  2ED4               	goto	i1l2118
  5122     16BD                     i1l2110:
  5123     16BD  3020               	movlw	32
  5124     16BE  025D               	subwf	i1___fltol@exp1,w
  5125     16BF  1C03               	skipc
  5126     16C0  2EC2               	goto	u300_21
  5127     16C1  2EC3               	goto	u300_20
  5128     16C2                     u300_21:
  5129     16C2  2ECF               	goto	i1l419
  5130     16C3                     u300_20:
  5131     16C3  2E78               	goto	i1l2088
  5132     16C4                     i1l2116:
  5133     16C4  3001               	movlw	1
  5134     16C5  00D8               	movwf	??i1___fltol
  5135     16C6                     u301_25:
  5136     16C6  1003               	clrc
  5137     16C7  0DD4               	rlf	i1___fltol@f1,f
  5138     16C8  0DD5               	rlf	i1___fltol@f1+1,f
  5139     16C9  0DD6               	rlf	i1___fltol@f1+2,f
  5140     16CA  0DD7               	rlf	i1___fltol@f1+3,f
  5141     16CB  0BD8               	decfsz	??i1___fltol,f
  5142     16CC  2EC6               	goto	u301_25
  5143     16CD  3001               	movlw	1
  5144     16CE  02DD               	subwf	i1___fltol@exp1,f
  5145     16CF                     i1l419:
  5146     16CF  085D               	movf	i1___fltol@exp1,w
  5147     16D0  1D03               	btfss	3,2
  5148     16D1  2ED3               	goto	u302_21
  5149     16D2  2ED4               	goto	u302_20
  5150     16D3                     u302_21:
  5151     16D3  2EC4               	goto	i1l2116
  5152     16D4                     u302_20:
  5153     16D4                     i1l2118:
  5154     16D4  085C               	movf	i1___fltol@sign1,w
  5155     16D5  1903               	btfsc	3,2
  5156     16D6  2ED8               	goto	u303_21
  5157     16D7  2ED9               	goto	u303_20
  5158     16D8                     u303_21:
  5159     16D8  2EE4               	goto	i1l422
  5160     16D9                     u303_20:
  5161     16D9                     i1l2120:
  5162     16D9  09D4               	comf	i1___fltol@f1,f
  5163     16DA  09D5               	comf	i1___fltol@f1+1,f
  5164     16DB  09D6               	comf	i1___fltol@f1+2,f
  5165     16DC  09D7               	comf	i1___fltol@f1+3,f
  5166     16DD  0AD4               	incf	i1___fltol@f1,f
  5167     16DE  1903               	skipnz
  5168     16DF  0AD5               	incf	i1___fltol@f1+1,f
  5169     16E0  1903               	skipnz
  5170     16E1  0AD6               	incf	i1___fltol@f1+2,f
  5171     16E2  1903               	skipnz
  5172     16E3  0AD7               	incf	i1___fltol@f1+3,f
  5173     16E4                     i1l422:
  5174     16E4                     i1l412:
  5175     16E4  0008               	return
  5176     16E5                     __end_ofi1___fltol:
  5177                           
  5178                           	psect	text13
  5179     036C                     __ptext13:	
  5180 ;; *************** function i1___flmul *****************
  5181 ;; Defined at:
  5182 ;;		line 8 in file "C:\Program Files\Microchip\xc8\v2.40\pic\sources\c90\common\sprcmul.c"
  5183 ;; Parameters:    Size  Location     Type
  5184 ;;  b               4   26[BANK0 ] long 
  5185 ;;  a               4   30[BANK0 ] long 
  5186 ;; Auto vars:     Size  Location     Type
  5187 ;;  prod            4   46[BANK0 ] struct .
  5188 ;;  grs             4   40[BANK0 ] unsigned long 
  5189 ;;  temp            2   50[BANK0 ] struct .
  5190 ;;  bexp            1   45[BANK0 ] unsigned char 
  5191 ;;  aexp            1   44[BANK0 ] unsigned char 
  5192 ;;  sign            1   39[BANK0 ] unsigned char 
  5193 ;; Return value:  Size  Location     Type
  5194 ;;                  4   26[BANK0 ] unsigned char 
  5195 ;; Registers used:
  5196 ;;		wreg, status,2, status,0, btemp+1, pclath, cstack
  5197 ;; Tracked objects:
  5198 ;;		On entry : 0/0
  5199 ;;		On exit  : 0/0
  5200 ;;		Unchanged: 0/0
  5201 ;; Data sizes:     COMMON   BANK0   BANK1   BANK3   BANK2
  5202 ;;      Params:         0       8       0       0       0
  5203 ;;      Locals:         0      13       0       0       0
  5204 ;;      Temps:          0       5       0       0       0
  5205 ;;      Totals:         0      26       0       0       0
  5206 ;;Total ram usage:       26 bytes
  5207 ;; Hardware stack levels used: 1
  5208 ;; Hardware stack levels required when called: 1
  5209 ;; This function calls:
  5210 ;;		i1__Umul8_16
  5211 ;; This function is called by:
  5212 ;;		_isr
  5213 ;;		i1_PWM_duty
  5214 ;; This function uses a non-reentrant model
  5215 ;;
  5216                           
  5217     036C                     i1___flmul:	
  5218                           ;psect for function i1___flmul
  5219                           
  5220     036C                     i1l2264:	
  5221                           ;incstack = 0
  5222                           ; Regs used in i1___flmul: [wreg+status,2+status,0+btemp+1+pclath+cstack]
  5223                           
  5224     036C  1283               	bcf	3,5	;RP0=0, select bank0
  5225     036D  1303               	bcf	3,6	;RP1=0, select bank0
  5226     036E  083D               	movf	i1___flmul@b+3,w
  5227     036F  3980               	andlw	128
  5228     0370  00C7               	movwf	i1___flmul@sign
  5229     0371                     i1l2266:
  5230     0371  083D               	movf	i1___flmul@b+3,w
  5231     0372  00C2               	movwf	??i1___flmul
  5232     0373  0742               	addwf	??i1___flmul,w
  5233     0374  00CD               	movwf	i1___flmul@bexp
  5234     0375                     i1l2268:
  5235     0375  1FBC               	btfss	i1___flmul@b+2,7
  5236     0376  2B78               	goto	u333_21
  5237     0377  2B79               	goto	u333_20
  5238     0378                     u333_21:
  5239     0378  2B7A               	goto	i1l2272
  5240     0379                     u333_20:
  5241     0379                     i1l2270:
  5242     0379  144D               	bsf	i1___flmul@bexp,0
  5243     037A                     i1l2272:
  5244     037A  084D               	movf	i1___flmul@bexp,w
  5245     037B  1903               	btfsc	3,2
  5246     037C  2B7E               	goto	u334_21
  5247     037D  2B7F               	goto	u334_20
  5248     037E                     u334_21:
  5249     037E  2B8E               	goto	i1l2280
  5250     037F                     u334_20:
  5251     037F                     i1l2274:
  5252     037F  0A4D               	incf	i1___flmul@bexp,w
  5253     0380  1D03               	btfss	3,2
  5254     0381  2B83               	goto	u335_21
  5255     0382  2B84               	goto	u335_20
  5256     0383                     u335_21:
  5257     0383  2B8C               	goto	i1l2278
  5258     0384                     u335_20:
  5259     0384                     i1l2276:
  5260     0384  3000               	movlw	0
  5261     0385  00BD               	movwf	i1___flmul@b+3
  5262     0386  3000               	movlw	0
  5263     0387  00BC               	movwf	i1___flmul@b+2
  5264     0388  3000               	movlw	0
  5265     0389  00BB               	movwf	i1___flmul@b+1
  5266     038A  3000               	movlw	0
  5267     038B  00BA               	movwf	i1___flmul@b
  5268     038C                     i1l2278:
  5269     038C  17BC               	bsf	i1___flmul@b+2,7
  5270     038D  2B96               	goto	i1l2282
  5271     038E                     i1l2280:
  5272     038E  3000               	movlw	0
  5273     038F  00BD               	movwf	i1___flmul@b+3
  5274     0390  3000               	movlw	0
  5275     0391  00BC               	movwf	i1___flmul@b+2
  5276     0392  3000               	movlw	0
  5277     0393  00BB               	movwf	i1___flmul@b+1
  5278     0394  3000               	movlw	0
  5279     0395  00BA               	movwf	i1___flmul@b
  5280     0396                     i1l2282:
  5281     0396  0841               	movf	i1___flmul@a+3,w
  5282     0397  3980               	andlw	128
  5283     0398  00C2               	movwf	??i1___flmul
  5284     0399  0842               	movf	??i1___flmul,w
  5285     039A  06C7               	xorwf	i1___flmul@sign,f
  5286     039B                     i1l2284:
  5287     039B  0841               	movf	i1___flmul@a+3,w
  5288     039C  00C2               	movwf	??i1___flmul
  5289     039D  0742               	addwf	??i1___flmul,w
  5290     039E  00CC               	movwf	i1___flmul@aexp
  5291     039F                     i1l2286:
  5292     039F  1FC0               	btfss	i1___flmul@a+2,7
  5293     03A0  2BA2               	goto	u336_21
  5294     03A1  2BA3               	goto	u336_20
  5295     03A2                     u336_21:
  5296     03A2  2BA4               	goto	i1l2290
  5297     03A3                     u336_20:
  5298     03A3                     i1l2288:
  5299     03A3  144C               	bsf	i1___flmul@aexp,0
  5300     03A4                     i1l2290:
  5301     03A4  084C               	movf	i1___flmul@aexp,w
  5302     03A5  1903               	btfsc	3,2
  5303     03A6  2BA8               	goto	u337_21
  5304     03A7  2BA9               	goto	u337_20
  5305     03A8                     u337_21:
  5306     03A8  2BB8               	goto	i1l2298
  5307     03A9                     u337_20:
  5308     03A9                     i1l2292:
  5309     03A9  0A4C               	incf	i1___flmul@aexp,w
  5310     03AA  1D03               	btfss	3,2
  5311     03AB  2BAD               	goto	u338_21
  5312     03AC  2BAE               	goto	u338_20
  5313     03AD                     u338_21:
  5314     03AD  2BB6               	goto	i1l2296
  5315     03AE                     u338_20:
  5316     03AE                     i1l2294:
  5317     03AE  3000               	movlw	0
  5318     03AF  00C1               	movwf	i1___flmul@a+3
  5319     03B0  3000               	movlw	0
  5320     03B1  00C0               	movwf	i1___flmul@a+2
  5321     03B2  3000               	movlw	0
  5322     03B3  00BF               	movwf	i1___flmul@a+1
  5323     03B4  3000               	movlw	0
  5324     03B5  00BE               	movwf	i1___flmul@a
  5325     03B6                     i1l2296:
  5326     03B6  17C0               	bsf	i1___flmul@a+2,7
  5327     03B7  2BC0               	goto	i1l2300
  5328     03B8                     i1l2298:
  5329     03B8  3000               	movlw	0
  5330     03B9  00C1               	movwf	i1___flmul@a+3
  5331     03BA  3000               	movlw	0
  5332     03BB  00C0               	movwf	i1___flmul@a+2
  5333     03BC  3000               	movlw	0
  5334     03BD  00BF               	movwf	i1___flmul@a+1
  5335     03BE  3000               	movlw	0
  5336     03BF  00BE               	movwf	i1___flmul@a
  5337     03C0                     i1l2300:
  5338     03C0  084C               	movf	i1___flmul@aexp,w
  5339     03C1  1903               	btfsc	3,2
  5340     03C2  2BC4               	goto	u339_21
  5341     03C3  2BC5               	goto	u339_20
  5342     03C4                     u339_21:
  5343     03C4  2BCA               	goto	i1l2304
  5344     03C5                     u339_20:
  5345     03C5                     i1l2302:
  5346     03C5  084D               	movf	i1___flmul@bexp,w
  5347     03C6  1D03               	btfss	3,2
  5348     03C7  2BC9               	goto	u340_21
  5349     03C8  2BCA               	goto	u340_20
  5350     03C9                     u340_21:
  5351     03C9  2BD3               	goto	i1l2308
  5352     03CA                     u340_20:
  5353     03CA                     i1l2304:
  5354     03CA  3000               	movlw	0
  5355     03CB  00BD               	movwf	?i1___flmul+3
  5356     03CC  3000               	movlw	0
  5357     03CD  00BC               	movwf	?i1___flmul+2
  5358     03CE  3000               	movlw	0
  5359     03CF  00BB               	movwf	?i1___flmul+1
  5360     03D0  3000               	movlw	0
  5361     03D1  00BA               	movwf	?i1___flmul
  5362     03D2  2EB0               	goto	i1l615
  5363     03D3                     i1l2308:
  5364     03D3  083A               	movf	i1___flmul@b,w
  5365     03D4  00F0               	movwf	i1__Umul8_16@multiplicand
  5366     03D5  0840               	movf	i1___flmul@a+2,w
  5367     03D6  160A  118A  261D  120A  118A  	fcall	i1__Umul8_16
  5368     03DB  0871               	movf	?i1__Umul8_16+1,w
  5369     03DC  1283               	bcf	3,5	;RP0=0, select bank0
  5370     03DD  1303               	bcf	3,6	;RP1=0, select bank0
  5371     03DE  00D3               	movwf	i1___flmul@temp+1
  5372     03DF  0870               	movf	?i1__Umul8_16,w
  5373     03E0  00D2               	movwf	i1___flmul@temp
  5374     03E1                     i1l2310:
  5375     03E1  0852               	movf	i1___flmul@temp,w
  5376     03E2  00C2               	movwf	??i1___flmul
  5377     03E3  01C3               	clrf	??i1___flmul+1
  5378     03E4  01C4               	clrf	??i1___flmul+2
  5379     03E5  01C5               	clrf	??i1___flmul+3
  5380     03E6  0845               	movf	??i1___flmul+3,w
  5381     03E7  00CB               	movwf	i1___flmul@grs+3
  5382     03E8  0844               	movf	??i1___flmul+2,w
  5383     03E9  00CA               	movwf	i1___flmul@grs+2
  5384     03EA  0843               	movf	??i1___flmul+1,w
  5385     03EB  00C9               	movwf	i1___flmul@grs+1
  5386     03EC  0842               	movf	??i1___flmul,w
  5387     03ED  00C8               	movwf	i1___flmul@grs
  5388     03EE                     i1l2312:
  5389     03EE  0853               	movf	i1___flmul@temp+1,w
  5390     03EF  00C2               	movwf	??i1___flmul
  5391     03F0  01C3               	clrf	??i1___flmul+1
  5392     03F1  01C4               	clrf	??i1___flmul+2
  5393     03F2  01C5               	clrf	??i1___flmul+3
  5394     03F3  0845               	movf	??i1___flmul+3,w
  5395     03F4  00D1               	movwf	i1___flmul@prod+3
  5396     03F5  0844               	movf	??i1___flmul+2,w
  5397     03F6  00D0               	movwf	i1___flmul@prod+2
  5398     03F7  0843               	movf	??i1___flmul+1,w
  5399     03F8  00CF               	movwf	i1___flmul@prod+1
  5400     03F9  0842               	movf	??i1___flmul,w
  5401     03FA  00CE               	movwf	i1___flmul@prod
  5402     03FB  083B               	movf	i1___flmul@b+1,w
  5403     03FC  00F0               	movwf	i1__Umul8_16@multiplicand
  5404     03FD  083F               	movf	i1___flmul@a+1,w
  5405     03FE  160A  118A  261D  120A  118A  	fcall	i1__Umul8_16
  5406     0403  0871               	movf	?i1__Umul8_16+1,w
  5407     0404  1283               	bcf	3,5	;RP0=0, select bank0
  5408     0405  1303               	bcf	3,6	;RP1=0, select bank0
  5409     0406  00D3               	movwf	i1___flmul@temp+1
  5410     0407  0870               	movf	?i1__Umul8_16,w
  5411     0408  00D2               	movwf	i1___flmul@temp
  5412     0409                     i1l2314:
  5413     0409  0852               	movf	i1___flmul@temp,w
  5414     040A  00C2               	movwf	??i1___flmul
  5415     040B  01C3               	clrf	??i1___flmul+1
  5416     040C  01C4               	clrf	??i1___flmul+2
  5417     040D  01C5               	clrf	??i1___flmul+3
  5418     040E  0842               	movf	??i1___flmul,w
  5419     040F  07C8               	addwf	i1___flmul@grs,f
  5420     0410  0843               	movf	??i1___flmul+1,w
  5421     0411  1103               	clrz
  5422     0412  1803               	skipnc
  5423     0413  3E01               	addlw	1
  5424     0414  1903               	skipnz
  5425     0415  2C17               	goto	u341_21
  5426     0416  07C9               	addwf	i1___flmul@grs+1,f
  5427     0417                     u341_21:
  5428     0417  0844               	movf	??i1___flmul+2,w
  5429     0418  1103               	clrz
  5430     0419  1803               	skipnc
  5431     041A  3E01               	addlw	1
  5432     041B  1903               	skipnz
  5433     041C  2C1E               	goto	u341_22
  5434     041D  07CA               	addwf	i1___flmul@grs+2,f
  5435     041E                     u341_22:
  5436     041E  0845               	movf	??i1___flmul+3,w
  5437     041F  1103               	clrz
  5438     0420  1803               	skipnc
  5439     0421  3E01               	addlw	1
  5440     0422  1903               	skipnz
  5441     0423  2C25               	goto	u341_23
  5442     0424  07CB               	addwf	i1___flmul@grs+3,f
  5443     0425                     u341_23:
  5444     0425                     i1l2316:
  5445     0425  0853               	movf	i1___flmul@temp+1,w
  5446     0426  00C2               	movwf	??i1___flmul
  5447     0427  01C3               	clrf	??i1___flmul+1
  5448     0428  01C4               	clrf	??i1___flmul+2
  5449     0429  01C5               	clrf	??i1___flmul+3
  5450     042A  0842               	movf	??i1___flmul,w
  5451     042B  07CE               	addwf	i1___flmul@prod,f
  5452     042C  0843               	movf	??i1___flmul+1,w
  5453     042D  1103               	clrz
  5454     042E  1803               	skipnc
  5455     042F  3E01               	addlw	1
  5456     0430  1903               	skipnz
  5457     0431  2C33               	goto	u342_21
  5458     0432  07CF               	addwf	i1___flmul@prod+1,f
  5459     0433                     u342_21:
  5460     0433  0844               	movf	??i1___flmul+2,w
  5461     0434  1103               	clrz
  5462     0435  1803               	skipnc
  5463     0436  3E01               	addlw	1
  5464     0437  1903               	skipnz
  5465     0438  2C3A               	goto	u342_22
  5466     0439  07D0               	addwf	i1___flmul@prod+2,f
  5467     043A                     u342_22:
  5468     043A  0845               	movf	??i1___flmul+3,w
  5469     043B  1103               	clrz
  5470     043C  1803               	skipnc
  5471     043D  3E01               	addlw	1
  5472     043E  1903               	skipnz
  5473     043F  2C41               	goto	u342_23
  5474     0440  07D1               	addwf	i1___flmul@prod+3,f
  5475     0441                     u342_23:
  5476     0441  083C               	movf	i1___flmul@b+2,w
  5477     0442  00F0               	movwf	i1__Umul8_16@multiplicand
  5478     0443  083E               	movf	i1___flmul@a,w
  5479     0444  160A  118A  261D  120A  118A  	fcall	i1__Umul8_16
  5480     0449  0871               	movf	?i1__Umul8_16+1,w
  5481     044A  1283               	bcf	3,5	;RP0=0, select bank0
  5482     044B  1303               	bcf	3,6	;RP1=0, select bank0
  5483     044C  00D3               	movwf	i1___flmul@temp+1
  5484     044D  0870               	movf	?i1__Umul8_16,w
  5485     044E  00D2               	movwf	i1___flmul@temp
  5486     044F                     i1l2318:
  5487     044F  0852               	movf	i1___flmul@temp,w
  5488     0450  00C2               	movwf	??i1___flmul
  5489     0451  01C3               	clrf	??i1___flmul+1
  5490     0452  01C4               	clrf	??i1___flmul+2
  5491     0453  01C5               	clrf	??i1___flmul+3
  5492     0454  0842               	movf	??i1___flmul,w
  5493     0455  07C8               	addwf	i1___flmul@grs,f
  5494     0456  0843               	movf	??i1___flmul+1,w
  5495     0457  1103               	clrz
  5496     0458  1803               	skipnc
  5497     0459  3E01               	addlw	1
  5498     045A  1903               	skipnz
  5499     045B  2C5D               	goto	u343_21
  5500     045C  07C9               	addwf	i1___flmul@grs+1,f
  5501     045D                     u343_21:
  5502     045D  0844               	movf	??i1___flmul+2,w
  5503     045E  1103               	clrz
  5504     045F  1803               	skipnc
  5505     0460  3E01               	addlw	1
  5506     0461  1903               	skipnz
  5507     0462  2C64               	goto	u343_22
  5508     0463  07CA               	addwf	i1___flmul@grs+2,f
  5509     0464                     u343_22:
  5510     0464  0845               	movf	??i1___flmul+3,w
  5511     0465  1103               	clrz
  5512     0466  1803               	skipnc
  5513     0467  3E01               	addlw	1
  5514     0468  1903               	skipnz
  5515     0469  2C6B               	goto	u343_23
  5516     046A  07CB               	addwf	i1___flmul@grs+3,f
  5517     046B                     u343_23:
  5518     046B                     i1l2320:
  5519     046B  0853               	movf	i1___flmul@temp+1,w
  5520     046C  00C2               	movwf	??i1___flmul
  5521     046D  01C3               	clrf	??i1___flmul+1
  5522     046E  01C4               	clrf	??i1___flmul+2
  5523     046F  01C5               	clrf	??i1___flmul+3
  5524     0470  0842               	movf	??i1___flmul,w
  5525     0471  07CE               	addwf	i1___flmul@prod,f
  5526     0472  0843               	movf	??i1___flmul+1,w
  5527     0473  1103               	clrz
  5528     0474  1803               	skipnc
  5529     0475  3E01               	addlw	1
  5530     0476  1903               	skipnz
  5531     0477  2C79               	goto	u344_21
  5532     0478  07CF               	addwf	i1___flmul@prod+1,f
  5533     0479                     u344_21:
  5534     0479  0844               	movf	??i1___flmul+2,w
  5535     047A  1103               	clrz
  5536     047B  1803               	skipnc
  5537     047C  3E01               	addlw	1
  5538     047D  1903               	skipnz
  5539     047E  2C80               	goto	u344_22
  5540     047F  07D0               	addwf	i1___flmul@prod+2,f
  5541     0480                     u344_22:
  5542     0480  0845               	movf	??i1___flmul+3,w
  5543     0481  1103               	clrz
  5544     0482  1803               	skipnc
  5545     0483  3E01               	addlw	1
  5546     0484  1903               	skipnz
  5547     0485  2C87               	goto	u344_23
  5548     0486  07D1               	addwf	i1___flmul@prod+3,f
  5549     0487                     u344_23:
  5550     0487                     i1l2322:
  5551     0487  3008               	movlw	8
  5552     0488  00C2               	movwf	??i1___flmul
  5553     0489                     u345_25:
  5554     0489  1003               	clrc
  5555     048A  0DC8               	rlf	i1___flmul@grs,f
  5556     048B  0DC9               	rlf	i1___flmul@grs+1,f
  5557     048C  0DCA               	rlf	i1___flmul@grs+2,f
  5558     048D  0DCB               	rlf	i1___flmul@grs+3,f
  5559     048E  0BC2               	decfsz	??i1___flmul,f
  5560     048F  2C89               	goto	u345_25
  5561     0490                     i1l2324:
  5562     0490  083B               	movf	i1___flmul@b+1,w
  5563     0491  00F0               	movwf	i1__Umul8_16@multiplicand
  5564     0492  083E               	movf	i1___flmul@a,w
  5565     0493  160A  118A  261D  120A  118A  	fcall	i1__Umul8_16
  5566     0498  0871               	movf	?i1__Umul8_16+1,w
  5567     0499  1283               	bcf	3,5	;RP0=0, select bank0
  5568     049A  1303               	bcf	3,6	;RP1=0, select bank0
  5569     049B  00D3               	movwf	i1___flmul@temp+1
  5570     049C  0870               	movf	?i1__Umul8_16,w
  5571     049D  00D2               	movwf	i1___flmul@temp
  5572     049E                     i1l2326:
  5573     049E  0852               	movf	i1___flmul@temp,w
  5574     049F  00C2               	movwf	??i1___flmul
  5575     04A0  0853               	movf	i1___flmul@temp+1,w
  5576     04A1  00C3               	movwf	??i1___flmul+1
  5577     04A2  01C4               	clrf	??i1___flmul+2
  5578     04A3  01C5               	clrf	??i1___flmul+3
  5579     04A4  0842               	movf	??i1___flmul,w
  5580     04A5  07C8               	addwf	i1___flmul@grs,f
  5581     04A6  0843               	movf	??i1___flmul+1,w
  5582     04A7  1103               	clrz
  5583     04A8  1803               	skipnc
  5584     04A9  3E01               	addlw	1
  5585     04AA  1903               	skipnz
  5586     04AB  2CAD               	goto	u346_21
  5587     04AC  07C9               	addwf	i1___flmul@grs+1,f
  5588     04AD                     u346_21:
  5589     04AD  0844               	movf	??i1___flmul+2,w
  5590     04AE  1103               	clrz
  5591     04AF  1803               	skipnc
  5592     04B0  3E01               	addlw	1
  5593     04B1  1903               	skipnz
  5594     04B2  2CB4               	goto	u346_22
  5595     04B3  07CA               	addwf	i1___flmul@grs+2,f
  5596     04B4                     u346_22:
  5597     04B4  0845               	movf	??i1___flmul+3,w
  5598     04B5  1103               	clrz
  5599     04B6  1803               	skipnc
  5600     04B7  3E01               	addlw	1
  5601     04B8  1903               	skipnz
  5602     04B9  2CBB               	goto	u346_23
  5603     04BA  07CB               	addwf	i1___flmul@grs+3,f
  5604     04BB                     u346_23:
  5605     04BB                     i1l2328:
  5606     04BB  083A               	movf	i1___flmul@b,w
  5607     04BC  00F0               	movwf	i1__Umul8_16@multiplicand
  5608     04BD  083F               	movf	i1___flmul@a+1,w
  5609     04BE  160A  118A  261D  120A  118A  	fcall	i1__Umul8_16
  5610     04C3  0871               	movf	?i1__Umul8_16+1,w
  5611     04C4  1283               	bcf	3,5	;RP0=0, select bank0
  5612     04C5  1303               	bcf	3,6	;RP1=0, select bank0
  5613     04C6  00D3               	movwf	i1___flmul@temp+1
  5614     04C7  0870               	movf	?i1__Umul8_16,w
  5615     04C8  00D2               	movwf	i1___flmul@temp
  5616     04C9                     i1l2330:
  5617     04C9  0852               	movf	i1___flmul@temp,w
  5618     04CA  00C2               	movwf	??i1___flmul
  5619     04CB  0853               	movf	i1___flmul@temp+1,w
  5620     04CC  00C3               	movwf	??i1___flmul+1
  5621     04CD  01C4               	clrf	??i1___flmul+2
  5622     04CE  01C5               	clrf	??i1___flmul+3
  5623     04CF  0842               	movf	??i1___flmul,w
  5624     04D0  07C8               	addwf	i1___flmul@grs,f
  5625     04D1  0843               	movf	??i1___flmul+1,w
  5626     04D2  1103               	clrz
  5627     04D3  1803               	skipnc
  5628     04D4  3E01               	addlw	1
  5629     04D5  1903               	skipnz
  5630     04D6  2CD8               	goto	u347_21
  5631     04D7  07C9               	addwf	i1___flmul@grs+1,f
  5632     04D8                     u347_21:
  5633     04D8  0844               	movf	??i1___flmul+2,w
  5634     04D9  1103               	clrz
  5635     04DA  1803               	skipnc
  5636     04DB  3E01               	addlw	1
  5637     04DC  1903               	skipnz
  5638     04DD  2CDF               	goto	u347_22
  5639     04DE  07CA               	addwf	i1___flmul@grs+2,f
  5640     04DF                     u347_22:
  5641     04DF  0845               	movf	??i1___flmul+3,w
  5642     04E0  1103               	clrz
  5643     04E1  1803               	skipnc
  5644     04E2  3E01               	addlw	1
  5645     04E3  1903               	skipnz
  5646     04E4  2CE6               	goto	u347_23
  5647     04E5  07CB               	addwf	i1___flmul@grs+3,f
  5648     04E6                     u347_23:
  5649     04E6                     i1l2332:
  5650     04E6  3008               	movlw	8
  5651     04E7  00C2               	movwf	??i1___flmul
  5652     04E8                     u348_25:
  5653     04E8  1003               	clrc
  5654     04E9  0DC8               	rlf	i1___flmul@grs,f
  5655     04EA  0DC9               	rlf	i1___flmul@grs+1,f
  5656     04EB  0DCA               	rlf	i1___flmul@grs+2,f
  5657     04EC  0DCB               	rlf	i1___flmul@grs+3,f
  5658     04ED  0BC2               	decfsz	??i1___flmul,f
  5659     04EE  2CE8               	goto	u348_25
  5660     04EF  083A               	movf	i1___flmul@b,w
  5661     04F0  00F0               	movwf	i1__Umul8_16@multiplicand
  5662     04F1  083E               	movf	i1___flmul@a,w
  5663     04F2  160A  118A  261D  120A  118A  	fcall	i1__Umul8_16
  5664     04F7  0871               	movf	?i1__Umul8_16+1,w
  5665     04F8  1283               	bcf	3,5	;RP0=0, select bank0
  5666     04F9  1303               	bcf	3,6	;RP1=0, select bank0
  5667     04FA  00D3               	movwf	i1___flmul@temp+1
  5668     04FB  0870               	movf	?i1__Umul8_16,w
  5669     04FC  00D2               	movwf	i1___flmul@temp
  5670     04FD                     i1l2334:
  5671     04FD  0852               	movf	i1___flmul@temp,w
  5672     04FE  00C2               	movwf	??i1___flmul
  5673     04FF  0853               	movf	i1___flmul@temp+1,w
  5674     0500  00C3               	movwf	??i1___flmul+1
  5675     0501  01C4               	clrf	??i1___flmul+2
  5676     0502  01C5               	clrf	??i1___flmul+3
  5677     0503  0842               	movf	??i1___flmul,w
  5678     0504  07C8               	addwf	i1___flmul@grs,f
  5679     0505  0843               	movf	??i1___flmul+1,w
  5680     0506  1103               	clrz
  5681     0507  1803               	skipnc
  5682     0508  3E01               	addlw	1
  5683     0509  1903               	skipnz
  5684     050A  2D0C               	goto	u349_21
  5685     050B  07C9               	addwf	i1___flmul@grs+1,f
  5686     050C                     u349_21:
  5687     050C  0844               	movf	??i1___flmul+2,w
  5688     050D  1103               	clrz
  5689     050E  1803               	skipnc
  5690     050F  3E01               	addlw	1
  5691     0510  1903               	skipnz
  5692     0511  2D13               	goto	u349_22
  5693     0512  07CA               	addwf	i1___flmul@grs+2,f
  5694     0513                     u349_22:
  5695     0513  0845               	movf	??i1___flmul+3,w
  5696     0514  1103               	clrz
  5697     0515  1803               	skipnc
  5698     0516  3E01               	addlw	1
  5699     0517  1903               	skipnz
  5700     0518  2D1A               	goto	u349_23
  5701     0519  07CB               	addwf	i1___flmul@grs+3,f
  5702     051A                     u349_23:
  5703     051A                     i1l2336:
  5704     051A  083B               	movf	i1___flmul@b+1,w
  5705     051B  00F0               	movwf	i1__Umul8_16@multiplicand
  5706     051C  0840               	movf	i1___flmul@a+2,w
  5707     051D  160A  118A  261D  120A  118A  	fcall	i1__Umul8_16
  5708     0522  0871               	movf	?i1__Umul8_16+1,w
  5709     0523  1283               	bcf	3,5	;RP0=0, select bank0
  5710     0524  1303               	bcf	3,6	;RP1=0, select bank0
  5711     0525  00D3               	movwf	i1___flmul@temp+1
  5712     0526  0870               	movf	?i1__Umul8_16,w
  5713     0527  00D2               	movwf	i1___flmul@temp
  5714     0528  0852               	movf	i1___flmul@temp,w
  5715     0529  00C2               	movwf	??i1___flmul
  5716     052A  0853               	movf	i1___flmul@temp+1,w
  5717     052B  00C3               	movwf	??i1___flmul+1
  5718     052C  01C4               	clrf	??i1___flmul+2
  5719     052D  01C5               	clrf	??i1___flmul+3
  5720     052E  0842               	movf	??i1___flmul,w
  5721     052F  07CE               	addwf	i1___flmul@prod,f
  5722     0530  0843               	movf	??i1___flmul+1,w
  5723     0531  1103               	clrz
  5724     0532  1803               	skipnc
  5725     0533  3E01               	addlw	1
  5726     0534  1903               	skipnz
  5727     0535  2D37               	goto	u350_21
  5728     0536  07CF               	addwf	i1___flmul@prod+1,f
  5729     0537                     u350_21:
  5730     0537  0844               	movf	??i1___flmul+2,w
  5731     0538  1103               	clrz
  5732     0539  1803               	skipnc
  5733     053A  3E01               	addlw	1
  5734     053B  1903               	skipnz
  5735     053C  2D3E               	goto	u350_22
  5736     053D  07D0               	addwf	i1___flmul@prod+2,f
  5737     053E                     u350_22:
  5738     053E  0845               	movf	??i1___flmul+3,w
  5739     053F  1103               	clrz
  5740     0540  1803               	skipnc
  5741     0541  3E01               	addlw	1
  5742     0542  1903               	skipnz
  5743     0543  2D45               	goto	u350_23
  5744     0544  07D1               	addwf	i1___flmul@prod+3,f
  5745     0545                     u350_23:
  5746     0545                     i1l2338:
  5747     0545  083C               	movf	i1___flmul@b+2,w
  5748     0546  00F0               	movwf	i1__Umul8_16@multiplicand
  5749     0547  083F               	movf	i1___flmul@a+1,w
  5750     0548  160A  118A  261D  120A  118A  	fcall	i1__Umul8_16
  5751     054D  0871               	movf	?i1__Umul8_16+1,w
  5752     054E  1283               	bcf	3,5	;RP0=0, select bank0
  5753     054F  1303               	bcf	3,6	;RP1=0, select bank0
  5754     0550  00D3               	movwf	i1___flmul@temp+1
  5755     0551  0870               	movf	?i1__Umul8_16,w
  5756     0552  00D2               	movwf	i1___flmul@temp
  5757     0553                     i1l2340:
  5758     0553  0852               	movf	i1___flmul@temp,w
  5759     0554  00C2               	movwf	??i1___flmul
  5760     0555  0853               	movf	i1___flmul@temp+1,w
  5761     0556  00C3               	movwf	??i1___flmul+1
  5762     0557  01C4               	clrf	??i1___flmul+2
  5763     0558  01C5               	clrf	??i1___flmul+3
  5764     0559  0842               	movf	??i1___flmul,w
  5765     055A  07CE               	addwf	i1___flmul@prod,f
  5766     055B  0843               	movf	??i1___flmul+1,w
  5767     055C  1103               	clrz
  5768     055D  1803               	skipnc
  5769     055E  3E01               	addlw	1
  5770     055F  1903               	skipnz
  5771     0560  2D62               	goto	u351_21
  5772     0561  07CF               	addwf	i1___flmul@prod+1,f
  5773     0562                     u351_21:
  5774     0562  0844               	movf	??i1___flmul+2,w
  5775     0563  1103               	clrz
  5776     0564  1803               	skipnc
  5777     0565  3E01               	addlw	1
  5778     0566  1903               	skipnz
  5779     0567  2D69               	goto	u351_22
  5780     0568  07D0               	addwf	i1___flmul@prod+2,f
  5781     0569                     u351_22:
  5782     0569  0845               	movf	??i1___flmul+3,w
  5783     056A  1103               	clrz
  5784     056B  1803               	skipnc
  5785     056C  3E01               	addlw	1
  5786     056D  1903               	skipnz
  5787     056E  2D70               	goto	u351_23
  5788     056F  07D1               	addwf	i1___flmul@prod+3,f
  5789     0570                     u351_23:
  5790     0570  083C               	movf	i1___flmul@b+2,w
  5791     0571  00F0               	movwf	i1__Umul8_16@multiplicand
  5792     0572  0840               	movf	i1___flmul@a+2,w
  5793     0573  160A  118A  261D  120A  118A  	fcall	i1__Umul8_16
  5794     0578  0871               	movf	?i1__Umul8_16+1,w
  5795     0579  1283               	bcf	3,5	;RP0=0, select bank0
  5796     057A  1303               	bcf	3,6	;RP1=0, select bank0
  5797     057B  00D3               	movwf	i1___flmul@temp+1
  5798     057C  0870               	movf	?i1__Umul8_16,w
  5799     057D  00D2               	movwf	i1___flmul@temp
  5800     057E                     i1l2342:
  5801     057E  0852               	movf	i1___flmul@temp,w
  5802     057F  00C2               	movwf	??i1___flmul
  5803     0580  0853               	movf	i1___flmul@temp+1,w
  5804     0581  00C3               	movwf	??i1___flmul+1
  5805     0582  01C4               	clrf	??i1___flmul+2
  5806     0583  01C5               	clrf	??i1___flmul+3
  5807     0584  3008               	movlw	8
  5808     0585                     u352_25:
  5809     0585  1003               	clrc
  5810     0586  0DC2               	rlf	??i1___flmul,f
  5811     0587  0DC3               	rlf	??i1___flmul+1,f
  5812     0588  0DC4               	rlf	??i1___flmul+2,f
  5813     0589  0DC5               	rlf	??i1___flmul+3,f
  5814     058A                     u352_20:
  5815     058A  3EFF               	addlw	-1
  5816     058B  1D03               	skipz
  5817     058C  2D85               	goto	u352_25
  5818     058D  0842               	movf	??i1___flmul,w
  5819     058E  07CE               	addwf	i1___flmul@prod,f
  5820     058F  0843               	movf	??i1___flmul+1,w
  5821     0590  1103               	clrz
  5822     0591  1803               	skipnc
  5823     0592  3E01               	addlw	1
  5824     0593  1903               	skipnz
  5825     0594  2D96               	goto	u353_21
  5826     0595  07CF               	addwf	i1___flmul@prod+1,f
  5827     0596                     u353_21:
  5828     0596  0844               	movf	??i1___flmul+2,w
  5829     0597  1103               	clrz
  5830     0598  1803               	skipnc
  5831     0599  3E01               	addlw	1
  5832     059A  1903               	skipnz
  5833     059B  2D9D               	goto	u353_22
  5834     059C  07D0               	addwf	i1___flmul@prod+2,f
  5835     059D                     u353_22:
  5836     059D  0845               	movf	??i1___flmul+3,w
  5837     059E  1103               	clrz
  5838     059F  1803               	skipnc
  5839     05A0  3E01               	addlw	1
  5840     05A1  1903               	skipnz
  5841     05A2  2DA4               	goto	u353_23
  5842     05A3  07D1               	addwf	i1___flmul@prod+3,f
  5843     05A4                     u353_23:
  5844     05A4                     i1l2344:
  5845     05A4  0848               	movf	i1___flmul@grs,w
  5846     05A5  00C2               	movwf	??i1___flmul
  5847     05A6  0849               	movf	i1___flmul@grs+1,w
  5848     05A7  00C3               	movwf	??i1___flmul+1
  5849     05A8  084A               	movf	i1___flmul@grs+2,w
  5850     05A9  00C4               	movwf	??i1___flmul+2
  5851     05AA  084B               	movf	i1___flmul@grs+3,w
  5852     05AB  00C5               	movwf	??i1___flmul+3
  5853     05AC  3018               	movlw	24
  5854     05AD                     u354_25:
  5855     05AD  1003               	clrc
  5856     05AE  0CC5               	rrf	??i1___flmul+3,f
  5857     05AF  0CC4               	rrf	??i1___flmul+2,f
  5858     05B0  0CC3               	rrf	??i1___flmul+1,f
  5859     05B1  0CC2               	rrf	??i1___flmul,f
  5860     05B2                     u354_20:
  5861     05B2  3EFF               	addlw	-1
  5862     05B3  1D03               	skipz
  5863     05B4  2DAD               	goto	u354_25
  5864     05B5  0842               	movf	??i1___flmul,w
  5865     05B6  07CE               	addwf	i1___flmul@prod,f
  5866     05B7  0843               	movf	??i1___flmul+1,w
  5867     05B8  1103               	clrz
  5868     05B9  1803               	skipnc
  5869     05BA  3E01               	addlw	1
  5870     05BB  1903               	skipnz
  5871     05BC  2DBE               	goto	u355_21
  5872     05BD  07CF               	addwf	i1___flmul@prod+1,f
  5873     05BE                     u355_21:
  5874     05BE  0844               	movf	??i1___flmul+2,w
  5875     05BF  1103               	clrz
  5876     05C0  1803               	skipnc
  5877     05C1  3E01               	addlw	1
  5878     05C2  1903               	skipnz
  5879     05C3  2DC5               	goto	u355_22
  5880     05C4  07D0               	addwf	i1___flmul@prod+2,f
  5881     05C5                     u355_22:
  5882     05C5  0845               	movf	??i1___flmul+3,w
  5883     05C6  1103               	clrz
  5884     05C7  1803               	skipnc
  5885     05C8  3E01               	addlw	1
  5886     05C9  1903               	skipnz
  5887     05CA  2DCC               	goto	u355_23
  5888     05CB  07D1               	addwf	i1___flmul@prod+3,f
  5889     05CC                     u355_23:
  5890     05CC                     i1l2346:
  5891     05CC  3008               	movlw	8
  5892     05CD  00C2               	movwf	??i1___flmul
  5893     05CE                     u356_25:
  5894     05CE  1003               	clrc
  5895     05CF  0DC8               	rlf	i1___flmul@grs,f
  5896     05D0  0DC9               	rlf	i1___flmul@grs+1,f
  5897     05D1  0DCA               	rlf	i1___flmul@grs+2,f
  5898     05D2  0DCB               	rlf	i1___flmul@grs+3,f
  5899     05D3  0BC2               	decfsz	??i1___flmul,f
  5900     05D4  2DCE               	goto	u356_25
  5901     05D5                     i1l2348:
  5902     05D5  084D               	movf	i1___flmul@bexp,w
  5903     05D6  074C               	addwf	i1___flmul@aexp,w
  5904     05D7  00C2               	movwf	??i1___flmul
  5905     05D8  01C3               	clrf	??i1___flmul+1
  5906     05D9  0DC3               	rlf	??i1___flmul+1,f
  5907     05DA  0842               	movf	??i1___flmul,w
  5908     05DB  3E82               	addlw	130
  5909     05DC  00D2               	movwf	i1___flmul@temp
  5910     05DD  0843               	movf	??i1___flmul+1,w
  5911     05DE  1803               	skipnc
  5912     05DF  3E01               	addlw	1
  5913     05E0  3EFF               	addlw	255
  5914     05E1  00D3               	movwf	i1___flmul@temp+1
  5915     05E2  2E00               	goto	i1l2360
  5916     05E3                     i1l2350:
  5917     05E3  3001               	movlw	1
  5918     05E4  00C2               	movwf	??i1___flmul
  5919     05E5                     u357_25:
  5920     05E5  1003               	clrc
  5921     05E6  0DCE               	rlf	i1___flmul@prod,f
  5922     05E7  0DCF               	rlf	i1___flmul@prod+1,f
  5923     05E8  0DD0               	rlf	i1___flmul@prod+2,f
  5924     05E9  0DD1               	rlf	i1___flmul@prod+3,f
  5925     05EA  0BC2               	decfsz	??i1___flmul,f
  5926     05EB  2DE5               	goto	u357_25
  5927     05EC                     i1l2352:
  5928     05EC  1FCB               	btfss	i1___flmul@grs+3,7
  5929     05ED  2DEF               	goto	u358_21
  5930     05EE  2DF0               	goto	u358_20
  5931     05EF                     u358_21:
  5932     05EF  2DF1               	goto	i1l2356
  5933     05F0                     u358_20:
  5934     05F0                     i1l2354:
  5935     05F0  144E               	bsf	i1___flmul@prod,0
  5936     05F1                     i1l2356:
  5937     05F1  3001               	movlw	1
  5938     05F2  00C2               	movwf	??i1___flmul
  5939     05F3                     u359_25:
  5940     05F3  1003               	clrc
  5941     05F4  0DC8               	rlf	i1___flmul@grs,f
  5942     05F5  0DC9               	rlf	i1___flmul@grs+1,f
  5943     05F6  0DCA               	rlf	i1___flmul@grs+2,f
  5944     05F7  0DCB               	rlf	i1___flmul@grs+3,f
  5945     05F8  0BC2               	decfsz	??i1___flmul,f
  5946     05F9  2DF3               	goto	u359_25
  5947     05FA                     i1l2358:
  5948     05FA  30FF               	movlw	255
  5949     05FB  07D2               	addwf	i1___flmul@temp,f
  5950     05FC  1803               	skipnc
  5951     05FD  0AD3               	incf	i1___flmul@temp+1,f
  5952     05FE  30FF               	movlw	255
  5953     05FF  07D3               	addwf	i1___flmul@temp+1,f
  5954     0600                     i1l2360:
  5955     0600  1FD0               	btfss	i1___flmul@prod+2,7
  5956     0601  2E03               	goto	u360_21
  5957     0602  2E04               	goto	u360_20
  5958     0603                     u360_21:
  5959     0603  2DE3               	goto	i1l2350
  5960     0604                     u360_20:
  5961     0604                     i1l2362:
  5962     0604  01CC               	clrf	i1___flmul@aexp
  5963     0605                     i1l2364:
  5964     0605  1FCB               	btfss	i1___flmul@grs+3,7
  5965     0606  2E08               	goto	u361_21
  5966     0607  2E09               	goto	u361_20
  5967     0608                     u361_21:
  5968     0608  2E25               	goto	i1l2372
  5969     0609                     u361_20:
  5970     0609                     i1l2366:
  5971     0609  30FF               	movlw	255
  5972     060A  0548               	andwf	i1___flmul@grs,w
  5973     060B  00C2               	movwf	??i1___flmul
  5974     060C  30FF               	movlw	255
  5975     060D  0549               	andwf	i1___flmul@grs+1,w
  5976     060E  00C3               	movwf	??i1___flmul+1
  5977     060F  30FF               	movlw	255
  5978     0610  054A               	andwf	i1___flmul@grs+2,w
  5979     0611  00C4               	movwf	??i1___flmul+2
  5980     0612  307F               	movlw	127
  5981     0613  054B               	andwf	i1___flmul@grs+3,w
  5982     0614  00C5               	movwf	??i1___flmul+3
  5983     0615  0845               	movf	??i1___flmul+3,w
  5984     0616  0444               	iorwf	??i1___flmul+2,w
  5985     0617  0443               	iorwf	??i1___flmul+1,w
  5986     0618  0442               	iorwf	??i1___flmul,w
  5987     0619  1903               	skipnz
  5988     061A  2E1C               	goto	u362_21
  5989     061B  2E1D               	goto	u362_20
  5990     061C                     u362_21:
  5991     061C  2E20               	goto	i1l621
  5992     061D                     u362_20:
  5993     061D                     i1l2368:
  5994     061D  01CC               	clrf	i1___flmul@aexp
  5995     061E  0ACC               	incf	i1___flmul@aexp,f
  5996     061F  2E25               	goto	i1l2372
  5997     0620                     i1l621:
  5998     0620  1C4E               	btfss	i1___flmul@prod,0
  5999     0621  2E23               	goto	u363_21
  6000     0622  2E24               	goto	u363_20
  6001     0623                     u363_21:
  6002     0623  2E25               	goto	i1l2372
  6003     0624                     u363_20:
  6004     0624  2E1D               	goto	i1l2368
  6005     0625                     i1l2372:
  6006     0625  084C               	movf	i1___flmul@aexp,w
  6007     0626  1903               	btfsc	3,2
  6008     0627  2E29               	goto	u364_21
  6009     0628  2E2A               	goto	u364_20
  6010     0629                     u364_21:
  6011     0629  2E5B               	goto	i1l2382
  6012     062A                     u364_20:
  6013     062A                     i1l2374:
  6014     062A  3001               	movlw	1
  6015     062B  07CE               	addwf	i1___flmul@prod,f
  6016     062C  3000               	movlw	0
  6017     062D  1803               	skipnc
  6018     062E  3001               	movlw	1
  6019     062F  07CF               	addwf	i1___flmul@prod+1,f
  6020     0630  3000               	movlw	0
  6021     0631  1803               	skipnc
  6022     0632  3001               	movlw	1
  6023     0633  07D0               	addwf	i1___flmul@prod+2,f
  6024     0634  3000               	movlw	0
  6025     0635  1803               	skipnc
  6026     0636  3001               	movlw	1
  6027     0637  07D1               	addwf	i1___flmul@prod+3,f
  6028     0638                     i1l2376:
  6029     0638  1C51               	btfss	i1___flmul@prod+3,0
  6030     0639  2E3B               	goto	u365_21
  6031     063A  2E3C               	goto	u365_20
  6032     063B                     u365_21:
  6033     063B  2E5B               	goto	i1l2382
  6034     063C                     u365_20:
  6035     063C                     i1l2378:
  6036     063C  084E               	movf	i1___flmul@prod,w
  6037     063D  00C2               	movwf	??i1___flmul
  6038     063E  084F               	movf	i1___flmul@prod+1,w
  6039     063F  00C3               	movwf	??i1___flmul+1
  6040     0640  0850               	movf	i1___flmul@prod+2,w
  6041     0641  00C4               	movwf	??i1___flmul+2
  6042     0642  0851               	movf	i1___flmul@prod+3,w
  6043     0643  00C5               	movwf	??i1___flmul+3
  6044     0644  3001               	movlw	1
  6045     0645  00C6               	movwf	??i1___flmul+4
  6046     0646                     u366_25:
  6047     0646  0D45               	rlf	??i1___flmul+3,w
  6048     0647  0CC5               	rrf	??i1___flmul+3,f
  6049     0648  0CC4               	rrf	??i1___flmul+2,f
  6050     0649  0CC3               	rrf	??i1___flmul+1,f
  6051     064A  0CC2               	rrf	??i1___flmul,f
  6052     064B                     u366_20:
  6053     064B  0BC6               	decfsz	??i1___flmul+4,f
  6054     064C  2E46               	goto	u366_25
  6055     064D  0845               	movf	??i1___flmul+3,w
  6056     064E  00D1               	movwf	i1___flmul@prod+3
  6057     064F  0844               	movf	??i1___flmul+2,w
  6058     0650  00D0               	movwf	i1___flmul@prod+2
  6059     0651  0843               	movf	??i1___flmul+1,w
  6060     0652  00CF               	movwf	i1___flmul@prod+1
  6061     0653  0842               	movf	??i1___flmul,w
  6062     0654  00CE               	movwf	i1___flmul@prod
  6063     0655                     i1l2380:
  6064     0655  3001               	movlw	1
  6065     0656  07D2               	addwf	i1___flmul@temp,f
  6066     0657  1803               	skipnc
  6067     0658  0AD3               	incf	i1___flmul@temp+1,f
  6068     0659  3000               	movlw	0
  6069     065A  07D3               	addwf	i1___flmul@temp+1,f
  6070     065B                     i1l2382:
  6071     065B  0853               	movf	i1___flmul@temp+1,w
  6072     065C  3A80               	xorlw	128
  6073     065D  00FF               	movwf	btemp+1
  6074     065E  3080               	movlw	128
  6075     065F  027F               	subwf	btemp+1,w
  6076     0660  1D03               	skipz
  6077     0661  2E64               	goto	u367_25
  6078     0662  30FF               	movlw	255
  6079     0663  0252               	subwf	i1___flmul@temp,w
  6080     0664                     u367_25:
  6081     0664  1C03               	skipc
  6082     0665  2E67               	goto	u367_21
  6083     0666  2E68               	goto	u367_20
  6084     0667                     u367_21:
  6085     0667  2E73               	goto	i1l2386
  6086     0668                     u367_20:
  6087     0668                     i1l2384:
  6088     0668  307F               	movlw	127
  6089     0669  1283               	bcf	3,5	;RP0=0, select bank0
  6090     066A  1303               	bcf	3,6	;RP1=0, select bank0
  6091     066B  00D1               	movwf	i1___flmul@prod+3
  6092     066C  3080               	movlw	128
  6093     066D  00D0               	movwf	i1___flmul@prod+2
  6094     066E  3000               	movlw	0
  6095     066F  00CF               	movwf	i1___flmul@prod+1
  6096     0670  3000               	movlw	0
  6097     0671  00CE               	movwf	i1___flmul@prod
  6098     0672  2EA4               	goto	i1l627
  6099     0673                     i1l2386:
  6100     0673  1283               	bcf	3,5	;RP0=0, select bank0
  6101     0674  1303               	bcf	3,6	;RP1=0, select bank0
  6102     0675  0853               	movf	i1___flmul@temp+1,w
  6103     0676  3A80               	xorlw	128
  6104     0677  00FF               	movwf	btemp+1
  6105     0678  3080               	movlw	128
  6106     0679  027F               	subwf	btemp+1,w
  6107     067A  1D03               	skipz
  6108     067B  2E7E               	goto	u368_25
  6109     067C  3001               	movlw	1
  6110     067D  0252               	subwf	i1___flmul@temp,w
  6111     067E                     u368_25:
  6112     067E  1803               	skipnc
  6113     067F  2E81               	goto	u368_21
  6114     0680  2E82               	goto	u368_20
  6115     0681                     u368_21:
  6116     0681  2E8E               	goto	i1l2392
  6117     0682                     u368_20:
  6118     0682                     i1l2388:
  6119     0682  3000               	movlw	0
  6120     0683  1283               	bcf	3,5	;RP0=0, select bank0
  6121     0684  1303               	bcf	3,6	;RP1=0, select bank0
  6122     0685  00D1               	movwf	i1___flmul@prod+3
  6123     0686  3000               	movlw	0
  6124     0687  00D0               	movwf	i1___flmul@prod+2
  6125     0688  3000               	movlw	0
  6126     0689  00CF               	movwf	i1___flmul@prod+1
  6127     068A  3000               	movlw	0
  6128     068B  00CE               	movwf	i1___flmul@prod
  6129     068C                     i1l2390:
  6130     068C  01C7               	clrf	i1___flmul@sign
  6131     068D  2EA4               	goto	i1l627
  6132     068E                     i1l2392:
  6133     068E  1283               	bcf	3,5	;RP0=0, select bank0
  6134     068F  1303               	bcf	3,6	;RP1=0, select bank0
  6135     0690  0852               	movf	i1___flmul@temp,w
  6136     0691  00CD               	movwf	i1___flmul@bexp
  6137     0692  30FF               	movlw	255
  6138     0693  05CE               	andwf	i1___flmul@prod,f
  6139     0694  30FF               	movlw	255
  6140     0695  05CF               	andwf	i1___flmul@prod+1,f
  6141     0696  307F               	movlw	127
  6142     0697  05D0               	andwf	i1___flmul@prod+2,f
  6143     0698  3000               	movlw	0
  6144     0699  05D1               	andwf	i1___flmul@prod+3,f
  6145     069A                     i1l2394:
  6146     069A  1C4D               	btfss	i1___flmul@bexp,0
  6147     069B  2E9D               	goto	u369_21
  6148     069C  2E9E               	goto	u369_20
  6149     069D                     u369_21:
  6150     069D  2E9F               	goto	i1l2398
  6151     069E                     u369_20:
  6152     069E                     i1l2396:
  6153     069E  17D0               	bsf	i1___flmul@prod+2,7
  6154     069F                     i1l2398:
  6155     069F  084D               	movf	i1___flmul@bexp,w
  6156     06A0  00C2               	movwf	??i1___flmul
  6157     06A1  1003               	clrc
  6158     06A2  0C42               	rrf	??i1___flmul,w
  6159     06A3  00D1               	movwf	i1___flmul@prod+3
  6160     06A4                     i1l627:
  6161     06A4  0847               	movf	i1___flmul@sign,w
  6162     06A5  00C2               	movwf	??i1___flmul
  6163     06A6  0842               	movf	??i1___flmul,w
  6164     06A7  04D1               	iorwf	i1___flmul@prod+3,f
  6165     06A8                     i1l2400:
  6166     06A8  0851               	movf	i1___flmul@prod+3,w
  6167     06A9  00BD               	movwf	?i1___flmul+3
  6168     06AA  0850               	movf	i1___flmul@prod+2,w
  6169     06AB  00BC               	movwf	?i1___flmul+2
  6170     06AC  084F               	movf	i1___flmul@prod+1,w
  6171     06AD  00BB               	movwf	?i1___flmul+1
  6172     06AE  084E               	movf	i1___flmul@prod,w
  6173     06AF  00BA               	movwf	?i1___flmul
  6174     06B0                     i1l615:
  6175     06B0  0008               	return
  6176     06B1                     __end_ofi1___flmul:
  6177                           
  6178                           	psect	text14
  6179     161D                     __ptext14:	
  6180 ;; *************** function i1__Umul8_16 *****************
  6181 ;; Defined at:
  6182 ;;		line 4 in file "C:\Program Files\Microchip\xc8\v2.40\pic\sources\c90\common\Umul8_16.c"
  6183 ;; Parameters:    Size  Location     Type
  6184 ;;  multiplier      1    wreg     unsigned char 
  6185 ;;  multiplicand    1    0[COMMON] unsigned char 
  6186 ;; Auto vars:     Size  Location     Type
  6187 ;;  multiplier      1    8[COMMON] unsigned char 
  6188 ;;  word_mpld       2    6[COMMON] unsigned int 
  6189 ;;  product         2    4[COMMON] unsigned int 
  6190 ;; Return value:  Size  Location     Type
  6191 ;;                  2    0[COMMON] unsigned int 
  6192 ;; Registers used:
  6193 ;;		wreg, status,2, status,0
  6194 ;; Tracked objects:
  6195 ;;		On entry : 0/0
  6196 ;;		On exit  : 0/0
  6197 ;;		Unchanged: 0/0
  6198 ;; Data sizes:     COMMON   BANK0   BANK1   BANK3   BANK2
  6199 ;;      Params:         2       0       0       0       0
  6200 ;;      Locals:         5       0       0       0       0
  6201 ;;      Temps:          2       0       0       0       0
  6202 ;;      Totals:         9       0       0       0       0
  6203 ;;Total ram usage:        9 bytes
  6204 ;; Hardware stack levels used: 1
  6205 ;; This function calls:
  6206 ;;		Nothing
  6207 ;; This function is called by:
  6208 ;;		i1___flmul
  6209 ;; This function uses a non-reentrant model
  6210 ;;
  6211                           
  6212     161D                     i1__Umul8_16:	
  6213                           ;psect for function i1__Umul8_16
  6214                           
  6215                           
  6216                           ;incstack = 0
  6217                           ; Regs used in i1__Umul8_16: [wreg+status,2+status,0]
  6218                           ;i1__Umul8_16@multiplier stored from wreg
  6219     161D  00F8               	movwf	i1__Umul8_16@multiplier
  6220     161E                     i1l2016:
  6221     161E  01F4               	clrf	i1__Umul8_16@product
  6222     161F  01F5               	clrf	i1__Umul8_16@product+1
  6223     1620                     i1l2018:
  6224     1620  0870               	movf	i1__Umul8_16@multiplicand,w
  6225     1621  00F2               	movwf	??i1__Umul8_16
  6226     1622  01F3               	clrf	??i1__Umul8_16+1
  6227     1623  0872               	movf	??i1__Umul8_16,w
  6228     1624  00F6               	movwf	i1__Umul8_16@word_mpld
  6229     1625  0873               	movf	??i1__Umul8_16+1,w
  6230     1626  00F7               	movwf	i1__Umul8_16@word_mpld+1
  6231     1627                     i1l2020:
  6232     1627  1C78               	btfss	i1__Umul8_16@multiplier,0
  6233     1628  2E2A               	goto	u285_21
  6234     1629  2E2B               	goto	u285_20
  6235     162A                     u285_21:
  6236     162A  2E31               	goto	i1l634
  6237     162B                     u285_20:
  6238     162B                     i1l2022:
  6239     162B  0876               	movf	i1__Umul8_16@word_mpld,w
  6240     162C  07F4               	addwf	i1__Umul8_16@product,f
  6241     162D  1803               	skipnc
  6242     162E  0AF5               	incf	i1__Umul8_16@product+1,f
  6243     162F  0877               	movf	i1__Umul8_16@word_mpld+1,w
  6244     1630  07F5               	addwf	i1__Umul8_16@product+1,f
  6245     1631                     i1l634:
  6246     1631  3001               	movlw	1
  6247     1632                     u286_25:
  6248     1632  1003               	clrc
  6249     1633  0DF6               	rlf	i1__Umul8_16@word_mpld,f
  6250     1634  0DF7               	rlf	i1__Umul8_16@word_mpld+1,f
  6251     1635  3EFF               	addlw	-1
  6252     1636  1D03               	skipz
  6253     1637  2E32               	goto	u286_25
  6254     1638  1003               	clrc
  6255     1639  0CF8               	rrf	i1__Umul8_16@multiplier,f
  6256     163A                     i1l2024:
  6257     163A  0878               	movf	i1__Umul8_16@multiplier,w
  6258     163B  1D03               	btfss	3,2
  6259     163C  2E3E               	goto	u287_21
  6260     163D  2E3F               	goto	u287_20
  6261     163E                     u287_21:
  6262     163E  2E27               	goto	i1l2020
  6263     163F                     u287_20:
  6264     163F                     i1l2026:
  6265     163F  0875               	movf	i1__Umul8_16@product+1,w
  6266     1640  00F1               	movwf	?i1__Umul8_16+1
  6267     1641  0874               	movf	i1__Umul8_16@product,w
  6268     1642  00F0               	movwf	?i1__Umul8_16
  6269     1643                     i1l636:
  6270     1643  0008               	return
  6271     1644                     __end_ofi1__Umul8_16:
  6272                           
  6273                           	psect	text15
  6274     0C5A                     __ptext15:	
  6275 ;; *************** function i1___fldiv *****************
  6276 ;; Defined at:
  6277 ;;		line 8 in file "C:\Program Files\Microchip\xc8\v2.40\pic\sources\c90\common\sprcdiv.c"
  6278 ;; Parameters:    Size  Location     Type
  6279 ;;  a               4    0[BANK0 ] unsigned int 
  6280 ;;  b               4    4[BANK0 ] unsigned int 
  6281 ;; Auto vars:     Size  Location     Type
  6282 ;;  grs             4   20[BANK0 ] unsigned long 
  6283 ;;  rem             4   13[BANK0 ] unsigned long 
  6284 ;;  new_exp         2   18[BANK0 ] int 
  6285 ;;  aexp            1   25[BANK0 ] unsigned char 
  6286 ;;  bexp            1   24[BANK0 ] unsigned char 
  6287 ;;  sign            1   17[BANK0 ] unsigned char 
  6288 ;; Return value:  Size  Location     Type
  6289 ;;                  4    0[BANK0 ] unsigned char 
  6290 ;; Registers used:
  6291 ;;		wreg, status,2, status,0, btemp+1
  6292 ;; Tracked objects:
  6293 ;;		On entry : 0/0
  6294 ;;		On exit  : 0/0
  6295 ;;		Unchanged: 0/0
  6296 ;; Data sizes:     COMMON   BANK0   BANK1   BANK3   BANK2
  6297 ;;      Params:         0       8       0       0       0
  6298 ;;      Locals:         0      13       0       0       0
  6299 ;;      Temps:          0       5       0       0       0
  6300 ;;      Totals:         0      26       0       0       0
  6301 ;;Total ram usage:       26 bytes
  6302 ;; Hardware stack levels used: 1
  6303 ;; This function calls:
  6304 ;;		Nothing
  6305 ;; This function is called by:
  6306 ;;		_isr
  6307 ;;		i1_PWM_duty
  6308 ;; This function uses a non-reentrant model
  6309 ;;
  6310                           
  6311     0C5A                     i1___fldiv:	
  6312                           ;psect for function i1___fldiv
  6313                           
  6314     0C5A                     i1l2122:	
  6315                           ;incstack = 0
  6316                           ; Regs used in i1___fldiv: [wreg+status,2+status,0+btemp+1]
  6317                           
  6318     0C5A  1283               	bcf	3,5	;RP0=0, select bank0
  6319     0C5B  1303               	bcf	3,6	;RP1=0, select bank0
  6320     0C5C  0827               	movf	i1___fldiv@b+3,w
  6321     0C5D  3980               	andlw	128
  6322     0C5E  00B1               	movwf	i1___fldiv@sign
  6323     0C5F                     i1l2124:
  6324     0C5F  0827               	movf	i1___fldiv@b+3,w
  6325     0C60  00A8               	movwf	??i1___fldiv
  6326     0C61  0728               	addwf	??i1___fldiv,w
  6327     0C62  00B8               	movwf	i1___fldiv@bexp
  6328     0C63                     i1l2126:
  6329     0C63  1FA6               	btfss	i1___fldiv@b+2,7
  6330     0C64  2C66               	goto	u304_21
  6331     0C65  2C67               	goto	u304_20
  6332     0C66                     u304_21:
  6333     0C66  2C68               	goto	i1l2130
  6334     0C67                     u304_20:
  6335     0C67                     i1l2128:
  6336     0C67  1438               	bsf	i1___fldiv@bexp,0
  6337     0C68                     i1l2130:
  6338     0C68  0838               	movf	i1___fldiv@bexp,w
  6339     0C69  1903               	btfsc	3,2
  6340     0C6A  2C6C               	goto	u305_21
  6341     0C6B  2C6D               	goto	u305_20
  6342     0C6C                     u305_21:
  6343     0C6C  2C7D               	goto	i1l2140
  6344     0C6D                     u305_20:
  6345     0C6D                     i1l2132:
  6346     0C6D  0A38               	incf	i1___fldiv@bexp,w
  6347     0C6E  1D03               	btfss	3,2
  6348     0C6F  2C71               	goto	u306_21
  6349     0C70  2C72               	goto	u306_20
  6350     0C71                     u306_21:
  6351     0C71  2C7A               	goto	i1l2136
  6352     0C72                     u306_20:
  6353     0C72                     i1l2134:
  6354     0C72  3000               	movlw	0
  6355     0C73  00A7               	movwf	i1___fldiv@b+3
  6356     0C74  3000               	movlw	0
  6357     0C75  00A6               	movwf	i1___fldiv@b+2
  6358     0C76  3000               	movlw	0
  6359     0C77  00A5               	movwf	i1___fldiv@b+1
  6360     0C78  3000               	movlw	0
  6361     0C79  00A4               	movwf	i1___fldiv@b
  6362     0C7A                     i1l2136:
  6363     0C7A  17A6               	bsf	i1___fldiv@b+2,7
  6364     0C7B                     i1l2138:
  6365     0C7B  01A7               	clrf	i1___fldiv@b+3
  6366     0C7C  2C85               	goto	i1l2142
  6367     0C7D                     i1l2140:
  6368     0C7D  3000               	movlw	0
  6369     0C7E  00A7               	movwf	i1___fldiv@b+3
  6370     0C7F  3000               	movlw	0
  6371     0C80  00A6               	movwf	i1___fldiv@b+2
  6372     0C81  3000               	movlw	0
  6373     0C82  00A5               	movwf	i1___fldiv@b+1
  6374     0C83  3000               	movlw	0
  6375     0C84  00A4               	movwf	i1___fldiv@b
  6376     0C85                     i1l2142:
  6377     0C85  0823               	movf	i1___fldiv@a+3,w
  6378     0C86  3980               	andlw	128
  6379     0C87  00A8               	movwf	??i1___fldiv
  6380     0C88  0828               	movf	??i1___fldiv,w
  6381     0C89  06B1               	xorwf	i1___fldiv@sign,f
  6382     0C8A                     i1l2144:
  6383     0C8A  0823               	movf	i1___fldiv@a+3,w
  6384     0C8B  00A8               	movwf	??i1___fldiv
  6385     0C8C  0728               	addwf	??i1___fldiv,w
  6386     0C8D  00B9               	movwf	i1___fldiv@aexp
  6387     0C8E                     i1l2146:
  6388     0C8E  1FA2               	btfss	i1___fldiv@a+2,7
  6389     0C8F  2C91               	goto	u307_21
  6390     0C90  2C92               	goto	u307_20
  6391     0C91                     u307_21:
  6392     0C91  2C93               	goto	i1l2150
  6393     0C92                     u307_20:
  6394     0C92                     i1l2148:
  6395     0C92  1439               	bsf	i1___fldiv@aexp,0
  6396     0C93                     i1l2150:
  6397     0C93  0839               	movf	i1___fldiv@aexp,w
  6398     0C94  1903               	btfsc	3,2
  6399     0C95  2C97               	goto	u308_21
  6400     0C96  2C98               	goto	u308_20
  6401     0C97                     u308_21:
  6402     0C97  2CA8               	goto	i1l2160
  6403     0C98                     u308_20:
  6404     0C98                     i1l2152:
  6405     0C98  0A39               	incf	i1___fldiv@aexp,w
  6406     0C99  1D03               	btfss	3,2
  6407     0C9A  2C9C               	goto	u309_21
  6408     0C9B  2C9D               	goto	u309_20
  6409     0C9C                     u309_21:
  6410     0C9C  2CA5               	goto	i1l2156
  6411     0C9D                     u309_20:
  6412     0C9D                     i1l2154:
  6413     0C9D  3000               	movlw	0
  6414     0C9E  00A3               	movwf	i1___fldiv@a+3
  6415     0C9F  3000               	movlw	0
  6416     0CA0  00A2               	movwf	i1___fldiv@a+2
  6417     0CA1  3000               	movlw	0
  6418     0CA2  00A1               	movwf	i1___fldiv@a+1
  6419     0CA3  3000               	movlw	0
  6420     0CA4  00A0               	movwf	i1___fldiv@a
  6421     0CA5                     i1l2156:
  6422     0CA5  17A2               	bsf	i1___fldiv@a+2,7
  6423     0CA6                     i1l2158:
  6424     0CA6  01A3               	clrf	i1___fldiv@a+3
  6425     0CA7  2CB0               	goto	i1l575
  6426     0CA8                     i1l2160:
  6427     0CA8  3000               	movlw	0
  6428     0CA9  00A3               	movwf	i1___fldiv@a+3
  6429     0CAA  3000               	movlw	0
  6430     0CAB  00A2               	movwf	i1___fldiv@a+2
  6431     0CAC  3000               	movlw	0
  6432     0CAD  00A1               	movwf	i1___fldiv@a+1
  6433     0CAE  3000               	movlw	0
  6434     0CAF  00A0               	movwf	i1___fldiv@a
  6435     0CB0                     i1l575:
  6436     0CB0  0823               	movf	i1___fldiv@a+3,w
  6437     0CB1  0422               	iorwf	i1___fldiv@a+2,w
  6438     0CB2  0421               	iorwf	i1___fldiv@a+1,w
  6439     0CB3  0420               	iorwf	i1___fldiv@a,w
  6440     0CB4  1D03               	skipz
  6441     0CB5  2CB7               	goto	u310_21
  6442     0CB6  2CB8               	goto	u310_20
  6443     0CB7                     u310_21:
  6444     0CB7  2CD1               	goto	i1l2170
  6445     0CB8                     u310_20:
  6446     0CB8                     i1l2162:
  6447     0CB8  3000               	movlw	0
  6448     0CB9  00A7               	movwf	i1___fldiv@b+3
  6449     0CBA  3000               	movlw	0
  6450     0CBB  00A6               	movwf	i1___fldiv@b+2
  6451     0CBC  3000               	movlw	0
  6452     0CBD  00A5               	movwf	i1___fldiv@b+1
  6453     0CBE  3000               	movlw	0
  6454     0CBF  00A4               	movwf	i1___fldiv@b
  6455     0CC0  3080               	movlw	128
  6456     0CC1  04A6               	iorwf	i1___fldiv@b+2,f
  6457     0CC2  307F               	movlw	127
  6458     0CC3  04A7               	iorwf	i1___fldiv@b+3,f
  6459     0CC4                     i1l2164:
  6460     0CC4  0831               	movf	i1___fldiv@sign,w
  6461     0CC5  00A8               	movwf	??i1___fldiv
  6462     0CC6  0828               	movf	??i1___fldiv,w
  6463     0CC7  04A7               	iorwf	i1___fldiv@b+3,f
  6464     0CC8                     i1l2166:
  6465     0CC8  0827               	movf	i1___fldiv@b+3,w
  6466     0CC9  00A3               	movwf	?i1___fldiv+3
  6467     0CCA  0826               	movf	i1___fldiv@b+2,w
  6468     0CCB  00A2               	movwf	?i1___fldiv+2
  6469     0CCC  0825               	movf	i1___fldiv@b+1,w
  6470     0CCD  00A1               	movwf	?i1___fldiv+1
  6471     0CCE  0824               	movf	i1___fldiv@b,w
  6472     0CCF  00A0               	movwf	?i1___fldiv
  6473     0CD0  2E2C               	goto	i1l577
  6474     0CD1                     i1l2170:
  6475     0CD1  0838               	movf	i1___fldiv@bexp,w
  6476     0CD2  1D03               	btfss	3,2
  6477     0CD3  2CD5               	goto	u311_21
  6478     0CD4  2CD6               	goto	u311_20
  6479     0CD5                     u311_21:
  6480     0CD5  2CDF               	goto	i1l2176
  6481     0CD6                     u311_20:
  6482     0CD6                     i1l2172:
  6483     0CD6  3000               	movlw	0
  6484     0CD7  00A3               	movwf	?i1___fldiv+3
  6485     0CD8  3000               	movlw	0
  6486     0CD9  00A2               	movwf	?i1___fldiv+2
  6487     0CDA  3000               	movlw	0
  6488     0CDB  00A1               	movwf	?i1___fldiv+1
  6489     0CDC  3000               	movlw	0
  6490     0CDD  00A0               	movwf	?i1___fldiv
  6491     0CDE  2E2C               	goto	i1l577
  6492     0CDF                     i1l2176:
  6493     0CDF  0838               	movf	i1___fldiv@bexp,w
  6494     0CE0  00A8               	movwf	??i1___fldiv
  6495     0CE1  01A9               	clrf	??i1___fldiv+1
  6496     0CE2  0829               	movf	??i1___fldiv+1,w
  6497     0CE3  00AB               	movwf	??i1___fldiv+3
  6498     0CE4  0839               	movf	i1___fldiv@aexp,w
  6499     0CE5  0228               	subwf	??i1___fldiv,w
  6500     0CE6  00AA               	movwf	??i1___fldiv+2
  6501     0CE7  1C03               	skipc
  6502     0CE8  03AB               	decf	??i1___fldiv+3,f
  6503     0CE9  082A               	movf	??i1___fldiv+2,w
  6504     0CEA  3E7F               	addlw	127
  6505     0CEB  00B2               	movwf	i1___fldiv@new_exp
  6506     0CEC  082B               	movf	??i1___fldiv+3,w
  6507     0CED  1803               	skipnc
  6508     0CEE  3E01               	addlw	1
  6509     0CEF  3E00               	addlw	0
  6510     0CF0  00B3               	movwf	i1___fldiv@new_exp+1
  6511     0CF1                     i1l2178:
  6512     0CF1  0827               	movf	i1___fldiv@b+3,w
  6513     0CF2  00B0               	movwf	i1___fldiv@rem+3
  6514     0CF3  0826               	movf	i1___fldiv@b+2,w
  6515     0CF4  00AF               	movwf	i1___fldiv@rem+2
  6516     0CF5  0825               	movf	i1___fldiv@b+1,w
  6517     0CF6  00AE               	movwf	i1___fldiv@rem+1
  6518     0CF7  0824               	movf	i1___fldiv@b,w
  6519     0CF8  00AD               	movwf	i1___fldiv@rem
  6520     0CF9                     i1l2180:
  6521     0CF9  3000               	movlw	0
  6522     0CFA  00A7               	movwf	i1___fldiv@b+3
  6523     0CFB  3000               	movlw	0
  6524     0CFC  00A6               	movwf	i1___fldiv@b+2
  6525     0CFD  3000               	movlw	0
  6526     0CFE  00A5               	movwf	i1___fldiv@b+1
  6527     0CFF  3000               	movlw	0
  6528     0D00  00A4               	movwf	i1___fldiv@b
  6529     0D01                     i1l2182:
  6530     0D01  3000               	movlw	0
  6531     0D02  00B7               	movwf	i1___fldiv@grs+3
  6532     0D03  3000               	movlw	0
  6533     0D04  00B6               	movwf	i1___fldiv@grs+2
  6534     0D05  3000               	movlw	0
  6535     0D06  00B5               	movwf	i1___fldiv@grs+1
  6536     0D07  3000               	movlw	0
  6537     0D08  00B4               	movwf	i1___fldiv@grs
  6538     0D09                     i1l2184:
  6539     0D09  01B9               	clrf	i1___fldiv@aexp
  6540     0D0A  2D55               	goto	i1l2204
  6541     0D0B                     i1l2186:
  6542     0D0B  0839               	movf	i1___fldiv@aexp,w
  6543     0D0C  1903               	btfsc	3,2
  6544     0D0D  2D0F               	goto	u312_21
  6545     0D0E  2D10               	goto	u312_20
  6546     0D0F                     u312_21:
  6547     0D0F  2D30               	goto	i1l2196
  6548     0D10                     u312_20:
  6549     0D10                     i1l2188:
  6550     0D10  3001               	movlw	1
  6551     0D11  00A8               	movwf	??i1___fldiv
  6552     0D12                     u313_25:
  6553     0D12  1003               	clrc
  6554     0D13  0DAD               	rlf	i1___fldiv@rem,f
  6555     0D14  0DAE               	rlf	i1___fldiv@rem+1,f
  6556     0D15  0DAF               	rlf	i1___fldiv@rem+2,f
  6557     0D16  0DB0               	rlf	i1___fldiv@rem+3,f
  6558     0D17  0BA8               	decfsz	??i1___fldiv,f
  6559     0D18  2D12               	goto	u313_25
  6560     0D19  3001               	movlw	1
  6561     0D1A  00A8               	movwf	??i1___fldiv
  6562     0D1B                     u314_25:
  6563     0D1B  1003               	clrc
  6564     0D1C  0DA4               	rlf	i1___fldiv@b,f
  6565     0D1D  0DA5               	rlf	i1___fldiv@b+1,f
  6566     0D1E  0DA6               	rlf	i1___fldiv@b+2,f
  6567     0D1F  0DA7               	rlf	i1___fldiv@b+3,f
  6568     0D20  0BA8               	decfsz	??i1___fldiv,f
  6569     0D21  2D1B               	goto	u314_25
  6570     0D22                     i1l2190:
  6571     0D22  1FB7               	btfss	i1___fldiv@grs+3,7
  6572     0D23  2D25               	goto	u315_21
  6573     0D24  2D26               	goto	u315_20
  6574     0D25                     u315_21:
  6575     0D25  2D27               	goto	i1l2194
  6576     0D26                     u315_20:
  6577     0D26                     i1l2192:
  6578     0D26  1424               	bsf	i1___fldiv@b,0
  6579     0D27                     i1l2194:
  6580     0D27  3001               	movlw	1
  6581     0D28  00A8               	movwf	??i1___fldiv
  6582     0D29                     u316_25:
  6583     0D29  1003               	clrc
  6584     0D2A  0DB4               	rlf	i1___fldiv@grs,f
  6585     0D2B  0DB5               	rlf	i1___fldiv@grs+1,f
  6586     0D2C  0DB6               	rlf	i1___fldiv@grs+2,f
  6587     0D2D  0DB7               	rlf	i1___fldiv@grs+3,f
  6588     0D2E  0BA8               	decfsz	??i1___fldiv,f
  6589     0D2F  2D29               	goto	u316_25
  6590     0D30                     i1l2196:
  6591     0D30  0823               	movf	i1___fldiv@a+3,w
  6592     0D31  0230               	subwf	i1___fldiv@rem+3,w
  6593     0D32  1D03               	skipz
  6594     0D33  2D3E               	goto	u317_25
  6595     0D34  0822               	movf	i1___fldiv@a+2,w
  6596     0D35  022F               	subwf	i1___fldiv@rem+2,w
  6597     0D36  1D03               	skipz
  6598     0D37  2D3E               	goto	u317_25
  6599     0D38  0821               	movf	i1___fldiv@a+1,w
  6600     0D39  022E               	subwf	i1___fldiv@rem+1,w
  6601     0D3A  1D03               	skipz
  6602     0D3B  2D3E               	goto	u317_25
  6603     0D3C  0820               	movf	i1___fldiv@a,w
  6604     0D3D  022D               	subwf	i1___fldiv@rem,w
  6605     0D3E                     u317_25:
  6606     0D3E  1C03               	skipc
  6607     0D3F  2D41               	goto	u317_21
  6608     0D40  2D42               	goto	u317_20
  6609     0D41                     u317_21:
  6610     0D41  2D51               	goto	i1l2202
  6611     0D42                     u317_20:
  6612     0D42                     i1l2198:
  6613     0D42  1737               	bsf	i1___fldiv@grs+3,6
  6614     0D43                     i1l2200:
  6615     0D43  0820               	movf	i1___fldiv@a,w
  6616     0D44  02AD               	subwf	i1___fldiv@rem,f
  6617     0D45  0821               	movf	i1___fldiv@a+1,w
  6618     0D46  1C03               	skipc
  6619     0D47  0F21               	incfsz	i1___fldiv@a+1,w
  6620     0D48  02AE               	subwf	i1___fldiv@rem+1,f
  6621     0D49  0822               	movf	i1___fldiv@a+2,w
  6622     0D4A  1C03               	skipc
  6623     0D4B  0F22               	incfsz	i1___fldiv@a+2,w
  6624     0D4C  02AF               	subwf	i1___fldiv@rem+2,f
  6625     0D4D  0823               	movf	i1___fldiv@a+3,w
  6626     0D4E  1C03               	skipc
  6627     0D4F  0F23               	incfsz	i1___fldiv@a+3,w
  6628     0D50  02B0               	subwf	i1___fldiv@rem+3,f
  6629     0D51                     i1l2202:
  6630     0D51  3001               	movlw	1
  6631     0D52  00A8               	movwf	??i1___fldiv
  6632     0D53  0828               	movf	??i1___fldiv,w
  6633     0D54  07B9               	addwf	i1___fldiv@aexp,f
  6634     0D55                     i1l2204:
  6635     0D55  301A               	movlw	26
  6636     0D56  0239               	subwf	i1___fldiv@aexp,w
  6637     0D57  1C03               	skipc
  6638     0D58  2D5A               	goto	u318_21
  6639     0D59  2D5B               	goto	u318_20
  6640     0D5A                     u318_21:
  6641     0D5A  2D0B               	goto	i1l2186
  6642     0D5B                     u318_20:
  6643     0D5B                     i1l2206:
  6644     0D5B  0830               	movf	i1___fldiv@rem+3,w
  6645     0D5C  042F               	iorwf	i1___fldiv@rem+2,w
  6646     0D5D  042E               	iorwf	i1___fldiv@rem+1,w
  6647     0D5E  042D               	iorwf	i1___fldiv@rem,w
  6648     0D5F  1903               	skipnz
  6649     0D60  2D62               	goto	u319_21
  6650     0D61  2D63               	goto	u319_20
  6651     0D62                     u319_21:
  6652     0D62  2D82               	goto	i1l2220
  6653     0D63                     u319_20:
  6654     0D63                     i1l2208:
  6655     0D63  1434               	bsf	i1___fldiv@grs,0
  6656     0D64  2D82               	goto	i1l2220
  6657     0D65                     i1l2210:
  6658     0D65  3001               	movlw	1
  6659     0D66  00A8               	movwf	??i1___fldiv
  6660     0D67                     u320_25:
  6661     0D67  1003               	clrc
  6662     0D68  0DA4               	rlf	i1___fldiv@b,f
  6663     0D69  0DA5               	rlf	i1___fldiv@b+1,f
  6664     0D6A  0DA6               	rlf	i1___fldiv@b+2,f
  6665     0D6B  0DA7               	rlf	i1___fldiv@b+3,f
  6666     0D6C  0BA8               	decfsz	??i1___fldiv,f
  6667     0D6D  2D67               	goto	u320_25
  6668     0D6E                     i1l2212:
  6669     0D6E  1FB7               	btfss	i1___fldiv@grs+3,7
  6670     0D6F  2D71               	goto	u321_21
  6671     0D70  2D72               	goto	u321_20
  6672     0D71                     u321_21:
  6673     0D71  2D73               	goto	i1l2216
  6674     0D72                     u321_20:
  6675     0D72                     i1l2214:
  6676     0D72  1424               	bsf	i1___fldiv@b,0
  6677     0D73                     i1l2216:
  6678     0D73  3001               	movlw	1
  6679     0D74  00A8               	movwf	??i1___fldiv
  6680     0D75                     u322_25:
  6681     0D75  1003               	clrc
  6682     0D76  0DB4               	rlf	i1___fldiv@grs,f
  6683     0D77  0DB5               	rlf	i1___fldiv@grs+1,f
  6684     0D78  0DB6               	rlf	i1___fldiv@grs+2,f
  6685     0D79  0DB7               	rlf	i1___fldiv@grs+3,f
  6686     0D7A  0BA8               	decfsz	??i1___fldiv,f
  6687     0D7B  2D75               	goto	u322_25
  6688     0D7C                     i1l2218:
  6689     0D7C  30FF               	movlw	255
  6690     0D7D  07B2               	addwf	i1___fldiv@new_exp,f
  6691     0D7E  1803               	skipnc
  6692     0D7F  0AB3               	incf	i1___fldiv@new_exp+1,f
  6693     0D80  30FF               	movlw	255
  6694     0D81  07B3               	addwf	i1___fldiv@new_exp+1,f
  6695     0D82                     i1l2220:
  6696     0D82  1FA6               	btfss	i1___fldiv@b+2,7
  6697     0D83  2D85               	goto	u323_21
  6698     0D84  2D86               	goto	u323_20
  6699     0D85                     u323_21:
  6700     0D85  2D65               	goto	i1l2210
  6701     0D86                     u323_20:
  6702     0D86                     i1l2222:
  6703     0D86  01B9               	clrf	i1___fldiv@aexp
  6704     0D87                     i1l2224:
  6705     0D87  1FB7               	btfss	i1___fldiv@grs+3,7
  6706     0D88  2D8A               	goto	u324_21
  6707     0D89  2D8B               	goto	u324_20
  6708     0D8A                     u324_21:
  6709     0D8A  2DA7               	goto	i1l2232
  6710     0D8B                     u324_20:
  6711     0D8B                     i1l2226:
  6712     0D8B  30FF               	movlw	255
  6713     0D8C  0534               	andwf	i1___fldiv@grs,w
  6714     0D8D  00A8               	movwf	??i1___fldiv
  6715     0D8E  30FF               	movlw	255
  6716     0D8F  0535               	andwf	i1___fldiv@grs+1,w
  6717     0D90  00A9               	movwf	??i1___fldiv+1
  6718     0D91  30FF               	movlw	255
  6719     0D92  0536               	andwf	i1___fldiv@grs+2,w
  6720     0D93  00AA               	movwf	??i1___fldiv+2
  6721     0D94  307F               	movlw	127
  6722     0D95  0537               	andwf	i1___fldiv@grs+3,w
  6723     0D96  00AB               	movwf	??i1___fldiv+3
  6724     0D97  082B               	movf	??i1___fldiv+3,w
  6725     0D98  042A               	iorwf	??i1___fldiv+2,w
  6726     0D99  0429               	iorwf	??i1___fldiv+1,w
  6727     0D9A  0428               	iorwf	??i1___fldiv,w
  6728     0D9B  1903               	skipnz
  6729     0D9C  2D9E               	goto	u325_21
  6730     0D9D  2D9F               	goto	u325_20
  6731     0D9E                     u325_21:
  6732     0D9E  2DA2               	goto	i1l591
  6733     0D9F                     u325_20:
  6734     0D9F                     i1l2228:
  6735     0D9F  01B9               	clrf	i1___fldiv@aexp
  6736     0DA0  0AB9               	incf	i1___fldiv@aexp,f
  6737     0DA1  2DA7               	goto	i1l2232
  6738     0DA2                     i1l591:
  6739     0DA2  1C24               	btfss	i1___fldiv@b,0
  6740     0DA3  2DA5               	goto	u326_21
  6741     0DA4  2DA6               	goto	u326_20
  6742     0DA5                     u326_21:
  6743     0DA5  2DA7               	goto	i1l2232
  6744     0DA6                     u326_20:
  6745     0DA6  2D9F               	goto	i1l2228
  6746     0DA7                     i1l2232:
  6747     0DA7  0839               	movf	i1___fldiv@aexp,w
  6748     0DA8  1903               	btfsc	3,2
  6749     0DA9  2DAB               	goto	u327_21
  6750     0DAA  2DAC               	goto	u327_20
  6751     0DAB                     u327_21:
  6752     0DAB  2DDD               	goto	i1l2242
  6753     0DAC                     u327_20:
  6754     0DAC                     i1l2234:
  6755     0DAC  3001               	movlw	1
  6756     0DAD  07A4               	addwf	i1___fldiv@b,f
  6757     0DAE  3000               	movlw	0
  6758     0DAF  1803               	skipnc
  6759     0DB0  3001               	movlw	1
  6760     0DB1  07A5               	addwf	i1___fldiv@b+1,f
  6761     0DB2  3000               	movlw	0
  6762     0DB3  1803               	skipnc
  6763     0DB4  3001               	movlw	1
  6764     0DB5  07A6               	addwf	i1___fldiv@b+2,f
  6765     0DB6  3000               	movlw	0
  6766     0DB7  1803               	skipnc
  6767     0DB8  3001               	movlw	1
  6768     0DB9  07A7               	addwf	i1___fldiv@b+3,f
  6769     0DBA                     i1l2236:
  6770     0DBA  1C27               	btfss	i1___fldiv@b+3,0
  6771     0DBB  2DBD               	goto	u328_21
  6772     0DBC  2DBE               	goto	u328_20
  6773     0DBD                     u328_21:
  6774     0DBD  2DDD               	goto	i1l2242
  6775     0DBE                     u328_20:
  6776     0DBE                     i1l2238:
  6777     0DBE  0824               	movf	i1___fldiv@b,w
  6778     0DBF  00A8               	movwf	??i1___fldiv
  6779     0DC0  0825               	movf	i1___fldiv@b+1,w
  6780     0DC1  00A9               	movwf	??i1___fldiv+1
  6781     0DC2  0826               	movf	i1___fldiv@b+2,w
  6782     0DC3  00AA               	movwf	??i1___fldiv+2
  6783     0DC4  0827               	movf	i1___fldiv@b+3,w
  6784     0DC5  00AB               	movwf	??i1___fldiv+3
  6785     0DC6  3001               	movlw	1
  6786     0DC7  00AC               	movwf	??i1___fldiv+4
  6787     0DC8                     u329_25:
  6788     0DC8  0D2B               	rlf	??i1___fldiv+3,w
  6789     0DC9  0CAB               	rrf	??i1___fldiv+3,f
  6790     0DCA  0CAA               	rrf	??i1___fldiv+2,f
  6791     0DCB  0CA9               	rrf	??i1___fldiv+1,f
  6792     0DCC  0CA8               	rrf	??i1___fldiv,f
  6793     0DCD                     u329_20:
  6794     0DCD  0BAC               	decfsz	??i1___fldiv+4,f
  6795     0DCE  2DC8               	goto	u329_25
  6796     0DCF  082B               	movf	??i1___fldiv+3,w
  6797     0DD0  00A7               	movwf	i1___fldiv@b+3
  6798     0DD1  082A               	movf	??i1___fldiv+2,w
  6799     0DD2  00A6               	movwf	i1___fldiv@b+2
  6800     0DD3  0829               	movf	??i1___fldiv+1,w
  6801     0DD4  00A5               	movwf	i1___fldiv@b+1
  6802     0DD5  0828               	movf	??i1___fldiv,w
  6803     0DD6  00A4               	movwf	i1___fldiv@b
  6804     0DD7                     i1l2240:
  6805     0DD7  3001               	movlw	1
  6806     0DD8  07B2               	addwf	i1___fldiv@new_exp,f
  6807     0DD9  1803               	skipnc
  6808     0DDA  0AB3               	incf	i1___fldiv@new_exp+1,f
  6809     0DDB  3000               	movlw	0
  6810     0DDC  07B3               	addwf	i1___fldiv@new_exp+1,f
  6811     0DDD                     i1l2242:
  6812     0DDD  0833               	movf	i1___fldiv@new_exp+1,w
  6813     0DDE  3A80               	xorlw	128
  6814     0DDF  00FF               	movwf	btemp+1
  6815     0DE0  3080               	movlw	128
  6816     0DE1  027F               	subwf	btemp+1,w
  6817     0DE2  1D03               	skipz
  6818     0DE3  2DE6               	goto	u330_25
  6819     0DE4  30FF               	movlw	255
  6820     0DE5  0232               	subwf	i1___fldiv@new_exp,w
  6821     0DE6                     u330_25:
  6822     0DE6  1C03               	skipc
  6823     0DE7  2DE9               	goto	u330_21
  6824     0DE8  2DEA               	goto	u330_20
  6825     0DE9                     u330_21:
  6826     0DE9  2DF8               	goto	i1l2246
  6827     0DEA                     u330_20:
  6828     0DEA                     i1l2244:
  6829     0DEA  30FF               	movlw	255
  6830     0DEB  1283               	bcf	3,5	;RP0=0, select bank0
  6831     0DEC  1303               	bcf	3,6	;RP1=0, select bank0
  6832     0DED  00B2               	movwf	i1___fldiv@new_exp
  6833     0DEE  3000               	movlw	0
  6834     0DEF  00B3               	movwf	i1___fldiv@new_exp+1
  6835     0DF0  3000               	movlw	0
  6836     0DF1  00A7               	movwf	i1___fldiv@b+3
  6837     0DF2  3000               	movlw	0
  6838     0DF3  00A6               	movwf	i1___fldiv@b+2
  6839     0DF4  3000               	movlw	0
  6840     0DF5  00A5               	movwf	i1___fldiv@b+1
  6841     0DF6  3000               	movlw	0
  6842     0DF7  00A4               	movwf	i1___fldiv@b
  6843     0DF8                     i1l2246:
  6844     0DF8  1283               	bcf	3,5	;RP0=0, select bank0
  6845     0DF9  1303               	bcf	3,6	;RP1=0, select bank0
  6846     0DFA  0833               	movf	i1___fldiv@new_exp+1,w
  6847     0DFB  3A80               	xorlw	128
  6848     0DFC  00FF               	movwf	btemp+1
  6849     0DFD  3080               	movlw	128
  6850     0DFE  027F               	subwf	btemp+1,w
  6851     0DFF  1D03               	skipz
  6852     0E00  2E03               	goto	u331_25
  6853     0E01  3001               	movlw	1
  6854     0E02  0232               	subwf	i1___fldiv@new_exp,w
  6855     0E03                     u331_25:
  6856     0E03  1803               	skipnc
  6857     0E04  2E06               	goto	u331_21
  6858     0E05  2E07               	goto	u331_20
  6859     0E06                     u331_21:
  6860     0E06  2E14               	goto	i1l597
  6861     0E07                     u331_20:
  6862     0E07                     i1l2248:
  6863     0E07  1283               	bcf	3,5	;RP0=0, select bank0
  6864     0E08  1303               	bcf	3,6	;RP1=0, select bank0
  6865     0E09  01B2               	clrf	i1___fldiv@new_exp
  6866     0E0A  01B3               	clrf	i1___fldiv@new_exp+1
  6867     0E0B                     i1l2250:
  6868     0E0B  3000               	movlw	0
  6869     0E0C  00A7               	movwf	i1___fldiv@b+3
  6870     0E0D  3000               	movlw	0
  6871     0E0E  00A6               	movwf	i1___fldiv@b+2
  6872     0E0F  3000               	movlw	0
  6873     0E10  00A5               	movwf	i1___fldiv@b+1
  6874     0E11  3000               	movlw	0
  6875     0E12  00A4               	movwf	i1___fldiv@b
  6876     0E13                     i1l2252:
  6877     0E13  01B1               	clrf	i1___fldiv@sign
  6878     0E14                     i1l597:
  6879     0E14  1283               	bcf	3,5	;RP0=0, select bank0
  6880     0E15  1303               	bcf	3,6	;RP1=0, select bank0
  6881     0E16  0832               	movf	i1___fldiv@new_exp,w
  6882     0E17  00B8               	movwf	i1___fldiv@bexp
  6883     0E18                     i1l2254:
  6884     0E18  1C38               	btfss	i1___fldiv@bexp,0
  6885     0E19  2E1B               	goto	u332_21
  6886     0E1A  2E1C               	goto	u332_20
  6887     0E1B                     u332_21:
  6888     0E1B  2E1E               	goto	i1l2258
  6889     0E1C                     u332_20:
  6890     0E1C                     i1l2256:
  6891     0E1C  17A6               	bsf	i1___fldiv@b+2,7
  6892     0E1D  2E22               	goto	i1l599
  6893     0E1E                     i1l2258:
  6894     0E1E  307F               	movlw	127
  6895     0E1F  00A8               	movwf	??i1___fldiv
  6896     0E20  0828               	movf	??i1___fldiv,w
  6897     0E21  05A6               	andwf	i1___fldiv@b+2,f
  6898     0E22                     i1l599:
  6899     0E22  0838               	movf	i1___fldiv@bexp,w
  6900     0E23  00A8               	movwf	??i1___fldiv
  6901     0E24  1003               	clrc
  6902     0E25  0C28               	rrf	??i1___fldiv,w
  6903     0E26  00A7               	movwf	i1___fldiv@b+3
  6904     0E27  0831               	movf	i1___fldiv@sign,w
  6905     0E28  00A8               	movwf	??i1___fldiv
  6906     0E29  0828               	movf	??i1___fldiv,w
  6907     0E2A  04A7               	iorwf	i1___fldiv@b+3,f
  6908     0E2B  2CC8               	goto	i1l2166
  6909     0E2C                     i1l577:
  6910     0E2C  0008               	return
  6911     0E2D                     __end_ofi1___fldiv:
  6912                           
  6913                           	psect	text16
  6914     15FB                     __ptext16:	
  6915 ;; *************** function _duty_cicle *****************
  6916 ;; Defined at:
  6917 ;;		line 112 in file "PostLabC02.c"
  6918 ;; Parameters:    Size  Location     Type
  6919 ;;  ciclo           2    0[COMMON] int 
  6920 ;; Auto vars:     Size  Location     Type
  6921 ;;		None
  6922 ;; Return value:  Size  Location     Type
  6923 ;;                  1    wreg      void 
  6924 ;; Registers used:
  6925 ;;		wreg, status,2
  6926 ;; Tracked objects:
  6927 ;;		On entry : 0/0
  6928 ;;		On exit  : 0/0
  6929 ;;		Unchanged: 0/0
  6930 ;; Data sizes:     COMMON   BANK0   BANK1   BANK3   BANK2
  6931 ;;      Params:         2       0       0       0       0
  6932 ;;      Locals:         0       0       0       0       0
  6933 ;;      Temps:          1       0       0       0       0
  6934 ;;      Totals:         3       0       0       0       0
  6935 ;;Total ram usage:        3 bytes
  6936 ;; Hardware stack levels used: 1
  6937 ;; This function calls:
  6938 ;;		Nothing
  6939 ;; This function is called by:
  6940 ;;		_isr
  6941 ;; This function uses a non-reentrant model
  6942 ;;
  6943                           
  6944     15FB                     _duty_cicle:	
  6945                           ;psect for function _duty_cicle
  6946                           
  6947     15FB                     i1l2404:	
  6948                           ;incstack = 0
  6949                           ; Regs used in _duty_cicle: [wreg+status,2]
  6950                           
  6951                           
  6952                           ;PostLabC02.c: 113:     i++;
  6953     15FB  3001               	movlw	1
  6954     15FC  1683               	bsf	3,5	;RP0=1, select bank1
  6955     15FD  1303               	bcf	3,6	;RP1=0, select bank1
  6956     15FE  07EA               	addwf	_i^(0+128),f
  6957     15FF  1803               	skipnc
  6958     1600  0AEB               	incf	(_i+1)^(0+128),f
  6959     1601  3000               	movlw	0
  6960     1602  07EB               	addwf	(_i+1)^(0+128),f
  6961                           
  6962                           ;PostLabC02.c: 114:     if (i <= ciclo){
  6963     1603  0871               	movf	duty_cicle@ciclo+1,w
  6964     1604  3A80               	xorlw	128
  6965     1605  00F2               	movwf	??_duty_cicle
  6966     1606  086B               	movf	(_i+1)^(0+128),w
  6967     1607  3A80               	xorlw	128
  6968     1608  0272               	subwf	??_duty_cicle,w
  6969     1609  1D03               	skipz
  6970     160A  2E0D               	goto	u370_25
  6971     160B  086A               	movf	_i^(0+128),w
  6972     160C  0270               	subwf	duty_cicle@ciclo,w
  6973     160D                     u370_25:
  6974     160D  1C03               	skipc
  6975     160E  2E10               	goto	u370_21
  6976     160F  2E11               	goto	u370_20
  6977     1610                     u370_21:
  6978     1610  2E15               	goto	i1l124
  6979     1611                     u370_20:
  6980     1611                     i1l2406:
  6981                           
  6982                           ;PostLabC02.c: 115:         PORTCbits.RC3 = 1;
  6983     1611  1283               	bcf	3,5	;RP0=0, select bank0
  6984     1612  1303               	bcf	3,6	;RP1=0, select bank0
  6985     1613  1587               	bsf	7,3	;volatile
  6986                           
  6987                           ;PostLabC02.c: 116:     }
  6988     1614  2E1C               	goto	i1l126
  6989     1615                     i1l124:	
  6990                           ;PostLabC02.c: 117:     else{
  6991                           
  6992                           
  6993                           ;PostLabC02.c: 118:         PORTCbits.RC3 = 0;
  6994     1615  1283               	bcf	3,5	;RP0=0, select bank0
  6995     1616  1303               	bcf	3,6	;RP1=0, select bank0
  6996     1617  1187               	bcf	7,3	;volatile
  6997     1618                     i1l2408:
  6998                           
  6999                           ;PostLabC02.c: 119:         i = 0;
  7000     1618  1683               	bsf	3,5	;RP0=1, select bank1
  7001     1619  1303               	bcf	3,6	;RP1=0, select bank1
  7002     161A  01EA               	clrf	_i^(0+128)
  7003     161B  01EB               	clrf	(_i+1)^(0+128)
  7004     161C                     i1l126:
  7005     161C  0008               	return
  7006     161D                     __end_of_duty_cicle:
  7007     007E                     btemp	set	126	;btemp
  7008     007E                     wtemp0	set	126
  7009                           
  7010                           	psect	idloc
  7011                           
  7012                           ;Config register IDLOC0 @ 0x2000
  7013                           ;	unspecified, using default values
  7014     2000                     	org	8192
  7015     2000  3FFF               	dw	16383
  7016                           
  7017                           ;Config register IDLOC1 @ 0x2001
  7018                           ;	unspecified, using default values
  7019     2001                     	org	8193
  7020     2001  3FFF               	dw	16383
  7021                           
  7022                           ;Config register IDLOC2 @ 0x2002
  7023                           ;	unspecified, using default values
  7024     2002                     	org	8194
  7025     2002  3FFF               	dw	16383
  7026                           
  7027                           ;Config register IDLOC3 @ 0x2003
  7028                           ;	unspecified, using default values
  7029     2003                     	org	8195
  7030     2003  3FFF               	dw	16383
  7031                           
  7032                           	psect	config
  7033                           
  7034                           ;Config register CONFIG1 @ 0x2007
  7035                           ;	Oscillator Selection bits
  7036                           ;	FOSC = INTRC_NOCLKOUT, INTOSCIO oscillator: I/O function on RA6/OSC2/CLKOUT pin, I/O f
      +                          unction on RA7/OSC1/CLKIN
  7037                           ;	Watchdog Timer Enable bit
  7038                           ;	WDTE = OFF, WDT disabled and can be enabled by SWDTEN bit of the WDTCON register
  7039                           ;	Power-up Timer Enable bit
  7040                           ;	PWRTE = OFF, PWRT disabled
  7041                           ;	RE3/MCLR pin function select bit
  7042                           ;	MCLRE = OFF, RE3/MCLR pin function is digital input, MCLR internally tied to VDD
  7043                           ;	Code Protection bit
  7044                           ;	CP = OFF, Program memory code protection is disabled
  7045                           ;	Data Code Protection bit
  7046                           ;	CPD = OFF, Data memory code protection is disabled
  7047                           ;	Brown Out Reset Selection bits
  7048                           ;	BOREN = OFF, BOR disabled
  7049                           ;	Internal External Switchover bit
  7050                           ;	IESO = OFF, Internal/External Switchover mode is disabled
  7051                           ;	Fail-Safe Clock Monitor Enabled bit
  7052                           ;	FCMEN = OFF, Fail-Safe Clock Monitor is disabled
  7053                           ;	Low Voltage Programming Enable bit
  7054                           ;	LVP = OFF, RB3 pin has digital I/O, HV on MCLR must be used for programming
  7055                           ;	In-Circuit Debugger Mode bit
  7056                           ;	DEBUG = 0x1, unprogramme  7057     2007                     	org	8199
  7058     2007  20D4               	dw	8404
  7059                           
  7060                           ;Config register CONFIG2 @ 0x2008
  7061                           ;	Brown-out Reset Selection bit
  7062                           ;	BOR4V = BOR40V, Brown-out Reset set to 4.0V
  7063                           ;	Flash Program Memory Self Write Enable bits
  7064                           ;	WRT = OFF, Write protection off
  7065     2008                     	org	8200
  7066     2008  3FFF               	dw	16383

Data Sizes:
    Strings     0
    Constant    0
    Data        0
    BSS         12
    Persistent  0
    Stack       0

Auto Spaces:
    Space          Size  Autos    Used
    COMMON           14     14      14
    BANK0            80     79      79
    BANK1            80     72      76
    BANK3            96     20      28
    BANK2            96      0       0

Pointer List with Targets:

    None.

Critical Paths under _main in COMMON

    None.

Critical Paths under _isr in COMMON

    _isr->i1___xxtofl
    i1___flmul->i1___xxtofl
    i1___fldiv->i1___xxtofl

Critical Paths under _main in BANK0

    None.

Critical Paths under _isr in BANK0

    _isr->i1_PWM_duty
    i1_PWM_duty->i1___fltol
    i1___fltol->i1___flmul
    i1___flmul->i1___fldiv

Critical Paths under _main in BANK1

    _main->___fltol
    _PWM_duty->___fltol
    ___flmul->___xxtofl
    _PWM_config->___fltol
    ___fltol->___fldiv
    ___fldiv->___flmul

Critical Paths under _isr in BANK1

    None.

Critical Paths under _main in BANK3

    _main->_setup
    _setup->_PWM_duty
    _PWM_duty->___fltol
    _PWM_config->___fltol

Critical Paths under _isr in BANK3

    None.

Critical Paths under _main in BANK2

    None.

Critical Paths under _isr in BANK2

    None.

Call Graph Tables:

 ---------------------------------------------------------------------------------
 (Depth) Function   	        Calls       Base Space   Used Autos Params    Refs
 ---------------------------------------------------------------------------------
 (0) _main                                                 1     1      0   15674
                                             19 BANK3      1     1      0
                            ___fldiv
                            ___flmul
                            ___fltol
                           ___xxtofl
                              _setup
 ---------------------------------------------------------------------------------
 (1) _setup                                                1     1      0    9173
                                             18 BANK3      1     1      0
                         _PWM_config
                           _PWM_duty
 ---------------------------------------------------------------------------------
 (2) _PWM_duty                                            10     6      4    6333
                                              8 BANK3     10     6      4
                            ___fldiv
                            ___flmul
                            ___fltol
 ---------------------------------------------------------------------------------
 (3) ___flmul                                             26    18      8    3225
                                             18 BANK1     26    18      8
                          __Umul8_16
                           ___xxtofl (ARG)
 ---------------------------------------------------------------------------------
 (4) __Umul8_16                                            9     7      2     799
                                              4 BANK1      9     7      2
 ---------------------------------------------------------------------------------
 (2) _PWM_config                                           5     1      4    2840
                                              8 BANK3      5     1      4
                            ___fldiv
                            ___fltol
 ---------------------------------------------------------------------------------
 (3) ___fltol                                             10     6      4     697
                                             70 BANK1      2     2      0
                                              0 BANK3      8     4      4
                            ___fldiv (ARG)
                            ___flmul (ARG)
 ---------------------------------------------------------------------------------
 (3) ___fldiv                                             26    18      8    1929
                                             44 BANK1     26    18      8
                            ___flmul (ARG)
                           ___xxtofl (ARG)
 ---------------------------------------------------------------------------------
 (1) ___xxtofl                                            14    10      4     650
                                              4 BANK1     14    10      4
 ---------------------------------------------------------------------------------
 Estimated maximum stack depth 4
 ---------------------------------------------------------------------------------
 (Depth) Function   	        Calls       Base Space   Used Autos Params    Refs
 ---------------------------------------------------------------------------------
 (5) _isr                                                 11    11      0    7520
                                             72 BANK0      7     7      0
                                              0 BANK1      4     4      0
                         _duty_cicle
                         i1_PWM_duty
                          i1___fldiv
                          i1___flmul
                         i1___xxtofl
 ---------------------------------------------------------------------------------
 (6) i1___xxtofl                                          14    10      4     374
                                              0 COMMON    14    10      4
 ---------------------------------------------------------------------------------
 (6) i1_PWM_duty                                          10     6      4    3754
                                             62 BANK0     10     6      4
                          i1___fldiv
                          i1___flmul
                          i1___fltol
 ---------------------------------------------------------------------------------
 (7) i1___fltol                                           10     6      4     255
                                             52 BANK0     10     6      4
                          i1___fldiv (ARG)
                          i1___flmul (ARG)
 ---------------------------------------------------------------------------------
 (6) i1___flmul                                           26    18      8    1971
                                             26 BANK0     26    18      8
                        i1__Umul8_16
                          i1___fldiv (ARG)
                         i1___xxtofl (ARG)
 ---------------------------------------------------------------------------------
 (7) i1__Umul8_16                                          9     7      2     349
                                              0 COMMON     9     7      2
 ---------------------------------------------------------------------------------
 (6) i1___fldiv                                           26    18      8    1277
                                              0 BANK0     26    18      8
                        i1__Umul8_16 (ARG)
                         i1___xxtofl (ARG)
 ---------------------------------------------------------------------------------
 (6) _duty_cicle                                           3     1      2      98
                                              0 COMMON     3     1      2
 ---------------------------------------------------------------------------------
 Estimated maximum stack depth 7
 ---------------------------------------------------------------------------------

 Call Graph Graphs:

 _main (ROOT)
   ___fldiv
     ___flmul (ARG)
       __Umul8_16
       ___xxtofl (ARG)
     ___xxtofl (ARG)
   ___flmul
   ___fltol
     ___fldiv (ARG)
     ___flmul (ARG)
   ___xxtofl
   _setup
     _PWM_config
       ___fldiv
       ___fltol
     _PWM_duty
       ___fldiv
       ___flmul
       ___fltol

 _isr (ROOT)
   _duty_cicle
   i1_PWM_duty
     i1___fldiv
       i1__Umul8_16 (ARG)
       i1___xxtofl (ARG)
     i1___flmul
       i1__Umul8_16
       i1___fldiv (ARG)
       i1___xxtofl (ARG)
     i1___fltol
       i1___fldiv (ARG)
       i1___flmul (ARG)
   i1___fldiv
   i1___flmul
   i1___xxtofl

 Address spaces:
Name               Size   Autos  Total    Cost      Usage
BITCOMMON            E      0       0       0        0.0%
EEDATA             100      0       0       0        0.0%
NULL                 0      0       0       0        0.0%
CODE                 0      0       0       0        0.0%
COMMON               E      E       E       1      100.0%
BITSFR0              0      0       0       1        0.0%
SFR0                 0      0       0       1        0.0%
BITSFR1              0      0       0       2        0.0%
SFR1                 0      0       0       2        0.0%
STACK                0      0       0       2        0.0%
ABS                  0      0      C5       3        0.0%
BITBANK0            50      0       0       4        0.0%
BITSFR3              0      0       0       4        0.0%
SFR3                 0      0       0       4        0.0%
BANK0               50     4F      4F       5       98.8%
BITSFR2              0      0       0       5        0.0%
SFR2                 0      0       0       5        0.0%
BITBANK1            50      0       0       6        0.0%
BANK1               50     48      4C       7       95.0%
BITBANK3            60      0       0       8        0.0%
BANK3               60     14      1C       9       29.2%
BITBANK2            60      0       0      10        0.0%
BANK2               60      0       0      11        0.0%
DATA                 0      0      C5      12        0.0%


Microchip Technology PIC Macro Assembler V2.40 build 20220703182018 
Symbol Table                                                                                   Thu Apr 13 15:16:34 2023

            ___fldiv@aexp 00E5              ___fldiv@bexp 00E4                         _i 00EA  
            ___fldiv@sign 00DD               i1___fldiv@a 0020               i1___fldiv@b 0024  
                      l22 175E                        l24 1762                        l25 176E  
                      l33 0B58                        l27 1771               i1___flmul@a 003E  
             i1___flmul@b 003A       __Umul8_16@word_mpld 00AA                i1___xxtofl 090A  
                     l112 0B61                       l129 086C                       l412 17FF  
                     l422 17FF                       l419 17E8                       l621 02DB  
                     l615 036B                       l634 165A                       l627 035F  
                     l636 166C                       l661 0A7B                       l591 0F75  
                     l575 0E83                       l672 0A45                       l673 0A51  
                     l665 0A29                       l577 0FFF                       l659 09E6  
                     l597 0FE7                       l599 0FF5                       _PR2 0092  
              _PWM_config 16E5                       _isr 06B1              i1___fltol@f1 0054  
            ___flmul@aexp 00C4              ___flmul@bexp 00C5              ___flmul@sign 00BF  
            ___flmul@temp 00CA              ___flmul@prod 00C6             i1___fldiv@grs 0034  
           i1___fldiv@rem 002D              ___fltol@exp1 00E7                      l2000 033D  
                    l2010 035A                      l2002 0347                      l2012 0363  
                    l2004 0349                      l2006 0355                      l2008 0359  
                    l2500 0A72                      l2502 0A73                      l1800 0EE3  
                    l1810 0F15                      l1802 0EF5                      l1820 0F36  
                    l1812 0F16                      l1804 0EF9                      l1740 0E3A  
                    l1900 005E                      l2700 0A7F                      l2470 09EE  
                    l2462 09C5                      l1830 0F4F                      l1822 0F38  
                    l1814 0F24                      l1806 0EFA                      l1750 0E4E  
                    l1742 0E3B                      l1734 0E2D                      l2630 177F  
                    l1910 0073                      l1902 005F                      l2710 0B1A  
                    l2702 0ADC                      l2480 0A0E                      l2464 09CA  
                    l1840 0F72                      l1824 0F41                      l1832 0F55  
                    l1808 0F03                      l1816 0F28                      l1760 0E65  
                    l1744 0E40                      l1752 0E50                      l1736 0E32  
                    l2640 17AC                      l1920 008E                      l1912 007B  
                    l1904 0064                      l2712 0B20                      l2704 0AE1  
                    l2720 0806                      l2490 0A3F                      l2482 0A12  
                    l2474 09F7                      l2466 09CE                      l1850 0F91  
                    l1834 0F59                      l1826 0F45                      l1818 0F2E  
                    l1770 0E79                      l1762 0E66                      l1754 0E58  
                    l1746 0E45                      l1738 0E36                      l2650 17BC  
                    l2642 17B0                      l2634 178A                      l1690 1654  
                    l1930 010A                      l1922 009C                      l1914 0080  
                    l1906 0069                      l2714 0B2E                      l2706 0AEF  
                    l2730 0821                      l2722 080B                      l2492 0A49  
                    l2484 0A20                      l2476 09FA                      l2468 09DE  
                    l1860 0FDA                      l1852 0FAA                      l1844 0F7A  
                    l1836 0F5A                      l1828 0F46                      l1764 0E6B  
                    l1772 0E7B                      l1756 0E5D                      l1748 0E4D  
                    l2660 17ED                      l2644 17B4                      l2652 17D2  
                    l2636 17A1                      l2628 1772                      l1692 1663  
                    l1684 1647                      l1940 0176                      l1932 0126  
                    l1924 00A9                      l1916 0085                      l1908 0071  
                    l2716 0B3F                      l2708 0B00                      l2740 0829  
                    l2732 0822                      l2724 0819                      l2494 0A53  
                    l2486 0A30                      l2478 0A07                      l1870 0FF1  
                    l1862 0FDE                      l1846 0F7F                      l1854 0FB0  
                    l1838 0F5E                      l1790 0EC4                      l1774 0E8B  
                    l1782 0EA4                      l1766 0E70                      l1758 0E61  
                    l2662 17F2                      l2638 17A4                      l2670 1738  
                    l1694 1668                      l1686 1649                      l1950 0200  
                    l1942 0184                      l1934 0142                      l1926 00C4  
                    l2750 0832                      l2742 082A                      l2734 0823  
                    l2726 081F                      l2496 0A69                      l2488 0A3B  
                    l1864 0FE6                      l1856 0FBD                      l1848 0F8D  
                    l1792 0ECC                      l1784 0EA9                      l1776 0E97  
                    l1768 0E78                      l2680 174B                      l2672 1740  
                    l2664 16E8                      l1688 1650                      l1960 0290  
                    l1952 020E                      l1944 01A1                      l1936 014B  
                    l1928 00E0                      l1880 0030                      l2760 0841  
                    l2752 0834                      l2744 082B                      l2736 0824  
                    l2728 0820                      l2498 0A6E                      l1866 0FEB  
                    l1858 0FCB                      l1794 0ED4                      l1778 0E9B  
                    l2658 17D9                      l2682 174E                      l2690 1758  
                    l2674 1742                      l2666 172E                      l1970 02B5  
                    l1962 029E                      l1954 0239                      l1946 01B8  
                    l1938 0159                      l1890 0047                      l1882 0034  
                    l2762 0844                      l2754 0837                      l2746 082E  
                    l2738 0825                      l2770 0B59                      l1868 0FEF  
                    l1796 0EDC                      l1788 0EB2                      l2692 175B  
                    l2684 1754                      l2676 1743                      l2668 1735  
                    l1980 02D8                      l1964 02A7                      l1972 02BB  
                    l1956 025F                      l1948 01D5                      l1892 0049  
                    l1884 0035                      l1876 0027                      l2764 084C  
                    l2756 0838                      l2748 082F                      l2780 0C1F  
                    l2772 0B5E                      l1798 0EDE                      l2694 175D  
                    l2686 1756                      l2678 1745                      l1990 02F7  
                    l1974 02BF                      l1966 02AB                      l1958 0287  
                    l1894 0051                      l1886 003A                      l1878 002C  
                    l2766 085C                      l2758 083E                      l2790 0C4B  
                    l2782 0C26                      l2774 0C0C                      l2696 1763  
                    l2688 1757                      l1992 0310                      l1984 02E0  
                    l1976 02C0                      l1968 02AC                      l1896 0056  
                    l1888 003F                      l2792 0C53                      l2784 0C33  
                    l2776 0C10                      l2698 176A                      l1986 02E5  
                    l1994 0316                      l1978 02C4                      l1898 005A  
                    l2786 0C3A                      l2778 0C14                      l1996 0323  
                    l1988 02F3                      l2788 0C47                      l1998 032E  
                    ?_isr 0070                      u2200 0E40                      u2201 0E3F  
                    u2210 0E45                      u2211 0E44                      u2300 0EF9  
                    u2220 0E65                      u2060 1654                      u2301 0EF8  
                    u2221 0E64                      u2061 1653                      u2230 0E6B  
                    u2231 0E6A                      u2400 0F72                      u2320 0F15  
                    u2240 0E70                      u2080 1668                      u2401 0F71  
                    u2321 0F14                      u2241 0E6F                      u2081 1667  
                    u2410 0F79                      u2330 0F2E                      u2250 0E8B  
                    u2411 0F78                      u2331 0F2D                      u2315 0EFC  
                    u2251 0E8A                      u2075 165B                      u2420 0F7F  
                    u2340 0F36                      u2260 0EA9                      u4100 177F  
                    u2500 003F                      u2421 0F7E                      u2341 0F35  
                    u2325 0F11                      u2261 0EA8                      u4101 177E  
                    u2501 003E                      u2430 0F91                      u2270 0EE3  
                    u2190 0E3A                      u4110 179A                      u2510 005E  
                    u2431 0F90                      u2271 0EE2                      u2191 0E39  
                    u2511 005D                      u2440 0FA0                      u2360 0F45  
                    u4120 17B4                      u4200 1735                      u2520 0064  
                    u2361 0F44                      u4121 17B3                      u4201 1734  
                    u2521 0063                      u2450 0FBD                      u4130 17BB  
                    u4210 174B                      u2530 0069                      u2451 0FBC  
                    u2355 0F3A                      u4131 17BA                      u4115 1795  
                    u4211 174A                      u2611 0168                      u2531 0068  
                    u2460 0FDA                      u2380 0F59                      u4220 1762  
                    u2612 016F                      u2540 0080                      u2461 0FD9  
                    u2445 0F9B                      u2381 0F58                      u2285 0EE5  
                    u4221 1761                      u2701 0279                      u2621 0193  
                    u2613 0176                      u2605 0144                      u2541 007F  
                    u2470 0FEF                      u2390 0F5E                      u4150 17D1  
                    u4230 176A                      u2702 0280                      u2622 019A  
                    u2550 0085                      u2471 0FEE                      u2455 0FB9  
                    u2391 0F5D                      u2375 0F48                      u2295 0EEE  
                    u4151 17D0                      u4231 1769                      u2703 0287  
                    u2623 01A1                      u2551 0084                      u4160 17D8  
                    u2800 02F7                      u2480 0034                      u4240 0AE1  
                    u2465 0FD6                      u4161 17D7                      u4145 17BD  
                    u2801 02F6                      u2641 01C7                      u2561 00D2  
                    u2481 0033                      u4241 0AE0                      u2810 0306  
                    u2730 02AB                      u2642 01CE                      u2562 00D9  
                    u2490 003A                      u4250 0B20                      u2731 02AA  
                    u2715 0289                      u2651 01F2                      u2643 01D5  
                    u2635 01A3                      u2571 00EE                      u2563 00E0  
                    u2491 0039                      u4251 0B1F                      u4307 0C4F  
                    u4180 17ED                      u2820 0323                      u2652 01F9  
                    u2572 00F5                      u4260 0C14                      u4181 17EC  
                    u2821 0322                      u2725 02A0                      u2661 021D  
                    u2653 0200                      u2581 0118                      u2573 00FC  
                    u4317 0848                      u4261 0C13                      u3710 09CA  
                    u4190 17F2                      u2830 033D                      u2750 02BF  
                    u2670 0245                      u2662 0224                      u2582 011F  
                    u4270 0C1F                      u3711 09C9                      u4191 17F1  
                    u4175 17DD                      u2831 033C                      u2815 0301  
                    u2751 02BE                      u2663 022B                      u2591 0134  
                    u2583 0126                      u4271 0C1E                      u3800 0A45  
                    u3720 09CE                      u2840 0359                      u2760 02C4  
                    u2592 013B                      u4280 0C33                      u3801 0A44  
                    u3721 09CD                      u2841 0358                      u2825 031F  
                    u2761 02C3                      u2745 02AE                      u2681 0251  
                    u2593 0142                      u4281 0C32                      u3810 0A49  
                    u3730 09EE                      u2770 02D8                      u2690 026D  
                    u2682 0258                      u4290 0C47                      u3811 0A48  
                    u3731 09ED                      u2835 0339                      u2771 02D7  
                    u2683 025F                      u2675 0240                      u4291 0C46  
                    u3820 0A5E                      u2780 02DF                      u2781 02DE  
                    u3830 0A6E                      u3750 0A0D                      u2790 02E5  
                    u3831 0A6D                      u3751 0A0C                      u2791 02E4  
                    u2695 0268                      u3840 0A72                      i1l33 0909  
                    u3841 0A71                      u3825 0A59                      u3745 09FF  
                    u3770 0A2F                      u3771 0A2E                      u3765 0A21  
                    u3790 0A3F                      u3791 0A3E                      u3785 0A34  
                    _TMR0 0001                      _main 0B59             i1___flmul@grs 0048  
                    btemp 007E                      start 0010           ___fldiv@new_exp 00DE  
                   ??_isr 0068            i1___fldiv@aexp 0039            i1___fldiv@bexp 0038  
          i1___fldiv@sign 0031               ?i1_PWM_duty 005E             ___fltol@sign1 00E6  
                   ?_main 0070           __end_of___fldiv 1000           __end_of___flmul 036C  
         __end_of___fltol 1800                     i1l107 07E0                     i1l124 1615  
                   i1l126 161C                     i1l412 16E4                     i1l422 16E4  
                   i1l419 16CF                     i1l621 0620                     i1l615 06B0  
                   i1l634 1631                     i1l627 06A4                     i1l636 1643  
                   i1l661 09C1                     i1l591 0DA2                     i1l575 0CB0  
                   i1l672 098B                     i1l577 0E2C                     i1l673 0997  
                   i1l665 096F                     i1l659 092C                     i1l597 0E14  
                   i1l599 0E22                     _PORTA 0005                     _PORTB 0006  
                   _PORTC 0007                     _PORTD 0008                     _PORTE 0009  
                   _TRISB 0086                     _TRISC 0087                     _TRISD 0088  
                   _TRISE 0089            i1___flmul@aexp 004C            i1___flmul@bexp 004D  
          i1___flmul@sign 0047            i1___flmul@temp 0052            i1___flmul@prod 004E  
                   _setup 0806                     pclath 000A            i1___fltol@exp1 005D  
        __end_of_PWM_duty 0B59                     status 0003                     wtemp0 007E  
         __initialization 0013              __end_of_main 0C5A                    ??_main 01A3  
             ?i1___xxtofl 0070               ?_PWM_config 0198                    _ADRESH 001E  
                  _CCPR1L 0015                    _CCPR2L 001B                    ?_setup 0070  
                  _ANSELH 0189                    i1l2020 1627                    i1l2100 169F  
                  i1l2022 162B                    i1l2102 16A3                    i1l2110 16BD  
                  i1l2200 0D43                    i1l2024 163A                    i1l2016 161E  
                  i1l2120 16D9                    i1l2210 0D65                    i1l2202 0D51  
                  i1l2130 0C68                    i1l2122 0C5A                    i1l2026 163F  
                  i1l2018 1620                    i1l2212 0D6E                    i1l2220 0D82  
                  i1l2204 0D55                    i1l2132 0C6D                    i1l2140 0C7D  
                  i1l2124 0C5F                    i1l2300 03C0                    i1l2116 16C4  
                  i1l2108 16AB                    i1l2222 0D86                    i1l2214 0D72  
                  i1l2206 0D5B                    i1l2150 0C93                    i1l2142 0C85  
                  i1l2134 0C72                    i1l2126 0C63                    i1l2310 03E1  
                  i1l2302 03C5                    i1l2118 16D4                    i1l2240 0DD7  
                  i1l2232 0DA7                    i1l2224 0D87                    i1l2216 0D73  
                  i1l2208 0D63                    i1l2152 0C98                    i1l2160 0CA8  
                  i1l2144 0C8A                    i1l2136 0C7A                    i1l2128 0C67  
                  i1l2400 06A8                    i1l2320 046B                    i1l2312 03EE  
                  i1l2304 03CA                    i1l2250 0E0B                    i1l2234 0DAC  
                  i1l2242 0DDD                    i1l2226 0D8B                    i1l2218 0D7C  
                  i1l2162 0CB8                    i1l2170 0CD1                    i1l2154 0C9D  
                  i1l2146 0C8E                    i1l2138 0C7B                    i1l2330 04C9  
                  i1l2322 0487                    i1l2314 0409                    i1l2404 15FB  
                  i1l2252 0E13                    i1l2244 0DEA                    i1l2236 0DBA  
                  i1l2228 0D9F                    i1l2180 0CF9                    i1l2172 0CD6  
                  i1l2164 0CC4                    i1l2156 0CA5                    i1l2148 0C92  
                  i1l2340 0553                    i1l2332 04E6                    i1l2324 0490  
                  i1l2316 0425                    i1l2308 03D3                    i1l2092 1681  
                  i1l2406 1611                    i1l2254 0E18                    i1l2246 0DF8  
                  i1l2238 0DBE                    i1l2190 0D22                    i1l2182 0D01  
                  i1l2166 0CC8                    i1l2158 0CA6                    i1l2350 05E3  
                  i1l2342 057E                    i1l2334 04FD                    i1l2326 049E  
                  i1l2318 044F                    i1l2270 0379                    i1l2094 1694  
                  i1l2086 166D                    i1l2510 08B6                    i1l2408 1618  
                  i1l2256 0E1C                    i1l2248 0E07                    i1l2192 0D26  
                  i1l2184 0D09                    i1l2176 0CDF                    i1l2352 05EC  
                  i1l2360 0600                    i1l2344 05A4                    i1l2336 051A  
                  i1l2328 04BB                    i1l2280 038E                    i1l2272 037A  
                  i1l2264 036C                    i1l2096 1695                    i1l2088 1678  
                  i1l2520 08EF                    i1l2512 08C2                    i1l2258 0E1E  
                  i1l2194 0D27                    i1l2186 0D0B                    i1l2178 0CF1  
                  i1l2362 0604                    i1l2354 05F0                    i1l2346 05CC  
                  i1l2338 0545                    i1l2290 03A4                    i1l2282 0396  
                  i1l2274 037F                    i1l2266 0371                    i1l2098 169D  
                  i1l2522 08F8                    i1l2514 08CB                    i1l2506 0870  
                  i1l2530 0914                    i1l2188 0D10                    i1l2196 0D30  
                  i1l2380 0655                    i1l2372 0625                    i1l2364 0605  
                  i1l2356 05F1                    i1l2348 05D5                    i1l2292 03A9  
                  i1l2284 039B                    i1l2276 0384                    i1l2268 0375  
                  i1l2516 08DD                    i1l2508 08B1                    i1l2540 0940  
                  i1l2532 0924                    i1l2198 0D42                    i1l2390 068C  
                  i1l2374 062A                    i1l2382 065B                    i1l2366 0609  
                  i1l2358 05FA                    i1l2294 03AE                    i1l2286 039F  
                  i1l2278 038C                    i1l2518 08E3                    i1l2550 0976  
                  i1l2542 094D                    i1l2534 0934                    i1l2526 090B  
                  i1l2392 068E                    i1l2384 0668                    i1l2376 0638  
                  i1l2368 061D                    i1l2296 03B6                    i1l2288 03A3  
                  i1l2560 09AF                    i1l2552 0981                    i1l2544 0954  
                  i1l2528 0910                    i1l2394 069A                    i1l2386 0673  
                  i1l2378 063C                    i1l2298 03B8                    i1l2562 09B4  
                  i1l2554 0985                    i1l2546 0958                    i1l2538 093D  
                  i1l2570 06B1                    i1l2396 069E                    i1l2388 0682  
                  i1l2564 09B8                    i1l2556 098F                    i1l2548 0966  
                  i1l2580 06C9                    i1l2572 06B5                    i1l2398 069F  
                  i1l2566 09B9                    i1l2558 0999                    i1l2590 07D0  
                  i1l2582 06D2                    i1l2574 06C0                    i1l2592 07DD  
                  i1l2584 0748                    i1l2576 06C1                    i1l2586 0751  
                  i1l2578 06C5                    i1l2588 07C7                    u300_20 16C3  
                  u300_21 16C2                    u301_25 16C6                    u310_20 0CB8  
                  u302_20 16D4                    u310_21 0CB7                    u302_21 16D3  
                  u311_20 0CD6                    u303_20 16D9                    u311_21 0CD5  
                  u303_21 16D8                    u312_20 0D10                    u304_20 0C67  
                  u400_20 09B8                    u312_21 0D0F                    u304_21 0C66  
                  u400_21 09B7                    u320_25 0D67                    u321_20 0D72  
                  u305_20 0C6D                    u401_20 06B5                    u321_21 0D71  
                  u305_21 0C6C                    u401_21 06B4                    u313_25 0D12  
                  u330_20 0DEA                    u306_20 0C72                    u402_20 06C9  
                  u330_21 0DE9                    u306_21 0C71                    u402_21 06C8  
                  u330_25 0DE6                    u322_25 0D75                    u314_25 0D1B  
                  u331_20 0E07                    u323_20 0D86                    u315_20 0D26  
                  u307_20 0C92                    u403_20 06D2                    u331_21 0E06  
                  u323_21 0D85                    u315_21 0D25                    u307_21 0C91  
                  u403_21 06D1                    u331_25 0E03                    u332_20 0E1C  
                  u324_20 0D8B                    u308_20 0C98                    u340_20 03CA  
                  u404_20 0751                    u332_21 0E1B                    u324_21 0D8A  
                  u308_21 0C97                    u340_21 03C9                    u404_21 0750  
                  u316_25 0D29                    u325_20 0D9F                    u317_20 0D42  
                  u309_20 0C9D                    u333_20 0379                    u405_20 07D0  
                  u325_21 0D9E                    u317_21 0D41                    u309_21 0C9C  
                  u341_21 0417                    u333_21 0378                    u405_21 07CF  
                  u341_22 041E                    u341_23 0425                    u317_25 0D3E  
                  u326_20 0DA6                    u318_20 0D5B                    u334_20 037F  
                  u326_21 0DA5                    u318_21 0D5A                    u350_21 0537  
                  u342_21 0433                    u334_21 037E                    u350_22 053E  
                  u342_22 043A                    u350_23 0545                    u342_23 0441  
                  u327_20 0DAC                    u319_20 0D63                    u335_20 0384  
                  u327_21 0DAB                    u319_21 0D62                    u351_21 0562  
                  u343_21 045D                    u335_21 0383                    u351_22 0569  
                  u343_22 0464                    u351_23 0570                    u343_23 046B  
                  u328_20 0DBE                    u360_20 0604                    u352_20 058A  
                  u336_20 03A3                    u328_21 0DBD                    u360_21 0603  
                  u344_21 0479                    u336_21 03A2                    u344_22 0480  
                  u344_23 0487                    u352_25 0585                    u329_20 0DCD  
                  u361_20 0609                    u337_20 03A9                    u361_21 0608  
                  u353_21 0596                    u337_21 03A8                    u353_22 059D  
                  u353_23 05A4                    u329_25 0DC8                    u345_25 0489  
                  u370_20 1611                    u362_20 061D                    u354_20 05B2  
                  u338_20 03AE                    u370_21 1610                    u362_21 061C  
                  u346_21 04AD                    u338_21 03AD                    u346_22 04B4  
                  u346_23 04BB                    u370_25 160D                    u354_25 05AD  
                  u363_20 0624                    u339_20 03C5                    u363_21 0623  
                  u355_21 05BE                    u347_21 04D8                    u339_21 03C4  
                  u355_22 05C5                    u347_22 04DF                    u355_23 05CC  
                  u347_23 04E6                    u364_20 062A                    u364_21 0629  
                  u356_25 05CE                    u348_25 04E8                    u285_20 162B  
                  u365_20 063C                    u285_21 162A                    u365_21 063B  
                  u349_21 050C                    u349_22 0513                    u349_23 051A  
                  u357_25 05E5                    u366_20 064B                    u358_20 05F0  
                  u294_20 1678                    u358_21 05EF                    u294_21 1677  
                  u286_25 1632                    u366_25 0646                    u390_25 0945  
                  u287_20 163F                    u367_20 0668                    u295_20 168F  
                  u391_20 0953                    u287_21 163E                    u367_21 0667  
                  u391_21 0952                    u367_25 0664                    u359_25 05F3  
                  u295_25 168A                    u368_20 0682                    u296_20 16A3  
                  u368_21 0681                    u296_21 16A2                    u368_25 067E  
                  u392_25 0967                    u369_20 069E                    u297_20 16AA  
                  u385_20 08B6                    u393_20 0975                    u369_21 069D  
                  u297_21 16A9                    u385_21 08B5                    u393_21 0974  
                  u386_20 08E3                    u386_21 08E2                    u298_25 16AC  
                  u394_25 097A                    u299_20 16BC                    u395_20 0985  
                  u387_20 0910                    u299_21 16BB                    u395_21 0984  
                  u387_21 090F                    u396_20 098B                    u388_20 0914  
                  u396_21 098A                    u388_21 0913                    u397_20 098F  
                  u389_20 0934                    u397_21 098E                    u389_21 0933  
                  u398_20 09A4                    u398_25 099F                    u399_20 09B4  
                  u399_21 09B3          __end_of___xxtofl 0A7C                 ??___fldiv 00D4  
               ??___flmul 00BA                 ??___fltol 0194         __end_ofi1___fldiv 0E2D  
       __end_ofi1___flmul 06B1         __end_ofi1___fltol 16E5                    saved_w 007E  
         i1___fltol@sign1 005C              ___xxtofl@arg 00AE              ___xxtofl@exp 00AD  
            ___xxtofl@val 00A4   __end_of__initialization 0023                ___fltol@f1 0190  
            ?i1__Umul8_16 0070            __pcstackCOMMON 0070             __end_of_setup 086D  
               ?_PWM_duty 0198            _OPTION_REGbits 0081       i1PWM_duty@particion 0066  
                 ??_setup 01A2                __pbssBANK1 00E8                __pbssBANK3 01A4  
          i1___xxtofl@arg 007A            i1___xxtofl@exp 0079            i1___xxtofl@val 0070  
       __end_of__Umul8_16 166D                __pmaintext 0B59                __pintentry 0004  
            ??i1_PWM_duty 0062                ??_PWM_duty 019C                 ?___xxtofl 00A4  
     i1__Umul8_16@product 0074              PWM_duty@duty 0198           duty_cicle@ciclo 0070  
      __end_ofi1_PWM_duty 090A                   ___fldiv 0E2D                   ___flmul 0027  
                 ___fltol 1772                 _ANSELbits 0188              ??i1___xxtofl 0074  
                 __ptext1 0806                   __ptext2 0A7C                   __ptext3 0027  
                 __ptext4 1644                   __ptext5 16E5                   __ptext6 1772  
                 __ptext7 0E2D                   __ptext8 09C2                   __ptext9 06B1  
            ??_PWM_config 00E8                 _T2CONbits 0012                _duty_cicle 15FB  
              ??___xxtofl 00A8                   _dutyPot 00E8      end_of_initialization 0023  
          i1PWM_duty@duty 005E                _periodoPot 01A4                _potMapeado 01A6  
      __end_ofi1___xxtofl 09C2        __end_of_PWM_config 1772     i1__Umul8_16@word_mpld 0076  
               _PORTCbits 0007             ___xxtofl@sign 00AC                 _TRISCbits 0087  
               i1___fldiv 0C5A                 i1___flmul 036C               ___fldiv@grs 00E0  
               i1___fltol 166D               ___fldiv@rem 00D9               ___flmul@grs 00C0  
             _CCP1CONbits 0017               _CCP2CONbits 001D               ?_duty_cicle 0070  
     start_initialization 0013                ?i1___fldiv 0020               __end_of_isr 07E9  
              ?i1___flmul 003A                ?i1___fltol 0054                 __Umul8_16 1644  
               ___fldiv@a 00CC                 ___fldiv@b 00D0                 ___flmul@a 00B6  
               ___flmul@b 00B2                 ___latbits 0002             __pcstackBANK0 0020  
           __pcstackBANK1 00A0             __pcstackBANK3 0190           i1___xxtofl@sign 0078  
       i1___fldiv@new_exp 0032  i1__Umul8_16@multiplicand 0070                  ?___fldiv 00CC  
                ?___flmul 00B2                  ?___fltol 0190                ?__Umul8_16 00A4  
             ??i1___fldiv 0028               ??i1___flmul 0042               ??i1___fltol 0058  
       interrupt_function 0004                  _PIE1bits 008C                  _PIR1bits 000C  
           PWM_duty@canal 019F      PWM_config@periodo_ms 0198                _ADCON0bits 001F  
              _ADCON1bits 009F                  _PWM_duty 0A7C           PWM_config@canal 019C  
           ??i1__Umul8_16 0072               ??__Umul8_16 00A6              ??_duty_cicle 0072  
                ___xxtofl 09C2                  _isr$1218 00A0                  __ptext10 090A  
                __ptext11 086D                  __ptext12 166D                  __ptext13 036C  
                __ptext14 161D                  __ptext15 0C5A                  __ptext16 15FB  
      __end_of_duty_cicle 161D       __end_ofi1__Umul8_16 1644           i1PWM_duty@canal 0065  
              _INTCONbits 000B                  intlevel1 0000    i1__Umul8_16@multiplier 0078  
           _potenciometro 01AA         PWM_duty@particion 01A0                _OSCCONbits 008F  
              i1_PWM_duty 086D    __Umul8_16@multiplicand 00A4      __Umul8_16@multiplier 00AC  
             i1__Umul8_16 161D         __Umul8_16@product 00A8  
