

Microchip MPLAB XC8 Assembler V2.40 build 20220703182018 
                                                                                               Thu Apr 13 12:28:53 2023

Microchip MPLAB XC8 C Compiler v2.40 (Free license) build 20220703182018 Og1 
     1                           	processor	16F887
     2                           	pagewidth 120
     3                           	opt	flic
     4                           	psect	cinit,global,class=CODE,merge=1,delta=2
     5                           	psect	bssBANK0,global,class=BANK0,space=1,delta=1,noexec
     6                           	psect	bssBANK3,global,class=BANK3,space=1,delta=1,noexec
     7                           	psect	cstackBANK3,global,class=BANK3,space=1,delta=1,noexec
     8                           	psect	cstackBANK1,global,class=BANK1,space=1,delta=1,noexec
     9                           	psect	cstackCOMMON,global,class=COMMON,space=1,delta=1,noexec
    10                           	psect	cstackBANK0,global,class=BANK0,space=1,delta=1,noexec
    11                           	psect	maintext,global,class=CODE,split=1,delta=2
    12                           	psect	text1,local,class=CODE,merge=1,delta=2
    13                           	psect	text2,local,class=CODE,merge=1,delta=2
    14                           	psect	text3,local,class=CODE,merge=1,delta=2
    15                           	psect	text4,local,class=CODE,merge=1,delta=2,group=1
    16                           	psect	text5,local,class=CODE,merge=1,delta=2,group=1
    17                           	psect	text6,local,class=CODE,merge=1,delta=2,group=1
    18                           	psect	text7,local,class=CODE,merge=1,delta=2,group=1
    19                           	psect	text8,local,class=CODE,merge=1,delta=2,group=1
    20                           	psect	text9,local,class=CODE,merge=1,delta=2
    21                           	psect	intentry,global,class=CODE,delta=2
    22                           	psect	text10,local,class=CODE,merge=1,delta=2
    23                           	psect	text11,local,class=CODE,merge=1,delta=2
    24                           	psect	text12,local,class=CODE,merge=1,delta=2
    25                           	psect	text13,local,class=CODE,merge=1,delta=2
    26                           	psect	text14,local,class=CODE,merge=1,delta=2
    27                           	psect	text15,local,class=CODE,merge=1,delta=2
    28                           	psect	text16,local,class=CODE,merge=1,delta=2
    29                           	psect	idloc,global,abs,ovrld,class=IDLOC,space=5,delta=2,noexec
    30                           	psect	config,global,abs,ovrld,class=CONFIG,space=4,delta=2,noexec
    31                           	dabs	1,0x7E,2
    32     0000                     
    33                           ; Version 2.40
    34                           ; Generated 17/11/2021 GMT
    35                           ; 
    36                           ; Copyright © 2021, Microchip Technology Inc. and its subsidiaries ("Microchip")
    37                           ; All rights reserved.
    38                           ; 
    39                           ; This software is developed by Microchip Technology Inc. and its subsidiaries ("Microch
      +                          ip").
    40                           ; 
    41                           ; Redistribution and use in source and binary forms, with or without modification, are
    42                           ; permitted provided that the following conditions are met:
    43                           ; 
    44                           ;     1. Redistributions of source code must retain the above copyright notice, this lis
      +                          t of
    45                           ;        conditions and the following disclaimer.
    46                           ; 
    47                           ;     2. Redistributions in binary form must reproduce the above copyright notice, this 
      +                          list
    48                           ;        of conditions and the following disclaimer in the documentation and/or other
    49                           ;        materials provided with the distribution. Publication is not required when
    50                           ;        this file is used in an embedded application.
    51                           ; 
    52                           ;     3. Microchip's name may not be used to endorse or promote products derived from th
      +                          is
    53                           ;        software without specific prior written permission.
    54                           ; 
    55                           ; THIS SOFTWARE IS PROVIDED BY MICROCHIP "AS IS" AND ANY EXPRESS OR IMPLIED WARRANTIES,
    56                           ; INCLUDING, BUT NOT LIMITED TO, THE IMPLIED WARRANTIES OF MERCHANTABILITY AND FITNESS F
      +                          OR
    57                           ; PURPOSE ARE DISCLAIMED.  IN NO EVENT SHALL MICROCHIP BE LIABLE FOR ANY DIRECT, INDIREC
      +                          T,
    58                           ; INCIDENTAL, SPECIAL, EXEMPLARY, OR CONSEQUENTIAL DAMAGES (INCLUDING BUT NOT LIMITED TO
    59                           ; PROCUREMENT OF SUBSTITUTE GOODS OR SERVICES; LOSS OF USE, DATA OR PROFITS; OR BUSINESS
    60                           ; INTERRUPTION) HOWSOEVER CAUSED AND ON ANY THEORY OF LIABILITY, WHETHER IN CONTRACT, ST
      +                          RICT
    61                           ; LIABILITY, OR TORT (INCLUDING NEGLIGENCE OR OTHERWISE) ARISING IN ANY WAY OUT OF THE U
      +                          SE OF
    62                           ; THIS SOFTWARE, EVEN IF ADVISED OF THE POSSIBILITY OF SUCH DAMAGE.
    63                           ; 
    64                           ; 
    65                           ; Code-generator required, PIC16F887 Definitions
    66                           ; 
    67                           ; SFR Addresses
    68     0000                     	;# 
    69     0001                     	;# 
    70     0002                     	;# 
    71     0003                     	;# 
    72     0004                     	;# 
    73     0005                     	;# 
    74     0006                     	;# 
    75     0007                     	;# 
    76     0008                     	;# 
    77     0009                     	;# 
    78     000A                     	;# 
    79     000B                     	;# 
    80     000C                     	;# 
    81     000D                     	;# 
    82     000E                     	;# 
    83     000E                     	;# 
    84     000F                     	;# 
    85     0010                     	;# 
    86     0011                     	;# 
    87     0012                     	;# 
    88     0013                     	;# 
    89     0014                     	;# 
    90     0015                     	;# 
    91     0015                     	;# 
    92     0016                     	;# 
    93     0017                     	;# 
    94     0018                     	;# 
    95     0019                     	;# 
    96     001A                     	;# 
    97     001B                     	;# 
    98     001B                     	;# 
    99     001C                     	;# 
   100     001D                     	;# 
   101     001E                     	;# 
   102     001F                     	;# 
   103     0081                     	;# 
   104     0085                     	;# 
   105     0086                     	;# 
   106     0087                     	;# 
   107     0088                     	;# 
   108     0089                     	;# 
   109     008C                     	;# 
   110     008D                     	;# 
   111     008E                     	;# 
   112     008F                     	;# 
   113     0090                     	;# 
   114     0091                     	;# 
   115     0092                     	;# 
   116     0093                     	;# 
   117     0093                     	;# 
   118     0093                     	;# 
   119     0094                     	;# 
   120     0095                     	;# 
   121     0096                     	;# 
   122     0097                     	;# 
   123     0098                     	;# 
   124     0099                     	;# 
   125     009A                     	;# 
   126     009B                     	;# 
   127     009C                     	;# 
   128     009D                     	;# 
   129     009E                     	;# 
   130     009F                     	;# 
   131     0105                     	;# 
   132     0107                     	;# 
   133     0108                     	;# 
   134     0109                     	;# 
   135     010C                     	;# 
   136     010C                     	;# 
   137     010D                     	;# 
   138     010E                     	;# 
   139     010F                     	;# 
   140     0185                     	;# 
   141     0187                     	;# 
   142     0188                     	;# 
   143     0189                     	;# 
   144     018C                     	;# 
   145     018D                     	;# 
   146     0000                     	;# 
   147     0001                     	;# 
   148     0002                     	;# 
   149     0003                     	;# 
   150     0004                     	;# 
   151     0005                     	;# 
   152     0006                     	;# 
   153     0007                     	;# 
   154     0008                     	;# 
   155     0009                     	;# 
   156     000A                     	;# 
   157     000B                     	;# 
   158     000C                     	;# 
   159     000D                     	;# 
   160     000E                     	;# 
   161     000E                     	;# 
   162     000F                     	;# 
   163     0010                     	;# 
   164     0011                     	;# 
   165     0012                     	;# 
   166     0013                     	;# 
   167     0014                     	;# 
   168     0015                     	;# 
   169     0015                     	;# 
   170     0016                     	;# 
   171     0017                     	;# 
   172     0018                     	;# 
   173     0019                     	;# 
   174     001A                     	;# 
   175     001B                     	;# 
   176     001B                     	;# 
   177     001C                     	;# 
   178     001D                     	;# 
   179     001E                     	;# 
   180     001F                     	;# 
   181     0081                     	;# 
   182     0085                     	;# 
   183     0086                     	;# 
   184     0087                     	;# 
   185     0088                     	;# 
   186     0089                     	;# 
   187     008C                     	;# 
   188     008D                     	;# 
   189     008E                     	;# 
   190     008F                     	;# 
   191     0090                     	;# 
   192     0091                     	;# 
   193     0092                     	;# 
   194     0093                     	;# 
   195     0093                     	;# 
   196     0093                     	;# 
   197     0094                     	;# 
   198     0095                     	;# 
   199     0096                     	;# 
   200     0097                     	;# 
   201     0098                     	;# 
   202     0099                     	;# 
   203     009A                     	;# 
   204     009B                     	;# 
   205     009C                     	;# 
   206     009D                     	;# 
   207     009E                     	;# 
   208     009F                     	;# 
   209     0105                     	;# 
   210     0107                     	;# 
   211     0108                     	;# 
   212     0109                     	;# 
   213     010C                     	;# 
   214     010C                     	;# 
   215     010D                     	;# 
   216     010E                     	;# 
   217     010F                     	;# 
   218     0185                     	;# 
   219     0187                     	;# 
   220     0188                     	;# 
   221     0189                     	;# 
   222     018C                     	;# 
   223     018D                     	;# 
   224     0000                     	;# 
   225     0001                     	;# 
   226     0002                     	;# 
   227     0003                     	;# 
   228     0004                     	;# 
   229     0005                     	;# 
   230     0006                     	;# 
   231     0007                     	;# 
   232     0008                     	;# 
   233     0009                     	;# 
   234     000A                     	;# 
   235     000B                     	;# 
   236     000C                     	;# 
   237     000D                     	;# 
   238     000E                     	;# 
   239     000E                     	;# 
   240     000F                     	;# 
   241     0010                     	;# 
   242     0011                     	;# 
   243     0012                     	;# 
   244     0013                     	;# 
   245     0014                     	;# 
   246     0015                     	;# 
   247     0015                     	;# 
   248     0016                     	;# 
   249     0017                     	;# 
   250     0018                     	;# 
   251     0019                     	;# 
   252     001A                     	;# 
   253     001B                     	;# 
   254     001B                     	;# 
   255     001C                     	;# 
   256     001D                     	;# 
   257     001E                     	;# 
   258     001F                     	;# 
   259     0081                     	;# 
   260     0085                     	;# 
   261     0086                     	;# 
   262     0087                     	;# 
   263     0088                     	;# 
   264     0089                     	;# 
   265     008C                     	;# 
   266     008D                     	;# 
   267     008E                     	;# 
   268     008F                     	;# 
   269     0090                     	;# 
   270     0091                     	;# 
   271     0092                     	;# 
   272     0093                     	;# 
   273     0093                     	;# 
   274     0093                     	;# 
   275     0094                     	;# 
   276     0095                     	;# 
   277     0096                     	;# 
   278     0097                     	;# 
   279     0098                     	;# 
   280     0099                     	;# 
   281     009A                     	;# 
   282     009B                     	;# 
   283     009C                     	;# 
   284     009D                     	;# 
   285     009E                     	;# 
   286     009F                     	;# 
   287     0105                     	;# 
   288     0107                     	;# 
   289     0108                     	;# 
   290     0109                     	;# 
   291     010C                     	;# 
   292     010C                     	;# 
   293     010D                     	;# 
   294     010E                     	;# 
   295     010F                     	;# 
   296     0185                     	;# 
   297     0187                     	;# 
   298     0188                     	;# 
   299     0189                     	;# 
   300     018C                     	;# 
   301     018D                     	;# 
   302     0009                     _PORTE	set	9
   303     0008                     _PORTD	set	8
   304     0007                     _PORTC	set	7
   305     0005                     _PORTA	set	5
   306     0007                     _PORTCbits	set	7
   307     0006                     _PORTB	set	6
   308     001E                     _ADRESH	set	30
   309     001F                     _ADCON0bits	set	31
   310     0001                     _TMR0	set	1
   311     000B                     _INTCONbits	set	11
   312     0012                     _T2CONbits	set	18
   313     000C                     _PIR1bits	set	12
   314     001B                     _CCPR2L	set	27
   315     001D                     _CCP2CONbits	set	29
   316     0015                     _CCPR1L	set	21
   317     0017                     _CCP1CONbits	set	23
   318     009F                     _ADCON1bits	set	159
   319     008C                     _PIE1bits	set	140
   320     0081                     _OPTION_REGbits	set	129
   321     008F                     _OSCCONbits	set	143
   322     0089                     _TRISE	set	137
   323     0088                     _TRISD	set	136
   324     0087                     _TRISC	set	135
   325     0086                     _TRISB	set	134
   326     0087                     _TRISCbits	set	135
   327     0092                     _PR2	set	146
   328     0189                     _ANSELH	set	393
   329     0188                     _ANSELbits	set	392
   330                           
   331                           	psect	cinit
   332     0013                     start_initialization:	
   333                           ; #config settings
   334                           
   335     0013                     __initialization:
   336                           
   337                           ; Clear objects allocated to BANK0
   338     0013  1283               	bcf	3,5	;RP0=0, select bank0
   339     0014  1303               	bcf	3,6	;RP1=0, select bank0
   340     0015  01E7               	clrf	__pbssBANK0& (0+127)
   341     0016  01E8               	clrf	(__pbssBANK0+1)& (0+127)
   342     0017  01E9               	clrf	(__pbssBANK0+2)& (0+127)
   343     0018  01EA               	clrf	(__pbssBANK0+3)& (0+127)
   344     0019  01EB               	clrf	(__pbssBANK0+4)& (0+127)
   345     001A  01EC               	clrf	(__pbssBANK0+5)& (0+127)
   346                           
   347                           ; Clear objects allocated to BANK3
   348     001B  1683               	bsf	3,5	;RP0=1, select bank3
   349     001C  1703               	bsf	3,6	;RP1=1, select bank3
   350     001D  0190               	clrf	__pbssBANK3& (0+127)
   351     001E  0191               	clrf	(__pbssBANK3+1)& (0+127)
   352     001F  0192               	clrf	(__pbssBANK3+2)& (0+127)
   353     0020  0193               	clrf	(__pbssBANK3+3)& (0+127)
   354     0021  0194               	clrf	(__pbssBANK3+4)& (0+127)
   355     0022  0195               	clrf	(__pbssBANK3+5)& (0+127)
   356     0023                     end_of_initialization:	
   357                           ;End of C runtime variable initialization code
   358                           
   359     0023                     __end_of__initialization:
   360     0023  0183               	clrf	3
   361     0024  120A  158A  2B69   	ljmp	_main	;jump to C main() function
   362                           
   363                           	psect	bssBANK0
   364     0067                     __pbssBANK0:
   365     0067                     _periodoPot:
   366     0067                     	ds	2
   367     0069                     _dutyPot:
   368     0069                     	ds	2
   369     006B                     _i:
   370     006B                     	ds	2
   371                           
   372                           	psect	bssBANK3
   373     0190                     __pbssBANK3:
   374     0190                     _potMapeado:
   375     0190                     	ds	4
   376     0194                     _potenciometro:
   377     0194                     	ds	2
   378                           
   379                           	psect	cstackBANK3
   380     0196                     __pcstackBANK3:
   381     0196                     ??_PWM_duty:
   382     0196                     PWM_config@canal:	
   383                           ; 1 bytes @ 0x0
   384                           
   385                           
   386                           ; 1 bytes @ 0x0
   387     0196                     	ds	2
   388     0198                     PWM_duty@canal:
   389                           
   390                           ; 1 bytes @ 0x2
   391     0198                     	ds	1
   392     0199                     PWM_duty@particion:
   393                           
   394                           ; 1 bytes @ 0x3
   395     0199                     	ds	1
   396     019A                     ??_setup:
   397                           
   398                           ; 1 bytes @ 0x4
   399     019A                     	ds	1
   400     019B                     ??_main:
   401                           
   402                           ; 1 bytes @ 0x5
   403     019B                     	ds	1
   404                           
   405                           	psect	cstackBANK1
   406     00A0                     __pcstackBANK1:
   407     00A0                     ?__Umul8_16:
   408     00A0                     ?___xxtofl:	
   409                           ; 2 bytes @ 0x0
   410                           
   411     00A0                     __Umul8_16@multiplicand:	
   412                           ; 4 bytes @ 0x0
   413                           
   414     00A0                     ___xxtofl@val:	
   415                           ; 1 bytes @ 0x0
   416                           
   417                           
   418                           ; 4 bytes @ 0x0
   419     00A0                     	ds	2
   420     00A2                     ??__Umul8_16:
   421                           
   422                           ; 1 bytes @ 0x2
   423     00A2                     	ds	2
   424     00A4                     ??___xxtofl:
   425     00A4                     __Umul8_16@product:	
   426                           ; 1 bytes @ 0x4
   427                           
   428                           
   429                           ; 2 bytes @ 0x4
   430     00A4                     	ds	2
   431     00A6                     __Umul8_16@word_mpld:
   432                           
   433                           ; 2 bytes @ 0x6
   434     00A6                     	ds	2
   435     00A8                     __Umul8_16@multiplier:
   436     00A8                     ___xxtofl@sign:	
   437                           ; 1 bytes @ 0x8
   438                           
   439                           
   440                           ; 1 bytes @ 0x8
   441     00A8                     	ds	1
   442     00A9                     ___xxtofl@exp:
   443                           
   444                           ; 1 bytes @ 0x9
   445     00A9                     	ds	1
   446     00AA                     ___xxtofl@arg:
   447                           
   448                           ; 4 bytes @ 0xA
   449     00AA                     	ds	4
   450     00AE                     ?___flmul:
   451     00AE                     ___flmul@b:	
   452                           ; 4 bytes @ 0xE
   453                           
   454                           
   455                           ; 4 bytes @ 0xE
   456     00AE                     	ds	4
   457     00B2                     ___flmul@a:
   458                           
   459                           ; 4 bytes @ 0x12
   460     00B2                     	ds	4
   461     00B6                     ??___flmul:
   462                           
   463                           ; 1 bytes @ 0x16
   464     00B6                     	ds	5
   465     00BB                     ___flmul@sign:
   466                           
   467                           ; 1 bytes @ 0x1B
   468     00BB                     	ds	1
   469     00BC                     ___flmul@grs:
   470                           
   471                           ; 4 bytes @ 0x1C
   472     00BC                     	ds	4
   473     00C0                     ___flmul@aexp:
   474                           
   475                           ; 1 bytes @ 0x20
   476     00C0                     	ds	1
   477     00C1                     ___flmul@bexp:
   478                           
   479                           ; 1 bytes @ 0x21
   480     00C1                     	ds	1
   481     00C2                     ___flmul@prod:
   482                           
   483                           ; 4 bytes @ 0x22
   484     00C2                     	ds	4
   485     00C6                     ___flmul@temp:
   486                           
   487                           ; 2 bytes @ 0x26
   488     00C6                     	ds	2
   489     00C8                     ?___fldiv:
   490     00C8                     ___fldiv@a:	
   491                           ; 4 bytes @ 0x28
   492                           
   493                           
   494                           ; 4 bytes @ 0x28
   495     00C8                     	ds	4
   496     00CC                     ___fldiv@b:
   497                           
   498                           ; 4 bytes @ 0x2C
   499     00CC                     	ds	4
   500     00D0                     ??___fldiv:
   501                           
   502                           ; 1 bytes @ 0x30
   503     00D0                     	ds	5
   504     00D5                     ___fldiv@rem:
   505                           
   506                           ; 4 bytes @ 0x35
   507     00D5                     	ds	4
   508     00D9                     ___fldiv@sign:
   509                           
   510                           ; 1 bytes @ 0x39
   511     00D9                     	ds	1
   512     00DA                     ___fldiv@new_exp:
   513                           
   514                           ; 2 bytes @ 0x3A
   515     00DA                     	ds	2
   516     00DC                     ___fldiv@grs:
   517                           
   518                           ; 4 bytes @ 0x3C
   519     00DC                     	ds	4
   520     00E0                     ___fldiv@bexp:
   521                           
   522                           ; 1 bytes @ 0x40
   523     00E0                     	ds	1
   524     00E1                     ___fldiv@aexp:
   525                           
   526                           ; 1 bytes @ 0x41
   527     00E1                     	ds	1
   528     00E2                     ?___fltol:
   529     00E2                     ___fltol@f1:	
   530                           ; 4 bytes @ 0x42
   531                           
   532                           
   533                           ; 4 bytes @ 0x42
   534     00E2                     	ds	4
   535     00E6                     ??___fltol:
   536                           
   537                           ; 1 bytes @ 0x46
   538     00E6                     	ds	4
   539     00EA                     ___fltol@sign1:
   540                           
   541                           ; 1 bytes @ 0x4A
   542     00EA                     	ds	1
   543     00EB                     ___fltol@exp1:
   544                           
   545                           ; 1 bytes @ 0x4B
   546     00EB                     	ds	1
   547     00EC                     ?_PWM_config:
   548     00EC                     ?_PWM_duty:	
   549                           ; 1 bytes @ 0x4C
   550                           
   551     00EC                     PWM_config@periodo_ms:	
   552                           ; 1 bytes @ 0x4C
   553                           
   554     00EC                     PWM_duty@duty:	
   555                           ; 4 bytes @ 0x4C
   556                           
   557                           
   558                           ; 4 bytes @ 0x4C
   559     00EC                     	ds	4
   560     00F0                     ??_PWM_config:
   561                           
   562                           	psect	cstackCOMMON
   563     0070                     __pcstackCOMMON:	
   564                           ; 1 bytes @ 0x50
   565                           
   566     0070                     ?_duty_cicle:
   567     0070                     ?_setup:	
   568                           ; 1 bytes @ 0x0
   569                           
   570     0070                     ?_isr:	
   571                           ; 1 bytes @ 0x0
   572                           
   573     0070                     ?_main:	
   574                           ; 1 bytes @ 0x0
   575                           
   576     0070                     ?i1__Umul8_16:	
   577                           ; 1 bytes @ 0x0
   578                           
   579     0070                     ?i1___xxtofl:	
   580                           ; 2 bytes @ 0x0
   581                           
   582     0070                     i1__Umul8_16@multiplicand:	
   583                           ; 4 bytes @ 0x0
   584                           
   585     0070                     duty_cicle@ciclo:	
   586                           ; 1 bytes @ 0x0
   587                           
   588     0070                     i1___xxtofl@val:	
   589                           ; 2 bytes @ 0x0
   590                           
   591                           
   592                           ; 4 bytes @ 0x0
   593     0070                     	ds	2
   594     0072                     ??_duty_cicle:
   595     0072                     ??i1__Umul8_16:	
   596                           ; 1 bytes @ 0x2
   597                           
   598                           
   599                           ; 1 bytes @ 0x2
   600     0072                     	ds	2
   601     0074                     ??i1___xxtofl:
   602     0074                     i1__Umul8_16@product:	
   603                           ; 1 bytes @ 0x4
   604                           
   605                           
   606                           ; 2 bytes @ 0x4
   607     0074                     	ds	2
   608     0076                     i1__Umul8_16@word_mpld:
   609                           
   610                           ; 2 bytes @ 0x6
   611     0076                     	ds	2
   612     0078                     i1__Umul8_16@multiplier:
   613     0078                     i1___xxtofl@sign:	
   614                           ; 1 bytes @ 0x8
   615                           
   616                           
   617                           ; 1 bytes @ 0x8
   618     0078                     	ds	1
   619     0079                     i1___xxtofl@exp:
   620                           
   621                           ; 1 bytes @ 0x9
   622     0079                     	ds	1
   623     007A                     i1___xxtofl@arg:
   624                           
   625                           ; 4 bytes @ 0xA
   626     007A                     	ds	4
   627                           
   628                           	psect	cstackBANK0
   629     0020                     __pcstackBANK0:
   630     0020                     ?i1___fldiv:
   631     0020                     i1___fldiv@a:	
   632                           ; 4 bytes @ 0x0
   633                           
   634                           
   635                           ; 4 bytes @ 0x0
   636     0020                     	ds	4
   637     0024                     i1___fldiv@b:
   638                           
   639                           ; 4 bytes @ 0x4
   640     0024                     	ds	4
   641     0028                     ??i1___fldiv:
   642                           
   643                           ; 1 bytes @ 0x8
   644     0028                     	ds	5
   645     002D                     i1___fldiv@rem:
   646                           
   647                           ; 4 bytes @ 0xD
   648     002D                     	ds	4
   649     0031                     i1___fldiv@sign:
   650                           
   651                           ; 1 bytes @ 0x11
   652     0031                     	ds	1
   653     0032                     i1___fldiv@new_exp:
   654                           
   655                           ; 2 bytes @ 0x12
   656     0032                     	ds	2
   657     0034                     i1___fldiv@grs:
   658                           
   659                           ; 4 bytes @ 0x14
   660     0034                     	ds	4
   661     0038                     i1___fldiv@bexp:
   662                           
   663                           ; 1 bytes @ 0x18
   664     0038                     	ds	1
   665     0039                     i1___fldiv@aexp:
   666                           
   667                           ; 1 bytes @ 0x19
   668     0039                     	ds	1
   669     003A                     ?i1___fltol:
   670     003A                     ?i1___flmul:	
   671                           ; 4 bytes @ 0x1A
   672                           
   673     003A                     i1___fltol@f1:	
   674                           ; 4 bytes @ 0x1A
   675                           
   676     003A                     i1___flmul@b:	
   677                           ; 4 bytes @ 0x1A
   678                           
   679                           
   680                           ; 4 bytes @ 0x1A
   681     003A                     	ds	4
   682     003E                     ??i1___fltol:
   683     003E                     i1___flmul@a:	
   684                           ; 1 bytes @ 0x1E
   685                           
   686                           
   687                           ; 4 bytes @ 0x1E
   688     003E                     	ds	4
   689     0042                     ??i1___flmul:
   690     0042                     i1___fltol@sign1:	
   691                           ; 1 bytes @ 0x22
   692                           
   693                           
   694                           ; 1 bytes @ 0x22
   695     0042                     	ds	1
   696     0043                     i1___fltol@exp1:
   697                           
   698                           ; 1 bytes @ 0x23
   699     0043                     	ds	4
   700     0047                     i1___flmul@sign:
   701                           
   702                           ; 1 bytes @ 0x27
   703     0047                     	ds	1
   704     0048                     i1___flmul@grs:
   705                           
   706                           ; 4 bytes @ 0x28
   707     0048                     	ds	4
   708     004C                     i1___flmul@aexp:
   709                           
   710                           ; 1 bytes @ 0x2C
   711     004C                     	ds	1
   712     004D                     i1___flmul@bexp:
   713                           
   714                           ; 1 bytes @ 0x2D
   715     004D                     	ds	1
   716     004E                     i1___flmul@prod:
   717                           
   718                           ; 4 bytes @ 0x2E
   719     004E                     	ds	4
   720     0052                     i1___flmul@temp:
   721                           
   722                           ; 2 bytes @ 0x32
   723     0052                     	ds	2
   724     0054                     ?i1_PWM_duty:
   725     0054                     i1PWM_duty@duty:	
   726                           ; 1 bytes @ 0x34
   727                           
   728                           
   729                           ; 4 bytes @ 0x34
   730     0054                     	ds	4
   731     0058                     ??i1_PWM_duty:
   732                           
   733                           ; 1 bytes @ 0x38
   734     0058                     	ds	2
   735     005A                     i1PWM_duty@canal:
   736                           
   737                           ; 1 bytes @ 0x3A
   738     005A                     	ds	1
   739     005B                     i1PWM_duty@particion:
   740                           
   741                           ; 1 bytes @ 0x3B
   742     005B                     	ds	1
   743     005C                     ??_isr:
   744                           
   745                           ; 1 bytes @ 0x3C
   746     005C                     	ds	7
   747     0063                     _isr$1218:
   748                           
   749                           ; 4 bytes @ 0x43
   750     0063                     	ds	4
   751                           
   752                           	psect	maintext
   753     0B69                     __pmaintext:	
   754 ;;
   755 ;;Main: autosize = 0, tempsize = 1, incstack = 0, save=0
   756 ;;
   757 ;; *************** function _main *****************
   758 ;; Defined at:
   759 ;;		line 86 in file "PostLabC02.c"
   760 ;; Parameters:    Size  Location     Type
   761 ;;		None
   762 ;; Auto vars:     Size  Location     Type
   763 ;;		None
   764 ;; Return value:  Size  Location     Type
   765 ;;                  1    wreg      void 
   766 ;; Registers used:
   767 ;;		wreg, status,2, status,0, btemp+1, pclath, cstack
   768 ;; Tracked objects:
   769 ;;		On entry : B00/0
   770 ;;		On exit  : 0/0
   771 ;;		Unchanged: 0/0
   772 ;; Data sizes:     COMMON   BANK0   BANK1   BANK3   BANK2
   773 ;;      Params:         0       0       0       0       0
   774 ;;      Locals:         0       0       0       0       0
   775 ;;      Temps:          0       0       0       1       0
   776 ;;      Totals:         0       0       0       1       0
   777 ;;Total ram usage:        1 bytes
   778 ;; Hardware stack levels required when called: 6
   779 ;; This function calls:
   780 ;;		___fldiv
   781 ;;		___flmul
   782 ;;		___fltol
   783 ;;		___xxtofl
   784 ;;		_setup
   785 ;; This function is called by:
   786 ;;		Startup code after reset
   787 ;; This function uses a non-reentrant model
   788 ;;
   789                           
   790     0B69                     _main:	
   791                           ;psect for function _main
   792                           
   793     0B69                     l2572:	
   794                           ;incstack = 0
   795                           ; Regs used in _main: [wreg+status,2+status,0+btemp+1+pclath+cstack]
   796                           
   797                           
   798                           ;PostLabC02.c: 87:     setup ();
   799     0B69  120A  158A  20D0  120A  158A  	fcall	_setup
   800     0B6E                     l2574:
   801                           
   802                           ;PostLabC02.c: 88:     ADCON0bits.GO = 1;
   803     0B6E  1283               	bcf	3,5	;RP0=0, select bank0
   804     0B6F  1303               	bcf	3,6	;RP1=0, select bank0
   805     0B70  149F               	bsf	31,1	;volatile
   806     0B71                     l112:	
   807                           ;PostLabC02.c: 89:     while(1){
   808                           
   809                           
   810                           ;PostLabC02.c: 90:         potMapeado = (0.39215686f*potenciometro)/100;
   811     0B71  3042               	movlw	66
   812     0B72  1683               	bsf	3,5	;RP0=1, select bank1
   813     0B73  1303               	bcf	3,6	;RP1=0, select bank1
   814     0B74  00CB               	movwf	(___fldiv@a+3)^(0+128)
   815     0B75  30C8               	movlw	200
   816     0B76  00CA               	movwf	(___fldiv@a+2)^(0+128)
   817     0B77  3000               	movlw	0
   818     0B78  00C9               	movwf	(___fldiv@a+1)^(0+128)
   819     0B79  3000               	movlw	0
   820     0B7A  00C8               	movwf	___fldiv@a^(0+128)
   821     0B7B  303E               	movlw	62
   822     0B7C  00B1               	movwf	(___flmul@b+3)^(0+128)
   823     0B7D  30C8               	movlw	200
   824     0B7E  00B0               	movwf	(___flmul@b+2)^(0+128)
   825     0B7F  30C8               	movlw	200
   826     0B80  00AF               	movwf	(___flmul@b+1)^(0+128)
   827     0B81  30C9               	movlw	201
   828     0B82  00AE               	movwf	___flmul@b^(0+128)
   829     0B83  1683               	bsf	3,5	;RP0=1, select bank3
   830     0B84  1703               	bsf	3,6	;RP1=1, select bank3
   831     0B85  0814               	movf	_potenciometro^(0+384),w
   832     0B86  1683               	bsf	3,5	;RP0=1, select bank1
   833     0B87  1303               	bcf	3,6	;RP1=0, select bank1
   834     0B88  00A0               	movwf	___xxtofl@val^(0+128)
   835     0B89  1683               	bsf	3,5	;RP0=1, select bank3
   836     0B8A  1703               	bsf	3,6	;RP1=1, select bank3
   837     0B8B  0815               	movf	(_potenciometro+1)^(0+384),w
   838     0B8C  1683               	bsf	3,5	;RP0=1, select bank1
   839     0B8D  1303               	bcf	3,6	;RP1=0, select bank1
   840     0B8E  00A1               	movwf	(___xxtofl@val+1)^(0+128)
   841     0B8F  3000               	movlw	0
   842     0B90  1BA1               	btfsc	(___xxtofl@val+1)^(0+128),7
   843     0B91  30FF               	movlw	255
   844     0B92  00A2               	movwf	(___xxtofl@val+2)^(0+128)
   845     0B93  00A3               	movwf	(___xxtofl@val+3)^(0+128)
   846     0B94  3001               	movlw	1
   847     0B95  120A  158A  22AF  120A  158A  	fcall	___xxtofl
   848     0B9A  1683               	bsf	3,5	;RP0=1, select bank1
   849     0B9B  1303               	bcf	3,6	;RP1=0, select bank1
   850     0B9C  0823               	movf	(?___xxtofl+3)^(0+128),w
   851     0B9D  00B5               	movwf	(___flmul@a+3)^(0+128)
   852     0B9E  0822               	movf	(?___xxtofl+2)^(0+128),w
   853     0B9F  00B4               	movwf	(___flmul@a+2)^(0+128)
   854     0BA0  0821               	movf	(?___xxtofl+1)^(0+128),w
   855     0BA1  00B3               	movwf	(___flmul@a+1)^(0+128)
   856     0BA2  0820               	movf	?___xxtofl^(0+128),w
   857     0BA3  00B2               	movwf	___flmul@a^(0+128)
   858     0BA4  120A  118A  2027  120A  158A  	fcall	___flmul
   859     0BA9  1683               	bsf	3,5	;RP0=1, select bank1
   860     0BAA  1303               	bcf	3,6	;RP1=0, select bank1
   861     0BAB  0831               	movf	(?___flmul+3)^(0+128),w
   862     0BAC  00CF               	movwf	(___fldiv@b+3)^(0+128)
   863     0BAD  0830               	movf	(?___flmul+2)^(0+128),w
   864     0BAE  00CE               	movwf	(___fldiv@b+2)^(0+128)
   865     0BAF  082F               	movf	(?___flmul+1)^(0+128),w
   866     0BB0  00CD               	movwf	(___fldiv@b+1)^(0+128)
   867     0BB1  082E               	movf	?___flmul^(0+128),w
   868     0BB2  00CC               	movwf	___fldiv@b^(0+128)
   869     0BB3  120A  158A  262D  120A  158A  	fcall	___fldiv
   870     0BB8  1683               	bsf	3,5	;RP0=1, select bank1
   871     0BB9  1303               	bcf	3,6	;RP1=0, select bank1
   872     0BBA  084B               	movf	(?___fldiv+3)^(0+128),w
   873     0BBB  1683               	bsf	3,5	;RP0=1, select bank3
   874     0BBC  1703               	bsf	3,6	;RP1=1, select bank3
   875     0BBD  0093               	movwf	(_potMapeado+3)^(0+384)
   876     0BBE  1683               	bsf	3,5	;RP0=1, select bank1
   877     0BBF  1303               	bcf	3,6	;RP1=0, select bank1
   878     0BC0  084A               	movf	(?___fldiv+2)^(0+128),w
   879     0BC1  1683               	bsf	3,5	;RP0=1, select bank3
   880     0BC2  1703               	bsf	3,6	;RP1=1, select bank3
   881     0BC3  0092               	movwf	(_potMapeado+2)^(0+384)
   882     0BC4  1683               	bsf	3,5	;RP0=1, select bank1
   883     0BC5  1303               	bcf	3,6	;RP1=0, select bank1
   884     0BC6  0849               	movf	(?___fldiv+1)^(0+128),w
   885     0BC7  1683               	bsf	3,5	;RP0=1, select bank3
   886     0BC8  1703               	bsf	3,6	;RP1=1, select bank3
   887     0BC9  0091               	movwf	(_potMapeado+1)^(0+384)
   888     0BCA  1683               	bsf	3,5	;RP0=1, select bank1
   889     0BCB  1303               	bcf	3,6	;RP1=0, select bank1
   890     0BCC  0848               	movf	?___fldiv^(0+128),w
   891     0BCD  1683               	bsf	3,5	;RP0=1, select bank3
   892     0BCE  1703               	bsf	3,6	;RP1=1, select bank3
   893     0BCF  0090               	movwf	_potMapeado^(0+384)
   894                           
   895                           ;PostLabC02.c: 91:         dutyPot = (int)(20 * potMapeado);
   896     0BD0  0813               	movf	(_potMapeado+3)^(0+384),w
   897     0BD1  1683               	bsf	3,5	;RP0=1, select bank1
   898     0BD2  1303               	bcf	3,6	;RP1=0, select bank1
   899     0BD3  00B5               	movwf	(___flmul@a+3)^(0+128)
   900     0BD4  1683               	bsf	3,5	;RP0=1, select bank3
   901     0BD5  1703               	bsf	3,6	;RP1=1, select bank3
   902     0BD6  0812               	movf	(_potMapeado+2)^(0+384),w
   903     0BD7  1683               	bsf	3,5	;RP0=1, select bank1
   904     0BD8  1303               	bcf	3,6	;RP1=0, select bank1
   905     0BD9  00B4               	movwf	(___flmul@a+2)^(0+128)
   906     0BDA  1683               	bsf	3,5	;RP0=1, select bank3
   907     0BDB  1703               	bsf	3,6	;RP1=1, select bank3
   908     0BDC  0811               	movf	(_potMapeado+1)^(0+384),w
   909     0BDD  1683               	bsf	3,5	;RP0=1, select bank1
   910     0BDE  1303               	bcf	3,6	;RP1=0, select bank1
   911     0BDF  00B3               	movwf	(___flmul@a+1)^(0+128)
   912     0BE0  1683               	bsf	3,5	;RP0=1, select bank3
   913     0BE1  1703               	bsf	3,6	;RP1=1, select bank3
   914     0BE2  0810               	movf	_potMapeado^(0+384),w
   915     0BE3  1683               	bsf	3,5	;RP0=1, select bank1
   916     0BE4  1303               	bcf	3,6	;RP1=0, select bank1
   917     0BE5  00B2               	movwf	___flmul@a^(0+128)
   918     0BE6  3041               	movlw	65
   919     0BE7  00B1               	movwf	(___flmul@b+3)^(0+128)
   920     0BE8  30A0               	movlw	160
   921     0BE9  00B0               	movwf	(___flmul@b+2)^(0+128)
   922     0BEA  3000               	movlw	0
   923     0BEB  00AF               	movwf	(___flmul@b+1)^(0+128)
   924     0BEC  3000               	movlw	0
   925     0BED  00AE               	movwf	___flmul@b^(0+128)
   926     0BEE  120A  118A  2027  120A  158A  	fcall	___flmul
   927     0BF3  1683               	bsf	3,5	;RP0=1, select bank1
   928     0BF4  1303               	bcf	3,6	;RP1=0, select bank1
   929     0BF5  0831               	movf	(?___flmul+3)^(0+128),w
   930     0BF6  00E5               	movwf	(___fltol@f1+3)^(0+128)
   931     0BF7  0830               	movf	(?___flmul+2)^(0+128),w
   932     0BF8  00E4               	movwf	(___fltol@f1+2)^(0+128)
   933     0BF9  082F               	movf	(?___flmul+1)^(0+128),w
   934     0BFA  00E3               	movwf	(___fltol@f1+1)^(0+128)
   935     0BFB  082E               	movf	?___flmul^(0+128),w
   936     0BFC  00E2               	movwf	___fltol@f1^(0+128)
   937     0BFD  120A  158A  2058  120A  158A  	fcall	___fltol
   938     0C02  1683               	bsf	3,5	;RP0=1, select bank1
   939     0C03  1303               	bcf	3,6	;RP1=0, select bank1
   940     0C04  0863               	movf	(?___fltol+1)^(0+128),w
   941     0C05  1283               	bcf	3,5	;RP0=0, select bank0
   942     0C06  1303               	bcf	3,6	;RP1=0, select bank0
   943     0C07  00EA               	movwf	_dutyPot+1
   944     0C08  1683               	bsf	3,5	;RP0=1, select bank1
   945     0C09  1303               	bcf	3,6	;RP1=0, select bank1
   946     0C0A  0862               	movf	?___fltol^(0+128),w
   947     0C0B  1283               	bcf	3,5	;RP0=0, select bank0
   948     0C0C  1303               	bcf	3,6	;RP1=0, select bank0
   949     0C0D  00E9               	movwf	_dutyPot
   950     0C0E                     l2576:
   951                           
   952                           ;PostLabC02.c: 93:         PORTB = (unsigned char)dutyPot;
   953     0C0E  0869               	movf	_dutyPot,w
   954     0C0F  0086               	movwf	6	;volatile
   955     0C10                     l2578:
   956                           
   957                           ;PostLabC02.c: 94:         if (ADCON0bits.GO == 0) {
   958     0C10  189F               	btfsc	31,1	;volatile
   959     0C11  2C13               	goto	u4141
   960     0C12  2C14               	goto	u4140
   961     0C13                     u4141:
   962     0C13  2B71               	goto	l112
   963     0C14                     u4140:
   964     0C14                     l2580:
   965                           
   966                           ;PostLabC02.c: 95:             if(ADCON0bits.CHS == 0b0000)
   967     0C14  0C1F               	rrf	31,w	;volatile
   968     0C15  1683               	bsf	3,5	;RP0=1, select bank3
   969     0C16  1703               	bsf	3,6	;RP1=1, select bank3
   970     0C17  009B               	movwf	??_main^(0+384)
   971     0C18  0C1B               	rrf	??_main^(0+384),w
   972     0C19  390F               	andlw	15
   973     0C1A  3A00               	xorlw	0
   974     0C1B  1D03               	skipz
   975     0C1C  2C1E               	goto	u4151
   976     0C1D  2C1F               	goto	u4150
   977     0C1E                     u4151:
   978     0C1E  2C26               	goto	l2584
   979     0C1F                     u4150:
   980     0C1F                     l2582:
   981                           
   982                           ;PostLabC02.c: 96:             {;PostLabC02.c: 97:                 ADCON0bits.CHS = 0b01
      +                          00;
   983     0C1F  1283               	bcf	3,5	;RP0=0, select bank0
   984     0C20  1303               	bcf	3,6	;RP1=0, select bank0
   985     0C21  081F               	movf	31,w	;volatile
   986     0C22  39C3               	andlw	-61
   987     0C23  3810               	iorlw	16
   988     0C24  009F               	movwf	31	;volatile
   989                           
   990                           ;PostLabC02.c: 98:             }
   991     0C25  2C4B               	goto	l2592
   992     0C26                     l2584:
   993     0C26  1283               	bcf	3,5	;RP0=0, select bank0
   994     0C27  1303               	bcf	3,6	;RP1=0, select bank0
   995     0C28  0C1F               	rrf	31,w	;volatile
   996     0C29  1683               	bsf	3,5	;RP0=1, select bank3
   997     0C2A  1703               	bsf	3,6	;RP1=1, select bank3
   998     0C2B  009B               	movwf	??_main^(0+384)
   999     0C2C  0C1B               	rrf	??_main^(0+384),w
  1000     0C2D  390F               	andlw	15
  1001     0C2E  3A04               	xorlw	4
  1002     0C2F  1D03               	skipz
  1003     0C30  2C32               	goto	u4161
  1004     0C31  2C33               	goto	u4160
  1005     0C32                     u4161:
  1006     0C32  2C3A               	goto	l2588
  1007     0C33                     u4160:
  1008     0C33                     l2586:
  1009                           
  1010                           ;PostLabC02.c: 100:             {;PostLabC02.c: 101:                 ADCON0bits.CHS = 0b
      +                          0010;
  1011     0C33  1283               	bcf	3,5	;RP0=0, select bank0
  1012     0C34  1303               	bcf	3,6	;RP1=0, select bank0
  1013     0C35  081F               	movf	31,w	;volatile
  1014     0C36  39C3               	andlw	-61
  1015     0C37  3808               	iorlw	8
  1016     0C38  009F               	movwf	31	;volatile
  1017                           
  1018                           ;PostLabC02.c: 102:             }
  1019     0C39  2C4B               	goto	l2592
  1020     0C3A                     l2588:
  1021     0C3A  1283               	bcf	3,5	;RP0=0, select bank0
  1022     0C3B  1303               	bcf	3,6	;RP1=0, select bank0
  1023     0C3C  0C1F               	rrf	31,w	;volatile
  1024     0C3D  1683               	bsf	3,5	;RP0=1, select bank3
  1025     0C3E  1703               	bsf	3,6	;RP1=1, select bank3
  1026     0C3F  009B               	movwf	??_main^(0+384)
  1027     0C40  0C1B               	rrf	??_main^(0+384),w
  1028     0C41  390F               	andlw	15
  1029     0C42  3A02               	xorlw	2
  1030     0C43  1D03               	skipz
  1031     0C44  2C46               	goto	u4171
  1032     0C45  2C47               	goto	u4170
  1033     0C46                     u4171:
  1034     0C46  2C4B               	goto	l2592
  1035     0C47                     u4170:
  1036     0C47                     l2590:
  1037                           
  1038                           ;PostLabC02.c: 104:             {;PostLabC02.c: 105:                 ADCON0bits.CHS = 0b
      +                          0000;
  1039     0C47  30C3               	movlw	-61
  1040     0C48  1283               	bcf	3,5	;RP0=0, select bank0
  1041     0C49  1303               	bcf	3,6	;RP1=0, select bank0
  1042     0C4A  059F               	andwf	31,f	;volatile
  1043     0C4B                     l2592:
  1044                           
  1045                           ;PostLabC02.c: 107:             _delay((unsigned long)((1000)*(4000000/4000000.0)));
  1046     0C4B  30C7               	movlw	199
  1047     0C4C  1683               	bsf	3,5	;RP0=1, select bank3
  1048     0C4D  1703               	bsf	3,6	;RP1=1, select bank3
  1049     0C4E  009B               	movwf	??_main^(0+384)
  1050     0C4F                     u4187:
  1051     0C4F  2C50               	nop2
  1052     0C50  0B9B               	decfsz	??_main^(0+384),f
  1053     0C51  2C4F               	goto	u4187
  1054     0C52  2C53               	nop2
  1055     0C53                     l2594:
  1056                           
  1057                           ;PostLabC02.c: 108:             ADCON0bits.GO = 1;
  1058     0C53  1283               	bcf	3,5	;RP0=0, select bank0
  1059     0C54  1303               	bcf	3,6	;RP1=0, select bank0
  1060     0C55  149F               	bsf	31,1	;volatile
  1061     0C56  2B71               	goto	l112
  1062     0C57  120A  118A  2810   	ljmp	start
  1063     0C5A                     __end_of_main:
  1064                           
  1065                           	psect	text1
  1066     08D0                     __ptext1:	
  1067 ;; *************** function _setup *****************
  1068 ;; Defined at:
  1069 ;;		line 126 in file "PostLabC02.c"
  1070 ;; Parameters:    Size  Location     Type
  1071 ;;		None
  1072 ;; Auto vars:     Size  Location     Type
  1073 ;;		None
  1074 ;; Return value:  Size  Location     Type
  1075 ;;                  1    wreg      void 
  1076 ;; Registers used:
  1077 ;;		wreg, status,2, status,0, btemp+1, pclath, cstack
  1078 ;; Tracked objects:
  1079 ;;		On entry : 0/0
  1080 ;;		On exit  : 0/0
  1081 ;;		Unchanged: 0/0
  1082 ;; Data sizes:     COMMON   BANK0   BANK1   BANK3   BANK2
  1083 ;;      Params:         0       0       0       0       0
  1084 ;;      Locals:         0       0       0       0       0
  1085 ;;      Temps:          0       0       0       1       0
  1086 ;;      Totals:         0       0       0       1       0
  1087 ;;Total ram usage:        1 bytes
  1088 ;; Hardware stack levels used: 1
  1089 ;; Hardware stack levels required when called: 5
  1090 ;; This function calls:
  1091 ;;		_PWM_config
  1092 ;;		_PWM_duty
  1093 ;; This function is called by:
  1094 ;;		_main
  1095 ;; This function uses a non-reentrant model
  1096 ;;
  1097                           
  1098     08D0                     _setup:	
  1099                           ;psect for function _setup
  1100                           
  1101     08D0                     l2112:	
  1102                           ;incstack = 0
  1103                           ; Regs used in _setup: [wreg+status,2+status,0+btemp+1+pclath+cstack]
  1104                           
  1105                           
  1106                           ;PostLabC02.c: 128:     ANSELbits.ANS0 = 1;
  1107     08D0  1683               	bsf	3,5	;RP0=1, select bank3
  1108     08D1  1703               	bsf	3,6	;RP1=1, select bank3
  1109     08D2  1408               	bsf	8,0	;volatile
  1110                           
  1111                           ;PostLabC02.c: 129:     ANSELbits.ANS2 = 1;
  1112     08D3  1508               	bsf	8,2	;volatile
  1113                           
  1114                           ;PostLabC02.c: 130:     ANSELbits.ANS4 = 1;
  1115     08D4  1608               	bsf	8,4	;volatile
  1116     08D5                     l2114:
  1117                           
  1118                           ;PostLabC02.c: 131:     ANSELH = 0;
  1119     08D5  0189               	clrf	9	;volatile
  1120                           
  1121                           ;PostLabC02.c: 134:     TRISB = 0;
  1122     08D6  1683               	bsf	3,5	;RP0=1, select bank1
  1123     08D7  1303               	bcf	3,6	;RP1=0, select bank1
  1124     08D8  0186               	clrf	6	;volatile
  1125                           
  1126                           ;PostLabC02.c: 135:     TRISC = 0;
  1127     08D9  0187               	clrf	7	;volatile
  1128                           
  1129                           ;PostLabC02.c: 136:     TRISD = 0;
  1130     08DA  0188               	clrf	8	;volatile
  1131                           
  1132                           ;PostLabC02.c: 137:     TRISE = 0;
  1133     08DB  0189               	clrf	9	;volatile
  1134                           
  1135                           ;PostLabC02.c: 140:     PORTA = 0;
  1136     08DC  1283               	bcf	3,5	;RP0=0, select bank0
  1137     08DD  1303               	bcf	3,6	;RP1=0, select bank0
  1138     08DE  0185               	clrf	5	;volatile
  1139                           
  1140                           ;PostLabC02.c: 141:     PORTB = 0;
  1141     08DF  0186               	clrf	6	;volatile
  1142                           
  1143                           ;PostLabC02.c: 142:     PORTC = 0;
  1144     08E0  0187               	clrf	7	;volatile
  1145                           
  1146                           ;PostLabC02.c: 143:     PORTD = 0;
  1147     08E1  0188               	clrf	8	;volatile
  1148                           
  1149                           ;PostLabC02.c: 144:     PORTE = 0;
  1150     08E2  0189               	clrf	9	;volatile
  1151     08E3                     l2116:
  1152                           
  1153                           ;PostLabC02.c: 147:     OSCCONbits.IRCF = 0b110 ;
  1154     08E3  1683               	bsf	3,5	;RP0=1, select bank1
  1155     08E4  1303               	bcf	3,6	;RP1=0, select bank1
  1156     08E5  080F               	movf	15,w	;volatile
  1157     08E6  398F               	andlw	-113
  1158     08E7  3860               	iorlw	96
  1159     08E8  008F               	movwf	15	;volatile
  1160     08E9                     l2118:
  1161                           
  1162                           ;PostLabC02.c: 148:     OSCCONbits.SCS = 1;
  1163     08E9  140F               	bsf	15,0	;volatile
  1164     08EA                     l2120:
  1165                           
  1166                           ;PostLabC02.c: 152:     OPTION_REGbits.T0CS = 0;
  1167     08EA  1281               	bcf	1,5	;volatile
  1168     08EB                     l2122:
  1169                           
  1170                           ;PostLabC02.c: 153:     OPTION_REGbits.PSA = 0;
  1171     08EB  1181               	bcf	1,3	;volatile
  1172     08EC                     l2124:
  1173                           
  1174                           ;PostLabC02.c: 154:     OPTION_REGbits.PS2 = 1;
  1175     08EC  1501               	bsf	1,2	;volatile
  1176     08ED                     l2126:
  1177                           
  1178                           ;PostLabC02.c: 155:     OPTION_REGbits.PS1 = 1;
  1179     08ED  1481               	bsf	1,1	;volatile
  1180     08EE                     l2128:
  1181                           
  1182                           ;PostLabC02.c: 156:     OPTION_REGbits.PS0 = 1;
  1183     08EE  1401               	bsf	1,0	;volatile
  1184     08EF                     l2130:
  1185                           
  1186                           ;PostLabC02.c: 157:     TMR0 = 98;
  1187     08EF  3062               	movlw	98
  1188     08F0  1283               	bcf	3,5	;RP0=0, select bank0
  1189     08F1  1303               	bcf	3,6	;RP1=0, select bank0
  1190     08F2  0081               	movwf	1	;volatile
  1191     08F3                     l2132:
  1192                           
  1193                           ;PostLabC02.c: 160:     PIR1bits.ADIF = 0;
  1194     08F3  130C               	bcf	12,6	;volatile
  1195     08F4                     l2134:
  1196                           
  1197                           ;PostLabC02.c: 161:     INTCONbits.PEIE = 1;
  1198     08F4  170B               	bsf	11,6	;volatile
  1199     08F5                     l2136:
  1200                           
  1201                           ;PostLabC02.c: 162:     PIE1bits.ADIE = 1;
  1202     08F5  1683               	bsf	3,5	;RP0=1, select bank1
  1203     08F6  1303               	bcf	3,6	;RP1=0, select bank1
  1204     08F7  170C               	bsf	12,6	;volatile
  1205     08F8                     l2138:
  1206                           
  1207                           ;PostLabC02.c: 163:     INTCONbits.GIE = 1;
  1208     08F8  178B               	bsf	11,7	;volatile
  1209     08F9                     l2140:
  1210                           
  1211                           ;PostLabC02.c: 164:     ADCON0bits.GO = 1;
  1212     08F9  1283               	bcf	3,5	;RP0=0, select bank0
  1213     08FA  1303               	bcf	3,6	;RP1=0, select bank0
  1214     08FB  149F               	bsf	31,1	;volatile
  1215     08FC                     l2142:
  1216                           
  1217                           ;PostLabC02.c: 167:     ADCON0bits.CHS = 0b0000;
  1218     08FC  30C3               	movlw	-61
  1219     08FD  059F               	andwf	31,f	;volatile
  1220     08FE                     l2144:
  1221                           
  1222                           ;PostLabC02.c: 168:     ADCON1bits.VCFG0 = 0;
  1223     08FE  1683               	bsf	3,5	;RP0=1, select bank1
  1224     08FF  1303               	bcf	3,6	;RP1=0, select bank1
  1225     0900  121F               	bcf	31,4	;volatile
  1226     0901                     l2146:
  1227                           
  1228                           ;PostLabC02.c: 169:     ADCON1bits.VCFG1 = 0;
  1229     0901  129F               	bcf	31,5	;volatile
  1230     0902                     l2148:
  1231                           
  1232                           ;PostLabC02.c: 170:     ADCON0bits.ADCS = 0b10;
  1233     0902  1283               	bcf	3,5	;RP0=0, select bank0
  1234     0903  1303               	bcf	3,6	;RP1=0, select bank0
  1235     0904  081F               	movf	31,w	;volatile
  1236     0905  393F               	andlw	-193
  1237     0906  3880               	iorlw	128
  1238     0907  009F               	movwf	31	;volatile
  1239     0908                     l2150:
  1240                           
  1241                           ;PostLabC02.c: 172:     ADCON1bits.ADFM = 0;
  1242     0908  1683               	bsf	3,5	;RP0=1, select bank1
  1243     0909  1303               	bcf	3,6	;RP1=0, select bank1
  1244     090A  139F               	bcf	31,7	;volatile
  1245     090B                     l2152:
  1246                           
  1247                           ;PostLabC02.c: 173:     ADCON0bits.ADON = 1;
  1248     090B  1283               	bcf	3,5	;RP0=0, select bank0
  1249     090C  1303               	bcf	3,6	;RP1=0, select bank0
  1250     090D  141F               	bsf	31,0	;volatile
  1251     090E                     l2154:
  1252                           
  1253                           ;PostLabC02.c: 174:      _delay((unsigned long)((1)*(4000000/4000.0)));
  1254     090E  30C7               	movlw	199
  1255     090F  1683               	bsf	3,5	;RP0=1, select bank3
  1256     0910  1703               	bsf	3,6	;RP1=1, select bank3
  1257     0911  009A               	movwf	??_setup^(0+384)
  1258     0912                     u4197:
  1259     0912  2913               	nop2
  1260     0913  0B9A               	decfsz	??_setup^(0+384),f
  1261     0914  2912               	goto	u4197
  1262     0915  2916               	nop2
  1263     0916                     l2156:
  1264                           
  1265                           ;PostLabC02.c: 177:     PWM_config(1, 0.004f);
  1266     0916  303B               	movlw	59
  1267     0917  1683               	bsf	3,5	;RP0=1, select bank1
  1268     0918  1303               	bcf	3,6	;RP1=0, select bank1
  1269     0919  00EF               	movwf	(PWM_config@periodo_ms+3)^(0+128)
  1270     091A  3083               	movlw	131
  1271     091B  00EE               	movwf	(PWM_config@periodo_ms+2)^(0+128)
  1272     091C  3012               	movlw	18
  1273     091D  00ED               	movwf	(PWM_config@periodo_ms+1)^(0+128)
  1274     091E  306F               	movlw	111
  1275     091F  00EC               	movwf	PWM_config@periodo_ms^(0+128)
  1276     0920  3001               	movlw	1
  1277     0921  160A  118A  269F  120A  158A  	fcall	_PWM_config
  1278     0926                     l2158:
  1279                           
  1280                           ;PostLabC02.c: 178:     PWM_config(2, 0.004f);
  1281     0926  303B               	movlw	59
  1282     0927  1683               	bsf	3,5	;RP0=1, select bank1
  1283     0928  1303               	bcf	3,6	;RP1=0, select bank1
  1284     0929  00EF               	movwf	(PWM_config@periodo_ms+3)^(0+128)
  1285     092A  3083               	movlw	131
  1286     092B  00EE               	movwf	(PWM_config@periodo_ms+2)^(0+128)
  1287     092C  3012               	movlw	18
  1288     092D  00ED               	movwf	(PWM_config@periodo_ms+1)^(0+128)
  1289     092E  306F               	movlw	111
  1290     092F  00EC               	movwf	PWM_config@periodo_ms^(0+128)
  1291     0930  3002               	movlw	2
  1292     0931  160A  118A  269F  120A  158A  	fcall	_PWM_config
  1293     0936                     l2160:
  1294                           
  1295                           ;PostLabC02.c: 179:     PWM_duty(1, 0.0025f);
  1296     0936  303B               	movlw	59
  1297     0937  1683               	bsf	3,5	;RP0=1, select bank1
  1298     0938  1303               	bcf	3,6	;RP1=0, select bank1
  1299     0939  00EF               	movwf	(PWM_duty@duty+3)^(0+128)
  1300     093A  3023               	movlw	35
  1301     093B  00EE               	movwf	(PWM_duty@duty+2)^(0+128)
  1302     093C  30D7               	movlw	215
  1303     093D  00ED               	movwf	(PWM_duty@duty+1)^(0+128)
  1304     093E  300A               	movlw	10
  1305     093F  00EC               	movwf	PWM_duty@duty^(0+128)
  1306     0940  3001               	movlw	1
  1307     0941  120A  158A  2157  120A  158A  	fcall	_PWM_duty
  1308     0946                     l2162:
  1309                           
  1310                           ;PostLabC02.c: 180:     PWM_duty(2, 0.0025f);
  1311     0946  303B               	movlw	59
  1312     0947  1683               	bsf	3,5	;RP0=1, select bank1
  1313     0948  1303               	bcf	3,6	;RP1=0, select bank1
  1314     0949  00EF               	movwf	(PWM_duty@duty+3)^(0+128)
  1315     094A  3023               	movlw	35
  1316     094B  00EE               	movwf	(PWM_duty@duty+2)^(0+128)
  1317     094C  30D7               	movlw	215
  1318     094D  00ED               	movwf	(PWM_duty@duty+1)^(0+128)
  1319     094E  300A               	movlw	10
  1320     094F  00EC               	movwf	PWM_duty@duty^(0+128)
  1321     0950  3002               	movlw	2
  1322     0951  120A  158A  2157  120A  158A  	fcall	_PWM_duty
  1323     0956                     l129:
  1324     0956  0008               	return
  1325     0957                     __end_of_setup:
  1326                           
  1327                           	psect	text2
  1328     0957                     __ptext2:	
  1329 ;; *************** function _PWM_duty *****************
  1330 ;; Defined at:
  1331 ;;		line 34 in file "PWM_SERVO.c"
  1332 ;; Parameters:    Size  Location     Type
  1333 ;;  canal           1    wreg     unsigned char 
  1334 ;;  duty            4   76[BANK1 ] float 
  1335 ;; Auto vars:     Size  Location     Type
  1336 ;;  canal           1    2[BANK3 ] unsigned char 
  1337 ;;  particion       1    3[BANK3 ] unsigned char 
  1338 ;; Return value:  Size  Location     Type
  1339 ;;                  1    wreg      void 
  1340 ;; Registers used:
  1341 ;;		wreg, status,2, status,0, btemp+1, pclath, cstack
  1342 ;; Tracked objects:
  1343 ;;		On entry : 0/0
  1344 ;;		On exit  : 0/0
  1345 ;;		Unchanged: 0/0
  1346 ;; Data sizes:     COMMON   BANK0   BANK1   BANK3   BANK2
  1347 ;;      Params:         0       0       4       0       0
  1348 ;;      Locals:         0       0       0       2       0
  1349 ;;      Temps:          0       0       0       2       0
  1350 ;;      Totals:         0       0       4       4       0
  1351 ;;Total ram usage:        8 bytes
  1352 ;; Hardware stack levels used: 1
  1353 ;; Hardware stack levels required when called: 4
  1354 ;; This function calls:
  1355 ;;		___fldiv
  1356 ;;		___fltol
  1357 ;; This function is called by:
  1358 ;;		_setup
  1359 ;; This function uses a non-reentrant model
  1360 ;;
  1361                           
  1362     0957                     _PWM_duty:	
  1363                           ;psect for function _PWM_duty
  1364                           
  1365                           
  1366                           ;incstack = 0
  1367                           ; Regs used in _PWM_duty: [wreg+status,2+status,0+btemp+1+pclath+cstack]
  1368                           ;PWM_duty@canal stored from wreg
  1369     0957  1683               	bsf	3,5	;RP0=1, select bank3
  1370     0958  1703               	bsf	3,6	;RP1=1, select bank3
  1371     0959  0098               	movwf	PWM_duty@canal^(0+384)
  1372     095A                     l1886:
  1373                           
  1374                           ;PWM_SERVO.c: 35:     char particion = (char)(duty/((1.0f/4000000)*16));
  1375     095A  1683               	bsf	3,5	;RP0=1, select bank1
  1376     095B  1303               	bcf	3,6	;RP1=0, select bank1
  1377     095C  086F               	movf	(PWM_duty@duty+3)^(0+128),w
  1378     095D  00CF               	movwf	(___fldiv@b+3)^(0+128)
  1379     095E  086E               	movf	(PWM_duty@duty+2)^(0+128),w
  1380     095F  00CE               	movwf	(___fldiv@b+2)^(0+128)
  1381     0960  086D               	movf	(PWM_duty@duty+1)^(0+128),w
  1382     0961  00CD               	movwf	(___fldiv@b+1)^(0+128)
  1383     0962  086C               	movf	PWM_duty@duty^(0+128),w
  1384     0963  00CC               	movwf	___fldiv@b^(0+128)
  1385     0964  3036               	movlw	54
  1386     0965  00CB               	movwf	(___fldiv@a+3)^(0+128)
  1387     0966  3086               	movlw	134
  1388     0967  00CA               	movwf	(___fldiv@a+2)^(0+128)
  1389     0968  3037               	movlw	55
  1390     0969  00C9               	movwf	(___fldiv@a+1)^(0+128)
  1391     096A  30BD               	movlw	189
  1392     096B  00C8               	movwf	___fldiv@a^(0+128)
  1393     096C  120A  158A  262D  120A  158A  	fcall	___fldiv
  1394     0971  1683               	bsf	3,5	;RP0=1, select bank1
  1395     0972  1303               	bcf	3,6	;RP1=0, select bank1
  1396     0973  084B               	movf	(?___fldiv+3)^(0+128),w
  1397     0974  00E5               	movwf	(___fltol@f1+3)^(0+128)
  1398     0975  084A               	movf	(?___fldiv+2)^(0+128),w
  1399     0976  00E4               	movwf	(___fltol@f1+2)^(0+128)
  1400     0977  0849               	movf	(?___fldiv+1)^(0+128),w
  1401     0978  00E3               	movwf	(___fltol@f1+1)^(0+128)
  1402     0979  0848               	movf	?___fldiv^(0+128),w
  1403     097A  00E2               	movwf	___fltol@f1^(0+128)
  1404     097B  120A  158A  2058  120A  158A  	fcall	___fltol
  1405     0980  1683               	bsf	3,5	;RP0=1, select bank1
  1406     0981  1303               	bcf	3,6	;RP1=0, select bank1
  1407     0982  0862               	movf	?___fltol^(0+128),w
  1408     0983  1683               	bsf	3,5	;RP0=1, select bank3
  1409     0984  1703               	bsf	3,6	;RP1=1, select bank3
  1410     0985  0099               	movwf	PWM_duty@particion^(0+384)
  1411     0986                     l1888:
  1412                           
  1413                           ;PWM_SERVO.c: 36:     if (canal == 1){
  1414     0986  0318               	decf	PWM_duty@canal^(0+384),w
  1415     0987  1D03               	btfss	3,2
  1416     0988  298A               	goto	u2531
  1417     0989  298B               	goto	u2530
  1418     098A                     u2531:
  1419     098A  29BE               	goto	l1892
  1420     098B                     u2530:
  1421     098B                     l1890:
  1422                           
  1423                           ;PWM_SERVO.c: 37:         CCPR1L = (particion >> 2);
  1424     098B  0819               	movf	PWM_duty@particion^(0+384),w
  1425     098C  0096               	movwf	??_PWM_duty^(0+384)
  1426     098D  3002               	movlw	2
  1427     098E                     u2545:
  1428     098E  1003               	clrc
  1429     098F  0C96               	rrf	??_PWM_duty^(0+384),f
  1430     0990  3EFF               	addlw	-1
  1431     0991  1D03               	skipz
  1432     0992  298E               	goto	u2545
  1433     0993  0816               	movf	??_PWM_duty^(0+384),w
  1434     0994  1283               	bcf	3,5	;RP0=0, select bank0
  1435     0995  1303               	bcf	3,6	;RP1=0, select bank0
  1436     0996  0095               	movwf	21	;volatile
  1437                           
  1438                           ;PWM_SERVO.c: 38:         CCP1CONbits.DC1B0 = (particion&(0b1));
  1439     0997  1683               	bsf	3,5	;RP0=1, select bank3
  1440     0998  1703               	bsf	3,6	;RP1=1, select bank3
  1441     0999  0819               	movf	PWM_duty@particion^(0+384),w
  1442     099A  3901               	andlw	1
  1443     099B  0096               	movwf	??_PWM_duty^(0+384)
  1444     099C  0E96               	swapf	??_PWM_duty^(0+384),f
  1445     099D  1283               	bcf	3,5	;RP0=0, select bank0
  1446     099E  1303               	bcf	3,6	;RP1=0, select bank0
  1447     099F  0817               	movf	23,w	;volatile
  1448     09A0  1683               	bsf	3,5	;RP0=1, select bank3
  1449     09A1  1703               	bsf	3,6	;RP1=1, select bank3
  1450     09A2  0616               	xorwf	??_PWM_duty^(0+384),w
  1451     09A3  39EF               	andlw	-17
  1452     09A4  0616               	xorwf	??_PWM_duty^(0+384),w
  1453     09A5  1283               	bcf	3,5	;RP0=0, select bank0
  1454     09A6  1303               	bcf	3,6	;RP1=0, select bank0
  1455     09A7  0097               	movwf	23	;volatile
  1456                           
  1457                           ;PWM_SERVO.c: 39:         CCP1CONbits.DC1B1 = ((particion>>1) &(0b1));
  1458     09A8  1683               	bsf	3,5	;RP0=1, select bank3
  1459     09A9  1703               	bsf	3,6	;RP1=1, select bank3
  1460     09AA  0819               	movf	PWM_duty@particion^(0+384),w
  1461     09AB  0096               	movwf	??_PWM_duty^(0+384)
  1462     09AC  1003               	clrc
  1463     09AD  0C16               	rrf	??_PWM_duty^(0+384),w
  1464     09AE  3901               	andlw	1
  1465     09AF  0097               	movwf	(??_PWM_duty+1)^(0+384)
  1466     09B0  0E97               	swapf	(??_PWM_duty+1)^(0+384),f
  1467     09B1  0D97               	rlf	(??_PWM_duty+1)^(0+384),f
  1468     09B2  1283               	bcf	3,5	;RP0=0, select bank0
  1469     09B3  1303               	bcf	3,6	;RP1=0, select bank0
  1470     09B4  0817               	movf	23,w	;volatile
  1471     09B5  1683               	bsf	3,5	;RP0=1, select bank3
  1472     09B6  1703               	bsf	3,6	;RP1=1, select bank3
  1473     09B7  0617               	xorwf	(??_PWM_duty+1)^(0+384),w
  1474     09B8  39DF               	andlw	-33
  1475     09B9  0617               	xorwf	(??_PWM_duty+1)^(0+384),w
  1476     09BA  1283               	bcf	3,5	;RP0=0, select bank0
  1477     09BB  1303               	bcf	3,6	;RP1=0, select bank0
  1478     09BC  0097               	movwf	23	;volatile
  1479                           
  1480                           ;PWM_SERVO.c: 40:     }
  1481     09BD  29F6               	goto	l33
  1482     09BE                     l1892:
  1483     09BE  3002               	movlw	2
  1484     09BF  0618               	xorwf	PWM_duty@canal^(0+384),w
  1485     09C0  1D03               	btfss	3,2
  1486     09C1  29C3               	goto	u2551
  1487     09C2  29C4               	goto	u2550
  1488     09C3                     u2551:
  1489     09C3  29F6               	goto	l33
  1490     09C4                     u2550:
  1491     09C4                     l1894:
  1492                           
  1493                           ;PWM_SERVO.c: 42:         CCPR2L = (particion >> 2);
  1494     09C4  0819               	movf	PWM_duty@particion^(0+384),w
  1495     09C5  0096               	movwf	??_PWM_duty^(0+384)
  1496     09C6  3002               	movlw	2
  1497     09C7                     u2565:
  1498     09C7  1003               	clrc
  1499     09C8  0C96               	rrf	??_PWM_duty^(0+384),f
  1500     09C9  3EFF               	addlw	-1
  1501     09CA  1D03               	skipz
  1502     09CB  29C7               	goto	u2565
  1503     09CC  0816               	movf	??_PWM_duty^(0+384),w
  1504     09CD  1283               	bcf	3,5	;RP0=0, select bank0
  1505     09CE  1303               	bcf	3,6	;RP1=0, select bank0
  1506     09CF  009B               	movwf	27	;volatile
  1507                           
  1508                           ;PWM_SERVO.c: 43:         CCP2CONbits.DC2B0 = (particion&(0b1));
  1509     09D0  1683               	bsf	3,5	;RP0=1, select bank3
  1510     09D1  1703               	bsf	3,6	;RP1=1, select bank3
  1511     09D2  0819               	movf	PWM_duty@particion^(0+384),w
  1512     09D3  3901               	andlw	1
  1513     09D4  0096               	movwf	??_PWM_duty^(0+384)
  1514     09D5  0E96               	swapf	??_PWM_duty^(0+384),f
  1515     09D6  1283               	bcf	3,5	;RP0=0, select bank0
  1516     09D7  1303               	bcf	3,6	;RP1=0, select bank0
  1517     09D8  081D               	movf	29,w	;volatile
  1518     09D9  1683               	bsf	3,5	;RP0=1, select bank3
  1519     09DA  1703               	bsf	3,6	;RP1=1, select bank3
  1520     09DB  0616               	xorwf	??_PWM_duty^(0+384),w
  1521     09DC  39EF               	andlw	-17
  1522     09DD  0616               	xorwf	??_PWM_duty^(0+384),w
  1523     09DE  1283               	bcf	3,5	;RP0=0, select bank0
  1524     09DF  1303               	bcf	3,6	;RP1=0, select bank0
  1525     09E0  009D               	movwf	29	;volatile
  1526                           
  1527                           ;PWM_SERVO.c: 44:         CCP2CONbits.DC2B1 = ((particion>>1) &(0b1));
  1528     09E1  1683               	bsf	3,5	;RP0=1, select bank3
  1529     09E2  1703               	bsf	3,6	;RP1=1, select bank3
  1530     09E3  0819               	movf	PWM_duty@particion^(0+384),w
  1531     09E4  0096               	movwf	??_PWM_duty^(0+384)
  1532     09E5  1003               	clrc
  1533     09E6  0C16               	rrf	??_PWM_duty^(0+384),w
  1534     09E7  3901               	andlw	1
  1535     09E8  0097               	movwf	(??_PWM_duty+1)^(0+384)
  1536     09E9  0E97               	swapf	(??_PWM_duty+1)^(0+384),f
  1537     09EA  0D97               	rlf	(??_PWM_duty+1)^(0+384),f
  1538     09EB  1283               	bcf	3,5	;RP0=0, select bank0
  1539     09EC  1303               	bcf	3,6	;RP1=0, select bank0
  1540     09ED  081D               	movf	29,w	;volatile
  1541     09EE  1683               	bsf	3,5	;RP0=1, select bank3
  1542     09EF  1703               	bsf	3,6	;RP1=1, select bank3
  1543     09F0  0617               	xorwf	(??_PWM_duty+1)^(0+384),w
  1544     09F1  39DF               	andlw	-33
  1545     09F2  0617               	xorwf	(??_PWM_duty+1)^(0+384),w
  1546     09F3  1283               	bcf	3,5	;RP0=0, select bank0
  1547     09F4  1303               	bcf	3,6	;RP1=0, select bank0
  1548     09F5  009D               	movwf	29	;volatile
  1549     09F6                     l33:
  1550     09F6  0008               	return
  1551     09F7                     __end_of_PWM_duty:
  1552                           
  1553                           	psect	text3
  1554     169F                     __ptext3:	
  1555 ;; *************** function _PWM_config *****************
  1556 ;; Defined at:
  1557 ;;		line 5 in file "PWM_SERVO.c"
  1558 ;; Parameters:    Size  Location     Type
  1559 ;;  canal           1    wreg     unsigned char 
  1560 ;;  periodo_ms      4   76[BANK1 ] float 
  1561 ;; Auto vars:     Size  Location     Type
  1562 ;;  canal           1    0[BANK3 ] unsigned char 
  1563 ;; Return value:  Size  Location     Type
  1564 ;;                  1    wreg      void 
  1565 ;; Registers used:
  1566 ;;		wreg, status,2, status,0, btemp+1, pclath, cstack
  1567 ;; Tracked objects:
  1568 ;;		On entry : 0/0
  1569 ;;		On exit  : 0/0
  1570 ;;		Unchanged: 0/0
  1571 ;; Data sizes:     COMMON   BANK0   BANK1   BANK3   BANK2
  1572 ;;      Params:         0       0       4       0       0
  1573 ;;      Locals:         0       0       0       1       0
  1574 ;;      Temps:          0       0       0       0       0
  1575 ;;      Totals:         0       0       4       1       0
  1576 ;;Total ram usage:        5 bytes
  1577 ;; Hardware stack levels used: 1
  1578 ;; Hardware stack levels required when called: 4
  1579 ;; This function calls:
  1580 ;;		___fldiv
  1581 ;;		___fltol
  1582 ;; This function is called by:
  1583 ;;		_setup
  1584 ;; This function uses a non-reentrant model
  1585 ;;
  1586                           
  1587     169F                     _PWM_config:	
  1588                           ;psect for function _PWM_config
  1589                           
  1590                           
  1591                           ;incstack = 0
  1592                           ; Regs used in _PWM_config: [wreg+status,2+status,0+btemp+1+pclath+cstack]
  1593                           ;PWM_config@canal stored from wreg
  1594     169F  1683               	bsf	3,5	;RP0=1, select bank3
  1595     16A0  1703               	bsf	3,6	;RP1=1, select bank3
  1596     16A1  0096               	movwf	PWM_config@canal^(0+384)
  1597     16A2                     l1850:
  1598                           
  1599                           ;PWM_SERVO.c: 6:     PR2 = (char) (periodo_ms/(4*(1.0f/4000000)*16));
  1600     16A2  1683               	bsf	3,5	;RP0=1, select bank1
  1601     16A3  1303               	bcf	3,6	;RP1=0, select bank1
  1602     16A4  086F               	movf	(PWM_config@periodo_ms+3)^(0+128),w
  1603     16A5  00CF               	movwf	(___fldiv@b+3)^(0+128)
  1604     16A6  086E               	movf	(PWM_config@periodo_ms+2)^(0+128),w
  1605     16A7  00CE               	movwf	(___fldiv@b+2)^(0+128)
  1606     16A8  086D               	movf	(PWM_config@periodo_ms+1)^(0+128),w
  1607     16A9  00CD               	movwf	(___fldiv@b+1)^(0+128)
  1608     16AA  086C               	movf	PWM_config@periodo_ms^(0+128),w
  1609     16AB  00CC               	movwf	___fldiv@b^(0+128)
  1610     16AC  3037               	movlw	55
  1611     16AD  00CB               	movwf	(___fldiv@a+3)^(0+128)
  1612     16AE  3086               	movlw	134
  1613     16AF  00CA               	movwf	(___fldiv@a+2)^(0+128)
  1614     16B0  3037               	movlw	55
  1615     16B1  00C9               	movwf	(___fldiv@a+1)^(0+128)
  1616     16B2  30BD               	movlw	189
  1617     16B3  00C8               	movwf	___fldiv@a^(0+128)
  1618     16B4  120A  158A  262D  160A  118A  	fcall	___fldiv
  1619     16B9  1683               	bsf	3,5	;RP0=1, select bank1
  1620     16BA  1303               	bcf	3,6	;RP1=0, select bank1
  1621     16BB  084B               	movf	(?___fldiv+3)^(0+128),w
  1622     16BC  00E5               	movwf	(___fltol@f1+3)^(0+128)
  1623     16BD  084A               	movf	(?___fldiv+2)^(0+128),w
  1624     16BE  00E4               	movwf	(___fltol@f1+2)^(0+128)
  1625     16BF  0849               	movf	(?___fldiv+1)^(0+128),w
  1626     16C0  00E3               	movwf	(___fltol@f1+1)^(0+128)
  1627     16C1  0848               	movf	?___fldiv^(0+128),w
  1628     16C2  00E2               	movwf	___fltol@f1^(0+128)
  1629     16C3  120A  158A  2058  160A  118A  	fcall	___fltol
  1630     16C8  1683               	bsf	3,5	;RP0=1, select bank1
  1631     16C9  1303               	bcf	3,6	;RP1=0, select bank1
  1632     16CA  0862               	movf	?___fltol^(0+128),w
  1633     16CB  0092               	movwf	18	;volatile
  1634     16CC                     l1852:
  1635                           
  1636                           ;PWM_SERVO.c: 7:     if (canal == 1){
  1637     16CC  1683               	bsf	3,5	;RP0=1, select bank3
  1638     16CD  1703               	bsf	3,6	;RP1=1, select bank3
  1639     16CE  0316               	decf	PWM_config@canal^(0+384),w
  1640     16CF  1D03               	btfss	3,2
  1641     16D0  2ED2               	goto	u2491
  1642     16D1  2ED3               	goto	u2490
  1643     16D2                     u2491:
  1644     16D2  2EE3               	goto	l1864
  1645     16D3                     u2490:
  1646     16D3                     l1854:
  1647                           
  1648                           ;PWM_SERVO.c: 8:         TRISCbits.TRISC1 = 1;
  1649     16D3  1683               	bsf	3,5	;RP0=1, select bank1
  1650     16D4  1303               	bcf	3,6	;RP1=0, select bank1
  1651     16D5  1487               	bsf	7,1	;volatile
  1652     16D6                     l1856:
  1653                           
  1654                           ;PWM_SERVO.c: 9:         CCP1CONbits.P1M = 0;
  1655     16D6  303F               	movlw	-193
  1656     16D7  1283               	bcf	3,5	;RP0=0, select bank0
  1657     16D8  1303               	bcf	3,6	;RP1=0, select bank0
  1658     16D9  0597               	andwf	23,f	;volatile
  1659                           
  1660                           ;PWM_SERVO.c: 10:         CCP1CONbits.CCP1M = 0b1100;
  1661     16DA  0817               	movf	23,w	;volatile
  1662     16DB  39F0               	andlw	-16
  1663     16DC  380C               	iorlw	12
  1664     16DD  0097               	movwf	23	;volatile
  1665     16DE                     l1858:
  1666                           
  1667                           ;PWM_SERVO.c: 11:         CCPR1L = 0x0f;
  1668     16DE  300F               	movlw	15
  1669     16DF  0095               	movwf	21	;volatile
  1670     16E0                     l1860:
  1671                           
  1672                           ;PWM_SERVO.c: 12:         CCP1CONbits.DC1B0 = 0;
  1673     16E0  1217               	bcf	23,4	;volatile
  1674     16E1                     l1862:
  1675                           
  1676                           ;PWM_SERVO.c: 13:         CCP1CONbits.DC1B1 = 0;
  1677     16E1  1297               	bcf	23,5	;volatile
  1678                           
  1679                           ;PWM_SERVO.c: 14:     }
  1680     16E2  2EF6               	goto	l1876
  1681     16E3                     l1864:
  1682     16E3  3002               	movlw	2
  1683     16E4  0616               	xorwf	PWM_config@canal^(0+384),w
  1684     16E5  1D03               	btfss	3,2
  1685     16E6  2EE8               	goto	u2501
  1686     16E7  2EE9               	goto	u2500
  1687     16E8                     u2501:
  1688     16E8  2EF6               	goto	l1876
  1689     16E9                     u2500:
  1690     16E9                     l1866:
  1691                           
  1692                           ;PWM_SERVO.c: 16:         TRISCbits.TRISC2 = 1;
  1693     16E9  1683               	bsf	3,5	;RP0=1, select bank1
  1694     16EA  1303               	bcf	3,6	;RP1=0, select bank1
  1695     16EB  1507               	bsf	7,2	;volatile
  1696     16EC                     l1868:
  1697                           
  1698                           ;PWM_SERVO.c: 18:         CCP2CONbits.CCP2M = 0b1100;
  1699     16EC  1283               	bcf	3,5	;RP0=0, select bank0
  1700     16ED  1303               	bcf	3,6	;RP1=0, select bank0
  1701     16EE  081D               	movf	29,w	;volatile
  1702     16EF  39F0               	andlw	-16
  1703     16F0  380C               	iorlw	12
  1704     16F1  009D               	movwf	29	;volatile
  1705     16F2                     l1870:
  1706                           
  1707                           ;PWM_SERVO.c: 19:         CCPR2L = 0x0f;
  1708     16F2  300F               	movlw	15
  1709     16F3  009B               	movwf	27	;volatile
  1710     16F4                     l1872:
  1711                           
  1712                           ;PWM_SERVO.c: 20:         CCP2CONbits.DC2B0 = 0;
  1713     16F4  121D               	bcf	29,4	;volatile
  1714     16F5                     l1874:
  1715                           
  1716                           ;PWM_SERVO.c: 21:         CCP2CONbits.DC2B1 = 0;
  1717     16F5  129D               	bcf	29,5	;volatile
  1718     16F6                     l1876:
  1719                           
  1720                           ;PWM_SERVO.c: 23:     PIR1bits.TMR2IF = 0;
  1721     16F6  1283               	bcf	3,5	;RP0=0, select bank0
  1722     16F7  1303               	bcf	3,6	;RP1=0, select bank0
  1723     16F8  108C               	bcf	12,1	;volatile
  1724     16F9                     l1878:
  1725                           
  1726                           ;PWM_SERVO.c: 24:     T2CONbits.T2CKPS = 0b11;
  1727     16F9  3003               	movlw	3
  1728     16FA  0492               	iorwf	18,f	;volatile
  1729     16FB                     l1880:
  1730                           
  1731                           ;PWM_SERVO.c: 25:     T2CONbits.TMR2ON = 1;
  1732     16FB  1512               	bsf	18,2	;volatile
  1733     16FC                     l22:	
  1734                           ;PWM_SERVO.c: 26:     while(PIR1bits.TMR2IF == 0);
  1735                           
  1736     16FC  1C8C               	btfss	12,1	;volatile
  1737     16FD  2EFF               	goto	u2511
  1738     16FE  2F00               	goto	u2510
  1739     16FF                     u2511:
  1740     16FF  2EFC               	goto	l22
  1741     1700                     u2510:
  1742     1700                     l24:
  1743                           
  1744                           ;PWM_SERVO.c: 27:     PIR1bits.TMR2IF = 0;
  1745     1700  108C               	bcf	12,1	;volatile
  1746     1701                     l1882:
  1747                           
  1748                           ;PWM_SERVO.c: 28:     if (canal == 1)
  1749     1701  1683               	bsf	3,5	;RP0=1, select bank3
  1750     1702  1703               	bsf	3,6	;RP1=1, select bank3
  1751     1703  0316               	decf	PWM_config@canal^(0+384),w
  1752     1704  1D03               	btfss	3,2
  1753     1705  2F07               	goto	u2521
  1754     1706  2F08               	goto	u2520
  1755     1707                     u2521:
  1756     1707  2F0C               	goto	l25
  1757     1708                     u2520:
  1758     1708                     l1884:
  1759                           
  1760                           ;PWM_SERVO.c: 29:         TRISCbits.TRISC1 = 0;
  1761     1708  1683               	bsf	3,5	;RP0=1, select bank1
  1762     1709  1303               	bcf	3,6	;RP1=0, select bank1
  1763     170A  1087               	bcf	7,1	;volatile
  1764     170B  2F0F               	goto	l27
  1765     170C                     l25:	
  1766                           ;PWM_SERVO.c: 30:     else
  1767                           
  1768                           
  1769                           ;PWM_SERVO.c: 31:         TRISCbits.TRISC2 = 0;
  1770     170C  1683               	bsf	3,5	;RP0=1, select bank1
  1771     170D  1303               	bcf	3,6	;RP1=0, select bank1
  1772     170E  1107               	bcf	7,2	;volatile
  1773     170F                     l27:
  1774     170F  0008               	return
  1775     1710                     __end_of_PWM_config:
  1776                           
  1777                           	psect	text4
  1778     0858                     __ptext4:	
  1779 ;; *************** function ___fltol *****************
  1780 ;; Defined at:
  1781 ;;		line 43 in file "C:\Program Files\Microchip\xc8\v2.40\pic\sources\c90\common\fltol.c"
  1782 ;; Parameters:    Size  Location     Type
  1783 ;;  f1              4   66[BANK1 ] void 
  1784 ;; Auto vars:     Size  Location     Type
  1785 ;;  exp1            1   75[BANK1 ] unsigned char 
  1786 ;;  sign1           1   74[BANK1 ] unsigned char 
  1787 ;; Return value:  Size  Location     Type
  1788 ;;                  4   66[BANK1 ] long 
  1789 ;; Registers used:
  1790 ;;		wreg, status,2, status,0
  1791 ;; Tracked objects:
  1792 ;;		On entry : 0/0
  1793 ;;		On exit  : 0/0
  1794 ;;		Unchanged: 0/0
  1795 ;; Data sizes:     COMMON   BANK0   BANK1   BANK3   BANK2
  1796 ;;      Params:         0       0       4       0       0
  1797 ;;      Locals:         0       0       2       0       0
  1798 ;;      Temps:          0       0       4       0       0
  1799 ;;      Totals:         0       0      10       0       0
  1800 ;;Total ram usage:       10 bytes
  1801 ;; Hardware stack levels used: 1
  1802 ;; Hardware stack levels required when called: 3
  1803 ;; This function calls:
  1804 ;;		Nothing
  1805 ;; This function is called by:
  1806 ;;		_PWM_config
  1807 ;;		_PWM_duty
  1808 ;;		_main
  1809 ;;		_Duty_Pot
  1810 ;; This function uses a non-reentrant model
  1811 ;;
  1812                           
  1813     0858                     ___fltol:	
  1814                           ;psect for function ___fltol
  1815                           
  1816     0858                     l1672:	
  1817                           ;incstack = 0
  1818                           ; Regs used in ___fltol: [wreg+status,2+status,0]
  1819                           
  1820     0858  1003               	clrc
  1821     0859  1683               	bsf	3,5	;RP0=1, select bank1
  1822     085A  1303               	bcf	3,6	;RP1=0, select bank1
  1823     085B  0D64               	rlf	(___fltol@f1+2)^(0+128),w
  1824     085C  0D65               	rlf	(___fltol@f1+3)^(0+128),w
  1825     085D  00EB               	movwf	___fltol@exp1^(0+128)
  1826     085E  086B               	movf	___fltol@exp1^(0+128),w
  1827     085F  1D03               	btfss	3,2
  1828     0860  2862               	goto	u2101
  1829     0861  2863               	goto	u2100
  1830     0862                     u2101:
  1831     0862  286C               	goto	l1678
  1832     0863                     u2100:
  1833     0863                     l1674:
  1834     0863  3000               	movlw	0
  1835     0864  00E5               	movwf	(?___fltol+3)^(0+128)
  1836     0865  3000               	movlw	0
  1837     0866  00E4               	movwf	(?___fltol+2)^(0+128)
  1838     0867  3000               	movlw	0
  1839     0868  00E3               	movwf	(?___fltol+1)^(0+128)
  1840     0869  3000               	movlw	0
  1841     086A  00E2               	movwf	?___fltol^(0+128)
  1842     086B  28CF               	goto	l412
  1843     086C                     l1678:
  1844     086C  0862               	movf	___fltol@f1^(0+128),w
  1845     086D  00E6               	movwf	??___fltol^(0+128)
  1846     086E  0863               	movf	(___fltol@f1+1)^(0+128),w
  1847     086F  00E7               	movwf	(??___fltol^(0+128)+1)
  1848     0870  0864               	movf	(___fltol@f1+2)^(0+128),w
  1849     0871  00E8               	movwf	(??___fltol^(0+128)+2)
  1850     0872  0865               	movf	(___fltol@f1+3)^(0+128),w
  1851     0873  00E9               	movwf	(??___fltol^(0+128)+3)
  1852     0874  301F               	movlw	31
  1853     0875                     u2115:
  1854     0875  1003               	clrc
  1855     0876  0CE9               	rrf	(??___fltol^(0+128)+3),f
  1856     0877  0CE8               	rrf	(??___fltol^(0+128)+2),f
  1857     0878  0CE7               	rrf	(??___fltol^(0+128)+1),f
  1858     0879  0CE6               	rrf	??___fltol^(0+128),f
  1859     087A                     u2110:
  1860     087A  3EFF               	addlw	-1
  1861     087B  1D03               	skipz
  1862     087C  2875               	goto	u2115
  1863     087D  0866               	movf	??___fltol^(0+128),w
  1864     087E  00EA               	movwf	___fltol@sign1^(0+128)
  1865     087F                     l1680:
  1866     087F  17E4               	bsf	(___fltol@f1^(0+128)+2),7
  1867     0880                     l1682:
  1868     0880  30FF               	movlw	255
  1869     0881  05E2               	andwf	___fltol@f1^(0+128),f
  1870     0882  30FF               	movlw	255
  1871     0883  05E3               	andwf	(___fltol@f1+1)^(0+128),f
  1872     0884  30FF               	movlw	255
  1873     0885  05E4               	andwf	(___fltol@f1+2)^(0+128),f
  1874     0886  3000               	movlw	0
  1875     0887  05E5               	andwf	(___fltol@f1+3)^(0+128),f
  1876     0888                     l1684:
  1877     0888  3096               	movlw	150
  1878     0889  02EB               	subwf	___fltol@exp1^(0+128),f
  1879     088A                     l1686:
  1880     088A  1FEB               	btfss	___fltol@exp1^(0+128),7
  1881     088B  288D               	goto	u2121
  1882     088C  288E               	goto	u2120
  1883     088D                     u2121:
  1884     088D  28A8               	goto	l1696
  1885     088E                     u2120:
  1886     088E                     l1688:
  1887     088E  086B               	movf	___fltol@exp1^(0+128),w
  1888     088F  3A80               	xorlw	128
  1889     0890  3E97               	addlw	151
  1890     0891  1803               	skipnc
  1891     0892  2894               	goto	u2131
  1892     0893  2895               	goto	u2130
  1893     0894                     u2131:
  1894     0894  2896               	goto	l1694
  1895     0895                     u2130:
  1896     0895  2863               	goto	l1674
  1897     0896                     l1694:
  1898     0896  3001               	movlw	1
  1899     0897                     u2145:
  1900     0897  1003               	clrc
  1901     0898  0CE5               	rrf	(___fltol@f1+3)^(0+128),f
  1902     0899  0CE4               	rrf	(___fltol@f1+2)^(0+128),f
  1903     089A  0CE3               	rrf	(___fltol@f1+1)^(0+128),f
  1904     089B  0CE2               	rrf	___fltol@f1^(0+128),f
  1905     089C  3EFF               	addlw	-1
  1906     089D  1D03               	skipz
  1907     089E  2897               	goto	u2145
  1908     089F  3001               	movlw	1
  1909     08A0  00E6               	movwf	??___fltol^(0+128)
  1910     08A1  0866               	movf	??___fltol^(0+128),w
  1911     08A2  07EB               	addwf	___fltol@exp1^(0+128),f
  1912     08A3  1D03               	btfss	3,2
  1913     08A4  28A6               	goto	u2151
  1914     08A5  28A7               	goto	u2150
  1915     08A6                     u2151:
  1916     08A6  2896               	goto	l1694
  1917     08A7                     u2150:
  1918     08A7  28BF               	goto	l1704
  1919     08A8                     l1696:
  1920     08A8  3020               	movlw	32
  1921     08A9  026B               	subwf	___fltol@exp1^(0+128),w
  1922     08AA  1C03               	skipc
  1923     08AB  28AD               	goto	u2161
  1924     08AC  28AE               	goto	u2160
  1925     08AD                     u2161:
  1926     08AD  28BA               	goto	l419
  1927     08AE                     u2160:
  1928     08AE  2863               	goto	l1674
  1929     08AF                     l1702:
  1930     08AF  3001               	movlw	1
  1931     08B0  00E6               	movwf	??___fltol^(0+128)
  1932     08B1                     u2175:
  1933     08B1  1003               	clrc
  1934     08B2  0DE2               	rlf	___fltol@f1^(0+128),f
  1935     08B3  0DE3               	rlf	(___fltol@f1+1)^(0+128),f
  1936     08B4  0DE4               	rlf	(___fltol@f1+2)^(0+128),f
  1937     08B5  0DE5               	rlf	(___fltol@f1+3)^(0+128),f
  1938     08B6  0BE6               	decfsz	??___fltol^(0+128),f
  1939     08B7  28B1               	goto	u2175
  1940     08B8  3001               	movlw	1
  1941     08B9  02EB               	subwf	___fltol@exp1^(0+128),f
  1942     08BA                     l419:
  1943     08BA  086B               	movf	___fltol@exp1^(0+128),w
  1944     08BB  1D03               	btfss	3,2
  1945     08BC  28BE               	goto	u2181
  1946     08BD  28BF               	goto	u2180
  1947     08BE                     u2181:
  1948     08BE  28AF               	goto	l1702
  1949     08BF                     u2180:
  1950     08BF                     l1704:
  1951     08BF  086A               	movf	___fltol@sign1^(0+128),w
  1952     08C0  1903               	btfsc	3,2
  1953     08C1  28C3               	goto	u2191
  1954     08C2  28C4               	goto	u2190
  1955     08C3                     u2191:
  1956     08C3  28CF               	goto	l422
  1957     08C4                     u2190:
  1958     08C4                     l1706:
  1959     08C4  09E2               	comf	___fltol@f1^(0+128),f
  1960     08C5  09E3               	comf	(___fltol@f1+1)^(0+128),f
  1961     08C6  09E4               	comf	(___fltol@f1+2)^(0+128),f
  1962     08C7  09E5               	comf	(___fltol@f1+3)^(0+128),f
  1963     08C8  0AE2               	incf	___fltol@f1^(0+128),f
  1964     08C9  1903               	skipnz
  1965     08CA  0AE3               	incf	(___fltol@f1+1)^(0+128),f
  1966     08CB  1903               	skipnz
  1967     08CC  0AE4               	incf	(___fltol@f1+2)^(0+128),f
  1968     08CD  1903               	skipnz
  1969     08CE  0AE5               	incf	(___fltol@f1+3)^(0+128),f
  1970     08CF                     l422:
  1971     08CF                     l412:
  1972     08CF  0008               	return
  1973     08D0                     __end_of___fltol:
  1974                           
  1975                           	psect	text5
  1976     0E2D                     __ptext5:	
  1977 ;; *************** function ___fldiv *****************
  1978 ;; Defined at:
  1979 ;;		line 8 in file "C:\Program Files\Microchip\xc8\v2.40\pic\sources\c90\common\sprcdiv.c"
  1980 ;; Parameters:    Size  Location     Type
  1981 ;;  a               4   40[BANK1 ] long 
  1982 ;;  b               4   44[BANK1 ] long 
  1983 ;; Auto vars:     Size  Location     Type
  1984 ;;  grs             4   60[BANK1 ] unsigned long 
  1985 ;;  rem             4   53[BANK1 ] unsigned long 
  1986 ;;  new_exp         2   58[BANK1 ] int 
  1987 ;;  aexp            1   65[BANK1 ] unsigned char 
  1988 ;;  bexp            1   64[BANK1 ] unsigned char 
  1989 ;;  sign            1   57[BANK1 ] unsigned char 
  1990 ;; Return value:  Size  Location     Type
  1991 ;;                  4   40[BANK1 ] unsigned char 
  1992 ;; Registers used:
  1993 ;;		wreg, status,2, status,0, btemp+1
  1994 ;; Tracked objects:
  1995 ;;		On entry : 0/0
  1996 ;;		On exit  : 0/0
  1997 ;;		Unchanged: 0/0
  1998 ;; Data sizes:     COMMON   BANK0   BANK1   BANK3   BANK2
  1999 ;;      Params:         0       0       8       0       0
  2000 ;;      Locals:         0       0      13       0       0
  2001 ;;      Temps:          0       0       5       0       0
  2002 ;;      Totals:         0       0      26       0       0
  2003 ;;Total ram usage:       26 bytes
  2004 ;; Hardware stack levels used: 1
  2005 ;; Hardware stack levels required when called: 3
  2006 ;; This function calls:
  2007 ;;		Nothing
  2008 ;; This function is called by:
  2009 ;;		_PWM_config
  2010 ;;		_PWM_duty
  2011 ;;		_main
  2012 ;;		_Mapeo_Pot
  2013 ;; This function uses a non-reentrant model
  2014 ;;
  2015                           
  2016     0E2D                     ___fldiv:	
  2017                           ;psect for function ___fldiv
  2018                           
  2019     0E2D                     l1708:	
  2020                           ;incstack = 0
  2021                           ; Regs used in ___fldiv: [wreg+status,2+status,0+btemp+1]
  2022                           
  2023     0E2D  1683               	bsf	3,5	;RP0=1, select bank1
  2024     0E2E  1303               	bcf	3,6	;RP1=0, select bank1
  2025     0E2F  084F               	movf	(___fldiv@b^(0+128)+3),w
  2026     0E30  3980               	andlw	128
  2027     0E31  00D9               	movwf	___fldiv@sign^(0+128)
  2028     0E32                     l1710:
  2029     0E32  084F               	movf	(___fldiv@b^(0+128)+3),w
  2030     0E33  00D0               	movwf	??___fldiv^(0+128)
  2031     0E34  0750               	addwf	??___fldiv^(0+128),w
  2032     0E35  00E0               	movwf	___fldiv@bexp^(0+128)
  2033     0E36                     l1712:
  2034     0E36  1FCE               	btfss	(___fldiv@b^(0+128)+2),7
  2035     0E37  2E39               	goto	u2201
  2036     0E38  2E3A               	goto	u2200
  2037     0E39                     u2201:
  2038     0E39  2E3B               	goto	l1716
  2039     0E3A                     u2200:
  2040     0E3A                     l1714:
  2041     0E3A  1460               	bsf	___fldiv@bexp^(0+128),0
  2042     0E3B                     l1716:
  2043     0E3B  0860               	movf	___fldiv@bexp^(0+128),w
  2044     0E3C  1903               	btfsc	3,2
  2045     0E3D  2E3F               	goto	u2211
  2046     0E3E  2E40               	goto	u2210
  2047     0E3F                     u2211:
  2048     0E3F  2E50               	goto	l1726
  2049     0E40                     u2210:
  2050     0E40                     l1718:
  2051     0E40  0A60               	incf	___fldiv@bexp^(0+128),w
  2052     0E41  1D03               	btfss	3,2
  2053     0E42  2E44               	goto	u2221
  2054     0E43  2E45               	goto	u2220
  2055     0E44                     u2221:
  2056     0E44  2E4D               	goto	l1722
  2057     0E45                     u2220:
  2058     0E45                     l1720:
  2059     0E45  3000               	movlw	0
  2060     0E46  00CF               	movwf	(___fldiv@b+3)^(0+128)
  2061     0E47  3000               	movlw	0
  2062     0E48  00CE               	movwf	(___fldiv@b+2)^(0+128)
  2063     0E49  3000               	movlw	0
  2064     0E4A  00CD               	movwf	(___fldiv@b+1)^(0+128)
  2065     0E4B  3000               	movlw	0
  2066     0E4C  00CC               	movwf	___fldiv@b^(0+128)
  2067     0E4D                     l1722:
  2068     0E4D  17CE               	bsf	(___fldiv@b^(0+128)+2),7
  2069     0E4E                     l1724:
  2070     0E4E  01CF               	clrf	(___fldiv@b^(0+128)+3)
  2071     0E4F  2E58               	goto	l1728
  2072     0E50                     l1726:
  2073     0E50  3000               	movlw	0
  2074     0E51  00CF               	movwf	(___fldiv@b+3)^(0+128)
  2075     0E52  3000               	movlw	0
  2076     0E53  00CE               	movwf	(___fldiv@b+2)^(0+128)
  2077     0E54  3000               	movlw	0
  2078     0E55  00CD               	movwf	(___fldiv@b+1)^(0+128)
  2079     0E56  3000               	movlw	0
  2080     0E57  00CC               	movwf	___fldiv@b^(0+128)
  2081     0E58                     l1728:
  2082     0E58  084B               	movf	(___fldiv@a^(0+128)+3),w
  2083     0E59  3980               	andlw	128
  2084     0E5A  00D0               	movwf	??___fldiv^(0+128)
  2085     0E5B  0850               	movf	??___fldiv^(0+128),w
  2086     0E5C  06D9               	xorwf	___fldiv@sign^(0+128),f
  2087     0E5D                     l1730:
  2088     0E5D  084B               	movf	(___fldiv@a^(0+128)+3),w
  2089     0E5E  00D0               	movwf	??___fldiv^(0+128)
  2090     0E5F  0750               	addwf	??___fldiv^(0+128),w
  2091     0E60  00E1               	movwf	___fldiv@aexp^(0+128)
  2092     0E61                     l1732:
  2093     0E61  1FCA               	btfss	(___fldiv@a^(0+128)+2),7
  2094     0E62  2E64               	goto	u2231
  2095     0E63  2E65               	goto	u2230
  2096     0E64                     u2231:
  2097     0E64  2E66               	goto	l1736
  2098     0E65                     u2230:
  2099     0E65                     l1734:
  2100     0E65  1461               	bsf	___fldiv@aexp^(0+128),0
  2101     0E66                     l1736:
  2102     0E66  0861               	movf	___fldiv@aexp^(0+128),w
  2103     0E67  1903               	btfsc	3,2
  2104     0E68  2E6A               	goto	u2241
  2105     0E69  2E6B               	goto	u2240
  2106     0E6A                     u2241:
  2107     0E6A  2E7B               	goto	l1746
  2108     0E6B                     u2240:
  2109     0E6B                     l1738:
  2110     0E6B  0A61               	incf	___fldiv@aexp^(0+128),w
  2111     0E6C  1D03               	btfss	3,2
  2112     0E6D  2E6F               	goto	u2251
  2113     0E6E  2E70               	goto	u2250
  2114     0E6F                     u2251:
  2115     0E6F  2E78               	goto	l1742
  2116     0E70                     u2250:
  2117     0E70                     l1740:
  2118     0E70  3000               	movlw	0
  2119     0E71  00CB               	movwf	(___fldiv@a+3)^(0+128)
  2120     0E72  3000               	movlw	0
  2121     0E73  00CA               	movwf	(___fldiv@a+2)^(0+128)
  2122     0E74  3000               	movlw	0
  2123     0E75  00C9               	movwf	(___fldiv@a+1)^(0+128)
  2124     0E76  3000               	movlw	0
  2125     0E77  00C8               	movwf	___fldiv@a^(0+128)
  2126     0E78                     l1742:
  2127     0E78  17CA               	bsf	(___fldiv@a^(0+128)+2),7
  2128     0E79                     l1744:
  2129     0E79  01CB               	clrf	(___fldiv@a^(0+128)+3)
  2130     0E7A  2E83               	goto	l575
  2131     0E7B                     l1746:
  2132     0E7B  3000               	movlw	0
  2133     0E7C  00CB               	movwf	(___fldiv@a+3)^(0+128)
  2134     0E7D  3000               	movlw	0
  2135     0E7E  00CA               	movwf	(___fldiv@a+2)^(0+128)
  2136     0E7F  3000               	movlw	0
  2137     0E80  00C9               	movwf	(___fldiv@a+1)^(0+128)
  2138     0E81  3000               	movlw	0
  2139     0E82  00C8               	movwf	___fldiv@a^(0+128)
  2140     0E83                     l575:
  2141     0E83  084B               	movf	(___fldiv@a+3)^(0+128),w
  2142     0E84  044A               	iorwf	(___fldiv@a+2)^(0+128),w
  2143     0E85  0449               	iorwf	(___fldiv@a+1)^(0+128),w
  2144     0E86  0448               	iorwf	___fldiv@a^(0+128),w
  2145     0E87  1D03               	skipz
  2146     0E88  2E8A               	goto	u2261
  2147     0E89  2E8B               	goto	u2260
  2148     0E8A                     u2261:
  2149     0E8A  2EA4               	goto	l1756
  2150     0E8B                     u2260:
  2151     0E8B                     l1748:
  2152     0E8B  3000               	movlw	0
  2153     0E8C  00CF               	movwf	(___fldiv@b+3)^(0+128)
  2154     0E8D  3000               	movlw	0
  2155     0E8E  00CE               	movwf	(___fldiv@b+2)^(0+128)
  2156     0E8F  3000               	movlw	0
  2157     0E90  00CD               	movwf	(___fldiv@b+1)^(0+128)
  2158     0E91  3000               	movlw	0
  2159     0E92  00CC               	movwf	___fldiv@b^(0+128)
  2160     0E93  3080               	movlw	128
  2161     0E94  04CE               	iorwf	(___fldiv@b^(0+128)+2),f
  2162     0E95  307F               	movlw	127
  2163     0E96  04CF               	iorwf	((___fldiv@b+1)^(0+128)+2),f
  2164     0E97                     l1750:
  2165     0E97  0859               	movf	___fldiv@sign^(0+128),w
  2166     0E98  00D0               	movwf	??___fldiv^(0+128)
  2167     0E99  0850               	movf	??___fldiv^(0+128),w
  2168     0E9A  04CF               	iorwf	(___fldiv@b^(0+128)+3),f
  2169     0E9B                     l1752:
  2170     0E9B  084F               	movf	(___fldiv@b+3)^(0+128),w
  2171     0E9C  00CB               	movwf	(?___fldiv+3)^(0+128)
  2172     0E9D  084E               	movf	(___fldiv@b+2)^(0+128),w
  2173     0E9E  00CA               	movwf	(?___fldiv+2)^(0+128)
  2174     0E9F  084D               	movf	(___fldiv@b+1)^(0+128),w
  2175     0EA0  00C9               	movwf	(?___fldiv+1)^(0+128)
  2176     0EA1  084C               	movf	___fldiv@b^(0+128),w
  2177     0EA2  00C8               	movwf	?___fldiv^(0+128)
  2178     0EA3  2FFF               	goto	l577
  2179     0EA4                     l1756:
  2180     0EA4  0860               	movf	___fldiv@bexp^(0+128),w
  2181     0EA5  1D03               	btfss	3,2
  2182     0EA6  2EA8               	goto	u2271
  2183     0EA7  2EA9               	goto	u2270
  2184     0EA8                     u2271:
  2185     0EA8  2EB2               	goto	l1762
  2186     0EA9                     u2270:
  2187     0EA9                     l1758:
  2188     0EA9  3000               	movlw	0
  2189     0EAA  00CB               	movwf	(?___fldiv+3)^(0+128)
  2190     0EAB  3000               	movlw	0
  2191     0EAC  00CA               	movwf	(?___fldiv+2)^(0+128)
  2192     0EAD  3000               	movlw	0
  2193     0EAE  00C9               	movwf	(?___fldiv+1)^(0+128)
  2194     0EAF  3000               	movlw	0
  2195     0EB0  00C8               	movwf	?___fldiv^(0+128)
  2196     0EB1  2FFF               	goto	l577
  2197     0EB2                     l1762:
  2198     0EB2  0860               	movf	___fldiv@bexp^(0+128),w
  2199     0EB3  00D0               	movwf	??___fldiv^(0+128)
  2200     0EB4  01D1               	clrf	(??___fldiv^(0+128)+1)
  2201     0EB5  0851               	movf	(??___fldiv+1)^(0+128),w
  2202     0EB6  00D3               	movwf	((??___fldiv+2)^(0+128)+1)
  2203     0EB7  0861               	movf	___fldiv@aexp^(0+128),w
  2204     0EB8  0250               	subwf	??___fldiv^(0+128),w
  2205     0EB9  00D2               	movwf	(??___fldiv+2)^(0+128)
  2206     0EBA  1C03               	skipc
  2207     0EBB  03D3               	decf	((??___fldiv+2)^(0+128)+1),f
  2208     0EBC  0852               	movf	(??___fldiv+2)^(0+128),w
  2209     0EBD  3E7F               	addlw	127
  2210     0EBE  00DA               	movwf	___fldiv@new_exp^(0+128)
  2211     0EBF  0853               	movf	(??___fldiv+3)^(0+128),w
  2212     0EC0  1803               	skipnc
  2213     0EC1  3E01               	addlw	1
  2214     0EC2  3E00               	addlw	0
  2215     0EC3  00DB               	movwf	(___fldiv@new_exp+1)^(0+128)
  2216     0EC4                     l1764:
  2217     0EC4  084F               	movf	(___fldiv@b+3)^(0+128),w
  2218     0EC5  00D8               	movwf	(___fldiv@rem+3)^(0+128)
  2219     0EC6  084E               	movf	(___fldiv@b+2)^(0+128),w
  2220     0EC7  00D7               	movwf	(___fldiv@rem+2)^(0+128)
  2221     0EC8  084D               	movf	(___fldiv@b+1)^(0+128),w
  2222     0EC9  00D6               	movwf	(___fldiv@rem+1)^(0+128)
  2223     0ECA  084C               	movf	___fldiv@b^(0+128),w
  2224     0ECB  00D5               	movwf	___fldiv@rem^(0+128)
  2225     0ECC                     l1766:
  2226     0ECC  3000               	movlw	0
  2227     0ECD  00CF               	movwf	(___fldiv@b+3)^(0+128)
  2228     0ECE  3000               	movlw	0
  2229     0ECF  00CE               	movwf	(___fldiv@b+2)^(0+128)
  2230     0ED0  3000               	movlw	0
  2231     0ED1  00CD               	movwf	(___fldiv@b+1)^(0+128)
  2232     0ED2  3000               	movlw	0
  2233     0ED3  00CC               	movwf	___fldiv@b^(0+128)
  2234     0ED4                     l1768:
  2235     0ED4  3000               	movlw	0
  2236     0ED5  00DF               	movwf	(___fldiv@grs+3)^(0+128)
  2237     0ED6  3000               	movlw	0
  2238     0ED7  00DE               	movwf	(___fldiv@grs+2)^(0+128)
  2239     0ED8  3000               	movlw	0
  2240     0ED9  00DD               	movwf	(___fldiv@grs+1)^(0+128)
  2241     0EDA  3000               	movlw	0
  2242     0EDB  00DC               	movwf	___fldiv@grs^(0+128)
  2243     0EDC                     l1770:
  2244     0EDC  01E1               	clrf	___fldiv@aexp^(0+128)
  2245     0EDD  2F28               	goto	l1790
  2246     0EDE                     l1772:
  2247     0EDE  0861               	movf	___fldiv@aexp^(0+128),w
  2248     0EDF  1903               	btfsc	3,2
  2249     0EE0  2EE2               	goto	u2281
  2250     0EE1  2EE3               	goto	u2280
  2251     0EE2                     u2281:
  2252     0EE2  2F03               	goto	l1782
  2253     0EE3                     u2280:
  2254     0EE3                     l1774:
  2255     0EE3  3001               	movlw	1
  2256     0EE4  00D0               	movwf	??___fldiv^(0+128)
  2257     0EE5                     u2295:
  2258     0EE5  1003               	clrc
  2259     0EE6  0DD5               	rlf	___fldiv@rem^(0+128),f
  2260     0EE7  0DD6               	rlf	(___fldiv@rem+1)^(0+128),f
  2261     0EE8  0DD7               	rlf	(___fldiv@rem+2)^(0+128),f
  2262     0EE9  0DD8               	rlf	(___fldiv@rem+3)^(0+128),f
  2263     0EEA  0BD0               	decfsz	??___fldiv^(0+128),f
  2264     0EEB  2EE5               	goto	u2295
  2265     0EEC  3001               	movlw	1
  2266     0EED  00D0               	movwf	??___fldiv^(0+128)
  2267     0EEE                     u2305:
  2268     0EEE  1003               	clrc
  2269     0EEF  0DCC               	rlf	___fldiv@b^(0+128),f
  2270     0EF0  0DCD               	rlf	(___fldiv@b+1)^(0+128),f
  2271     0EF1  0DCE               	rlf	(___fldiv@b+2)^(0+128),f
  2272     0EF2  0DCF               	rlf	(___fldiv@b+3)^(0+128),f
  2273     0EF3  0BD0               	decfsz	??___fldiv^(0+128),f
  2274     0EF4  2EEE               	goto	u2305
  2275     0EF5                     l1776:
  2276     0EF5  1FDF               	btfss	(___fldiv@grs+3)^(0+128),7
  2277     0EF6  2EF8               	goto	u2311
  2278     0EF7  2EF9               	goto	u2310
  2279     0EF8                     u2311:
  2280     0EF8  2EFA               	goto	l1780
  2281     0EF9                     u2310:
  2282     0EF9                     l1778:
  2283     0EF9  144C               	bsf	___fldiv@b^(0+128),0
  2284     0EFA                     l1780:
  2285     0EFA  3001               	movlw	1
  2286     0EFB  00D0               	movwf	??___fldiv^(0+128)
  2287     0EFC                     u2325:
  2288     0EFC  1003               	clrc
  2289     0EFD  0DDC               	rlf	___fldiv@grs^(0+128),f
  2290     0EFE  0DDD               	rlf	(___fldiv@grs+1)^(0+128),f
  2291     0EFF  0DDE               	rlf	(___fldiv@grs+2)^(0+128),f
  2292     0F00  0DDF               	rlf	(___fldiv@grs+3)^(0+128),f
  2293     0F01  0BD0               	decfsz	??___fldiv^(0+128),f
  2294     0F02  2EFC               	goto	u2325
  2295     0F03                     l1782:
  2296     0F03  084B               	movf	(___fldiv@a+3)^(0+128),w
  2297     0F04  0258               	subwf	(___fldiv@rem+3)^(0+128),w
  2298     0F05  1D03               	skipz
  2299     0F06  2F11               	goto	u2335
  2300     0F07  084A               	movf	(___fldiv@a+2)^(0+128),w
  2301     0F08  0257               	subwf	(___fldiv@rem+2)^(0+128),w
  2302     0F09  1D03               	skipz
  2303     0F0A  2F11               	goto	u2335
  2304     0F0B  0849               	movf	(___fldiv@a+1)^(0+128),w
  2305     0F0C  0256               	subwf	(___fldiv@rem+1)^(0+128),w
  2306     0F0D  1D03               	skipz
  2307     0F0E  2F11               	goto	u2335
  2308     0F0F  0848               	movf	___fldiv@a^(0+128),w
  2309     0F10  0255               	subwf	___fldiv@rem^(0+128),w
  2310     0F11                     u2335:
  2311     0F11  1C03               	skipc
  2312     0F12  2F14               	goto	u2331
  2313     0F13  2F15               	goto	u2330
  2314     0F14                     u2331:
  2315     0F14  2F24               	goto	l1788
  2316     0F15                     u2330:
  2317     0F15                     l1784:
  2318     0F15  175F               	bsf	(___fldiv@grs^(0+128)+3),6
  2319     0F16                     l1786:
  2320     0F16  0848               	movf	___fldiv@a^(0+128),w
  2321     0F17  02D5               	subwf	___fldiv@rem^(0+128),f
  2322     0F18  0849               	movf	(___fldiv@a+1)^(0+128),w
  2323     0F19  1C03               	skipc
  2324     0F1A  0F49               	incfsz	(___fldiv@a+1)^(0+128),w
  2325     0F1B  02D6               	subwf	(___fldiv@rem+1)^(0+128),f
  2326     0F1C  084A               	movf	(___fldiv@a+2)^(0+128),w
  2327     0F1D  1C03               	skipc
  2328     0F1E  0F4A               	incfsz	(___fldiv@a+2)^(0+128),w
  2329     0F1F  02D7               	subwf	(___fldiv@rem+2)^(0+128),f
  2330     0F20  084B               	movf	(___fldiv@a+3)^(0+128),w
  2331     0F21  1C03               	skipc
  2332     0F22  0F4B               	incfsz	(___fldiv@a+3)^(0+128),w
  2333     0F23  02D8               	subwf	(___fldiv@rem+3)^(0+128),f
  2334     0F24                     l1788:
  2335     0F24  3001               	movlw	1
  2336     0F25  00D0               	movwf	??___fldiv^(0+128)
  2337     0F26  0850               	movf	??___fldiv^(0+128),w
  2338     0F27  07E1               	addwf	___fldiv@aexp^(0+128),f
  2339     0F28                     l1790:
  2340     0F28  301A               	movlw	26
  2341     0F29  0261               	subwf	___fldiv@aexp^(0+128),w
  2342     0F2A  1C03               	skipc
  2343     0F2B  2F2D               	goto	u2341
  2344     0F2C  2F2E               	goto	u2340
  2345     0F2D                     u2341:
  2346     0F2D  2EDE               	goto	l1772
  2347     0F2E                     u2340:
  2348     0F2E                     l1792:
  2349     0F2E  0858               	movf	(___fldiv@rem+3)^(0+128),w
  2350     0F2F  0457               	iorwf	(___fldiv@rem+2)^(0+128),w
  2351     0F30  0456               	iorwf	(___fldiv@rem+1)^(0+128),w
  2352     0F31  0455               	iorwf	___fldiv@rem^(0+128),w
  2353     0F32  1903               	skipnz
  2354     0F33  2F35               	goto	u2351
  2355     0F34  2F36               	goto	u2350
  2356     0F35                     u2351:
  2357     0F35  2F55               	goto	l1806
  2358     0F36                     u2350:
  2359     0F36                     l1794:
  2360     0F36  145C               	bsf	___fldiv@grs^(0+128),0
  2361     0F37  2F55               	goto	l1806
  2362     0F38                     l1796:
  2363     0F38  3001               	movlw	1
  2364     0F39  00D0               	movwf	??___fldiv^(0+128)
  2365     0F3A                     u2365:
  2366     0F3A  1003               	clrc
  2367     0F3B  0DCC               	rlf	___fldiv@b^(0+128),f
  2368     0F3C  0DCD               	rlf	(___fldiv@b+1)^(0+128),f
  2369     0F3D  0DCE               	rlf	(___fldiv@b+2)^(0+128),f
  2370     0F3E  0DCF               	rlf	(___fldiv@b+3)^(0+128),f
  2371     0F3F  0BD0               	decfsz	??___fldiv^(0+128),f
  2372     0F40  2F3A               	goto	u2365
  2373     0F41                     l1798:
  2374     0F41  1FDF               	btfss	(___fldiv@grs+3)^(0+128),7
  2375     0F42  2F44               	goto	u2371
  2376     0F43  2F45               	goto	u2370
  2377     0F44                     u2371:
  2378     0F44  2F46               	goto	l1802
  2379     0F45                     u2370:
  2380     0F45                     l1800:
  2381     0F45  144C               	bsf	___fldiv@b^(0+128),0
  2382     0F46                     l1802:
  2383     0F46  3001               	movlw	1
  2384     0F47  00D0               	movwf	??___fldiv^(0+128)
  2385     0F48                     u2385:
  2386     0F48  1003               	clrc
  2387     0F49  0DDC               	rlf	___fldiv@grs^(0+128),f
  2388     0F4A  0DDD               	rlf	(___fldiv@grs+1)^(0+128),f
  2389     0F4B  0DDE               	rlf	(___fldiv@grs+2)^(0+128),f
  2390     0F4C  0DDF               	rlf	(___fldiv@grs+3)^(0+128),f
  2391     0F4D  0BD0               	decfsz	??___fldiv^(0+128),f
  2392     0F4E  2F48               	goto	u2385
  2393     0F4F                     l1804:
  2394     0F4F  30FF               	movlw	255
  2395     0F50  07DA               	addwf	___fldiv@new_exp^(0+128),f
  2396     0F51  1803               	skipnc
  2397     0F52  0ADB               	incf	(___fldiv@new_exp+1)^(0+128),f
  2398     0F53  30FF               	movlw	255
  2399     0F54  07DB               	addwf	(___fldiv@new_exp+1)^(0+128),f
  2400     0F55                     l1806:
  2401     0F55  1FCE               	btfss	(___fldiv@b+2)^(0+128),7
  2402     0F56  2F58               	goto	u2391
  2403     0F57  2F59               	goto	u2390
  2404     0F58                     u2391:
  2405     0F58  2F38               	goto	l1796
  2406     0F59                     u2390:
  2407     0F59                     l1808:
  2408     0F59  01E1               	clrf	___fldiv@aexp^(0+128)
  2409     0F5A                     l1810:
  2410     0F5A  1FDF               	btfss	(___fldiv@grs+3)^(0+128),7
  2411     0F5B  2F5D               	goto	u2401
  2412     0F5C  2F5E               	goto	u2400
  2413     0F5D                     u2401:
  2414     0F5D  2F7A               	goto	l1818
  2415     0F5E                     u2400:
  2416     0F5E                     l1812:
  2417     0F5E  30FF               	movlw	255
  2418     0F5F  055C               	andwf	___fldiv@grs^(0+128),w
  2419     0F60  00D0               	movwf	??___fldiv^(0+128)
  2420     0F61  30FF               	movlw	255
  2421     0F62  055D               	andwf	(___fldiv@grs+1)^(0+128),w
  2422     0F63  00D1               	movwf	(??___fldiv^(0+128)+1)
  2423     0F64  30FF               	movlw	255
  2424     0F65  055E               	andwf	(___fldiv@grs+2)^(0+128),w
  2425     0F66  00D2               	movwf	(??___fldiv^(0+128)+2)
  2426     0F67  307F               	movlw	127
  2427     0F68  055F               	andwf	(___fldiv@grs+3)^(0+128),w
  2428     0F69  00D3               	movwf	(??___fldiv^(0+128)+3)
  2429     0F6A  0853               	movf	(??___fldiv+3)^(0+128),w
  2430     0F6B  0452               	iorwf	(??___fldiv+2)^(0+128),w
  2431     0F6C  0451               	iorwf	(??___fldiv+1)^(0+128),w
  2432     0F6D  0450               	iorwf	??___fldiv^(0+128),w
  2433     0F6E  1903               	skipnz
  2434     0F6F  2F71               	goto	u2411
  2435     0F70  2F72               	goto	u2410
  2436     0F71                     u2411:
  2437     0F71  2F75               	goto	l591
  2438     0F72                     u2410:
  2439     0F72                     l1814:
  2440     0F72  01E1               	clrf	___fldiv@aexp^(0+128)
  2441     0F73  0AE1               	incf	___fldiv@aexp^(0+128),f
  2442     0F74  2F7A               	goto	l1818
  2443     0F75                     l591:
  2444     0F75  1C4C               	btfss	___fldiv@b^(0+128),0
  2445     0F76  2F78               	goto	u2421
  2446     0F77  2F79               	goto	u2420
  2447     0F78                     u2421:
  2448     0F78  2F7A               	goto	l1818
  2449     0F79                     u2420:
  2450     0F79  2F72               	goto	l1814
  2451     0F7A                     l1818:
  2452     0F7A  0861               	movf	___fldiv@aexp^(0+128),w
  2453     0F7B  1903               	btfsc	3,2
  2454     0F7C  2F7E               	goto	u2431
  2455     0F7D  2F7F               	goto	u2430
  2456     0F7E                     u2431:
  2457     0F7E  2FB0               	goto	l1828
  2458     0F7F                     u2430:
  2459     0F7F                     l1820:
  2460     0F7F  3001               	movlw	1
  2461     0F80  07CC               	addwf	___fldiv@b^(0+128),f
  2462     0F81  3000               	movlw	0
  2463     0F82  1803               	skipnc
  2464     0F83  3001               	movlw	1
  2465     0F84  07CD               	addwf	(___fldiv@b+1)^(0+128),f
  2466     0F85  3000               	movlw	0
  2467     0F86  1803               	skipnc
  2468     0F87  3001               	movlw	1
  2469     0F88  07CE               	addwf	(___fldiv@b+2)^(0+128),f
  2470     0F89  3000               	movlw	0
  2471     0F8A  1803               	skipnc
  2472     0F8B  3001               	movlw	1
  2473     0F8C  07CF               	addwf	(___fldiv@b+3)^(0+128),f
  2474     0F8D                     l1822:
  2475     0F8D  1C4F               	btfss	(___fldiv@b+3)^(0+128),0
  2476     0F8E  2F90               	goto	u2441
  2477     0F8F  2F91               	goto	u2440
  2478     0F90                     u2441:
  2479     0F90  2FB0               	goto	l1828
  2480     0F91                     u2440:
  2481     0F91                     l1824:
  2482     0F91  084C               	movf	___fldiv@b^(0+128),w
  2483     0F92  00D0               	movwf	??___fldiv^(0+128)
  2484     0F93  084D               	movf	(___fldiv@b+1)^(0+128),w
  2485     0F94  00D1               	movwf	(??___fldiv^(0+128)+1)
  2486     0F95  084E               	movf	(___fldiv@b+2)^(0+128),w
  2487     0F96  00D2               	movwf	(??___fldiv^(0+128)+2)
  2488     0F97  084F               	movf	(___fldiv@b+3)^(0+128),w
  2489     0F98  00D3               	movwf	(??___fldiv^(0+128)+3)
  2490     0F99  3001               	movlw	1
  2491     0F9A  00D4               	movwf	(??___fldiv+4)^(0+128)
  2492     0F9B                     u2455:
  2493     0F9B  0D53               	rlf	(??___fldiv^(0+128)+3),w
  2494     0F9C  0CD3               	rrf	(??___fldiv^(0+128)+3),f
  2495     0F9D  0CD2               	rrf	(??___fldiv^(0+128)+2),f
  2496     0F9E  0CD1               	rrf	(??___fldiv^(0+128)+1),f
  2497     0F9F  0CD0               	rrf	??___fldiv^(0+128),f
  2498     0FA0                     u2450:
  2499     0FA0  0BD4               	decfsz	(??___fldiv+4)^(0+128),f
  2500     0FA1  2F9B               	goto	u2455
  2501     0FA2  0853               	movf	(??___fldiv+3)^(0+128),w
  2502     0FA3  00CF               	movwf	(___fldiv@b+3)^(0+128)
  2503     0FA4  0852               	movf	(??___fldiv+2)^(0+128),w
  2504     0FA5  00CE               	movwf	(___fldiv@b+2)^(0+128)
  2505     0FA6  0851               	movf	(??___fldiv+1)^(0+128),w
  2506     0FA7  00CD               	movwf	(___fldiv@b+1)^(0+128)
  2507     0FA8  0850               	movf	??___fldiv^(0+128),w
  2508     0FA9  00CC               	movwf	___fldiv@b^(0+128)
  2509     0FAA                     l1826:
  2510     0FAA  3001               	movlw	1
  2511     0FAB  07DA               	addwf	___fldiv@new_exp^(0+128),f
  2512     0FAC  1803               	skipnc
  2513     0FAD  0ADB               	incf	(___fldiv@new_exp+1)^(0+128),f
  2514     0FAE  3000               	movlw	0
  2515     0FAF  07DB               	addwf	(___fldiv@new_exp+1)^(0+128),f
  2516     0FB0                     l1828:
  2517     0FB0  085B               	movf	(___fldiv@new_exp+1)^(0+128),w
  2518     0FB1  3A80               	xorlw	128
  2519     0FB2  00FF               	movwf	btemp+1
  2520     0FB3  3080               	movlw	128
  2521     0FB4  027F               	subwf	btemp+1,w
  2522     0FB5  1D03               	skipz
  2523     0FB6  2FB9               	goto	u2465
  2524     0FB7  30FF               	movlw	255
  2525     0FB8  025A               	subwf	___fldiv@new_exp^(0+128),w
  2526     0FB9                     u2465:
  2527     0FB9  1C03               	skipc
  2528     0FBA  2FBC               	goto	u2461
  2529     0FBB  2FBD               	goto	u2460
  2530     0FBC                     u2461:
  2531     0FBC  2FCB               	goto	l1832
  2532     0FBD                     u2460:
  2533     0FBD                     l1830:
  2534     0FBD  30FF               	movlw	255
  2535     0FBE  1683               	bsf	3,5	;RP0=1, select bank1
  2536     0FBF  1303               	bcf	3,6	;RP1=0, select bank1
  2537     0FC0  00DA               	movwf	___fldiv@new_exp^(0+128)
  2538     0FC1  3000               	movlw	0
  2539     0FC2  00DB               	movwf	(___fldiv@new_exp^(0+128)+1)
  2540     0FC3  3000               	movlw	0
  2541     0FC4  00CF               	movwf	(___fldiv@b+3)^(0+128)
  2542     0FC5  3000               	movlw	0
  2543     0FC6  00CE               	movwf	(___fldiv@b+2)^(0+128)
  2544     0FC7  3000               	movlw	0
  2545     0FC8  00CD               	movwf	(___fldiv@b+1)^(0+128)
  2546     0FC9  3000               	movlw	0
  2547     0FCA  00CC               	movwf	___fldiv@b^(0+128)
  2548     0FCB                     l1832:
  2549     0FCB  1683               	bsf	3,5	;RP0=1, select bank1
  2550     0FCC  1303               	bcf	3,6	;RP1=0, select bank1
  2551     0FCD  085B               	movf	(___fldiv@new_exp+1)^(0+128),w
  2552     0FCE  3A80               	xorlw	128
  2553     0FCF  00FF               	movwf	btemp+1
  2554     0FD0  3080               	movlw	128
  2555     0FD1  027F               	subwf	btemp+1,w
  2556     0FD2  1D03               	skipz
  2557     0FD3  2FD6               	goto	u2475
  2558     0FD4  3001               	movlw	1
  2559     0FD5  025A               	subwf	___fldiv@new_exp^(0+128),w
  2560     0FD6                     u2475:
  2561     0FD6  1803               	skipnc
  2562     0FD7  2FD9               	goto	u2471
  2563     0FD8  2FDA               	goto	u2470
  2564     0FD9                     u2471:
  2565     0FD9  2FE7               	goto	l597
  2566     0FDA                     u2470:
  2567     0FDA                     l1834:
  2568     0FDA  1683               	bsf	3,5	;RP0=1, select bank1
  2569     0FDB  1303               	bcf	3,6	;RP1=0, select bank1
  2570     0FDC  01DA               	clrf	___fldiv@new_exp^(0+128)
  2571     0FDD  01DB               	clrf	(___fldiv@new_exp+1)^(0+128)
  2572     0FDE                     l1836:
  2573     0FDE  3000               	movlw	0
  2574     0FDF  00CF               	movwf	(___fldiv@b+3)^(0+128)
  2575     0FE0  3000               	movlw	0
  2576     0FE1  00CE               	movwf	(___fldiv@b+2)^(0+128)
  2577     0FE2  3000               	movlw	0
  2578     0FE3  00CD               	movwf	(___fldiv@b+1)^(0+128)
  2579     0FE4  3000               	movlw	0
  2580     0FE5  00CC               	movwf	___fldiv@b^(0+128)
  2581     0FE6                     l1838:
  2582     0FE6  01D9               	clrf	___fldiv@sign^(0+128)
  2583     0FE7                     l597:
  2584     0FE7  1683               	bsf	3,5	;RP0=1, select bank1
  2585     0FE8  1303               	bcf	3,6	;RP1=0, select bank1
  2586     0FE9  085A               	movf	___fldiv@new_exp^(0+128),w
  2587     0FEA  00E0               	movwf	___fldiv@bexp^(0+128)
  2588     0FEB                     l1840:
  2589     0FEB  1C60               	btfss	___fldiv@bexp^(0+128),0
  2590     0FEC  2FEE               	goto	u2481
  2591     0FED  2FEF               	goto	u2480
  2592     0FEE                     u2481:
  2593     0FEE  2FF1               	goto	l1844
  2594     0FEF                     u2480:
  2595     0FEF                     l1842:
  2596     0FEF  17CE               	bsf	(___fldiv@b^(0+128)+2),7
  2597     0FF0  2FF5               	goto	l599
  2598     0FF1                     l1844:
  2599     0FF1  307F               	movlw	127
  2600     0FF2  00D0               	movwf	??___fldiv^(0+128)
  2601     0FF3  0850               	movf	??___fldiv^(0+128),w
  2602     0FF4  05CE               	andwf	(___fldiv@b^(0+128)+2),f
  2603     0FF5                     l599:
  2604     0FF5  0860               	movf	___fldiv@bexp^(0+128),w
  2605     0FF6  00D0               	movwf	??___fldiv^(0+128)
  2606     0FF7  1003               	clrc
  2607     0FF8  0C50               	rrf	??___fldiv^(0+128),w
  2608     0FF9  00CF               	movwf	(___fldiv@b^(0+128)+3)
  2609     0FFA  0859               	movf	___fldiv@sign^(0+128),w
  2610     0FFB  00D0               	movwf	??___fldiv^(0+128)
  2611     0FFC  0850               	movf	??___fldiv^(0+128),w
  2612     0FFD  04CF               	iorwf	(___fldiv@b^(0+128)+3),f
  2613     0FFE  2E9B               	goto	l1752
  2614     0FFF                     l577:
  2615     0FFF  0008               	return
  2616     1000                     __end_of___fldiv:
  2617                           
  2618                           	psect	text6
  2619     0AAF                     __ptext6:	
  2620 ;; *************** function ___xxtofl *****************
  2621 ;; Defined at:
  2622 ;;		line 10 in file "C:\Program Files\Microchip\xc8\v2.40\pic\sources\c90\common\xxtofl.c"
  2623 ;; Parameters:    Size  Location     Type
  2624 ;;  sign            1    wreg     unsigned char 
  2625 ;;  val             4    0[BANK1 ] long 
  2626 ;; Auto vars:     Size  Location     Type
  2627 ;;  sign            1    8[BANK1 ] unsigned char 
  2628 ;;  arg             4   10[BANK1 ] unsigned long 
  2629 ;;  exp             1    9[BANK1 ] unsigned char 
  2630 ;; Return value:  Size  Location     Type
  2631 ;;                  4    0[BANK1 ] unsigned char 
  2632 ;; Registers used:
  2633 ;;		wreg, status,2, status,0
  2634 ;; Tracked objects:
  2635 ;;		On entry : 0/0
  2636 ;;		On exit  : 0/0
  2637 ;;		Unchanged: 0/0
  2638 ;; Data sizes:     COMMON   BANK0   BANK1   BANK3   BANK2
  2639 ;;      Params:         0       0       4       0       0
  2640 ;;      Locals:         0       0       6       0       0
  2641 ;;      Temps:          0       0       4       0       0
  2642 ;;      Totals:         0       0      14       0       0
  2643 ;;Total ram usage:       14 bytes
  2644 ;; Hardware stack levels used: 1
  2645 ;; Hardware stack levels required when called: 3
  2646 ;; This function calls:
  2647 ;;		Nothing
  2648 ;; This function is called by:
  2649 ;;		_main
  2650 ;;		_Mapeo_Pot
  2651 ;;		_Duty_Pot
  2652 ;; This function uses a non-reentrant model
  2653 ;;
  2654                           
  2655     0AAF                     ___xxtofl:	
  2656                           ;psect for function ___xxtofl
  2657                           
  2658                           
  2659                           ;incstack = 0
  2660                           ; Regs used in ___xxtofl: [wreg+status,2+status,0]
  2661                           ;___xxtofl@sign stored from wreg
  2662     0AAF  1683               	bsf	3,5	;RP0=1, select bank1
  2663     0AB0  1303               	bcf	3,6	;RP1=0, select bank1
  2664     0AB1  00A8               	movwf	___xxtofl@sign^(0+128)
  2665     0AB2                     l2306:
  2666     0AB2  0828               	movf	___xxtofl@sign^(0+128),w
  2667     0AB3  1903               	btfsc	3,2
  2668     0AB4  2AB6               	goto	u3401
  2669     0AB5  2AB7               	goto	u3400
  2670     0AB6                     u3401:
  2671     0AB6  2ACB               	goto	l2312
  2672     0AB7                     u3400:
  2673     0AB7                     l2308:
  2674     0AB7  1FA3               	btfss	(___xxtofl@val+3)^(0+128),7
  2675     0AB8  2ABA               	goto	u3411
  2676     0AB9  2ABB               	goto	u3410
  2677     0ABA                     u3411:
  2678     0ABA  2ACB               	goto	l2312
  2679     0ABB                     u3410:
  2680     0ABB                     l2310:
  2681     0ABB  0920               	comf	___xxtofl@val^(0+128),w
  2682     0ABC  00AA               	movwf	___xxtofl@arg^(0+128)
  2683     0ABD  0921               	comf	(___xxtofl@val^(0+128)+1),w
  2684     0ABE  00AB               	movwf	(___xxtofl@arg+1)^(0+128)
  2685     0ABF  0922               	comf	(___xxtofl@val^(0+128)+2),w
  2686     0AC0  00AC               	movwf	(___xxtofl@arg+2)^(0+128)
  2687     0AC1  0923               	comf	(___xxtofl@val^(0+128)+3),w
  2688     0AC2  00AD               	movwf	(___xxtofl@arg+3)^(0+128)
  2689     0AC3  0AAA               	incf	___xxtofl@arg^(0+128),f
  2690     0AC4  1903               	skipnz
  2691     0AC5  0AAB               	incf	(___xxtofl@arg+1)^(0+128),f
  2692     0AC6  1903               	skipnz
  2693     0AC7  0AAC               	incf	(___xxtofl@arg+2)^(0+128),f
  2694     0AC8  1903               	skipnz
  2695     0AC9  0AAD               	incf	(___xxtofl@arg+3)^(0+128),f
  2696     0ACA  2AD3               	goto	l659
  2697     0ACB                     l2312:
  2698     0ACB  0823               	movf	(___xxtofl@val+3)^(0+128),w
  2699     0ACC  00AD               	movwf	(___xxtofl@arg+3)^(0+128)
  2700     0ACD  0822               	movf	(___xxtofl@val+2)^(0+128),w
  2701     0ACE  00AC               	movwf	(___xxtofl@arg+2)^(0+128)
  2702     0ACF  0821               	movf	(___xxtofl@val+1)^(0+128),w
  2703     0AD0  00AB               	movwf	(___xxtofl@arg+1)^(0+128)
  2704     0AD1  0820               	movf	___xxtofl@val^(0+128),w
  2705     0AD2  00AA               	movwf	___xxtofl@arg^(0+128)
  2706     0AD3                     l659:
  2707     0AD3  0823               	movf	(___xxtofl@val+3)^(0+128),w
  2708     0AD4  0422               	iorwf	(___xxtofl@val+2)^(0+128),w
  2709     0AD5  0421               	iorwf	(___xxtofl@val+1)^(0+128),w
  2710     0AD6  0420               	iorwf	___xxtofl@val^(0+128),w
  2711     0AD7  1D03               	skipz
  2712     0AD8  2ADA               	goto	u3421
  2713     0AD9  2ADB               	goto	u3420
  2714     0ADA                     u3421:
  2715     0ADA  2AE4               	goto	l2318
  2716     0ADB                     u3420:
  2717     0ADB                     l2314:
  2718     0ADB  3000               	movlw	0
  2719     0ADC  00A3               	movwf	(?___xxtofl+3)^(0+128)
  2720     0ADD  3000               	movlw	0
  2721     0ADE  00A2               	movwf	(?___xxtofl+2)^(0+128)
  2722     0ADF  3000               	movlw	0
  2723     0AE0  00A1               	movwf	(?___xxtofl+1)^(0+128)
  2724     0AE1  3000               	movlw	0
  2725     0AE2  00A0               	movwf	?___xxtofl^(0+128)
  2726     0AE3  2B68               	goto	l661
  2727     0AE4                     l2318:
  2728     0AE4  3096               	movlw	150
  2729     0AE5  00A9               	movwf	___xxtofl@exp^(0+128)
  2730     0AE6  2AF4               	goto	l2322
  2731     0AE7                     l2320:
  2732     0AE7  3001               	movlw	1
  2733     0AE8  00A4               	movwf	??___xxtofl^(0+128)
  2734     0AE9  0824               	movf	??___xxtofl^(0+128),w
  2735     0AEA  07A9               	addwf	___xxtofl@exp^(0+128),f
  2736     0AEB  3001               	movlw	1
  2737     0AEC                     u3435:
  2738     0AEC  1003               	clrc
  2739     0AED  0CAD               	rrf	(___xxtofl@arg+3)^(0+128),f
  2740     0AEE  0CAC               	rrf	(___xxtofl@arg+2)^(0+128),f
  2741     0AEF  0CAB               	rrf	(___xxtofl@arg+1)^(0+128),f
  2742     0AF0  0CAA               	rrf	___xxtofl@arg^(0+128),f
  2743     0AF1  3EFF               	addlw	-1
  2744     0AF2  1D03               	skipz
  2745     0AF3  2AEC               	goto	u3435
  2746     0AF4                     l2322:
  2747     0AF4  30FE               	movlw	254
  2748     0AF5  052D               	andwf	(___xxtofl@arg+3)^(0+128),w
  2749     0AF6  1D03               	btfss	3,2
  2750     0AF7  2AF9               	goto	u3441
  2751     0AF8  2AFA               	goto	u3440
  2752     0AF9                     u3441:
  2753     0AF9  2AE7               	goto	l2320
  2754     0AFA                     u3440:
  2755     0AFA  2B16               	goto	l665
  2756     0AFB                     l2324:
  2757     0AFB  3001               	movlw	1
  2758     0AFC  00A4               	movwf	??___xxtofl^(0+128)
  2759     0AFD  0824               	movf	??___xxtofl^(0+128),w
  2760     0AFE  07A9               	addwf	___xxtofl@exp^(0+128),f
  2761     0AFF                     l2326:
  2762     0AFF  3001               	movlw	1
  2763     0B00  07AA               	addwf	___xxtofl@arg^(0+128),f
  2764     0B01  3000               	movlw	0
  2765     0B02  1803               	skipnc
  2766     0B03  3001               	movlw	1
  2767     0B04  07AB               	addwf	(___xxtofl@arg+1)^(0+128),f
  2768     0B05  3000               	movlw	0
  2769     0B06  1803               	skipnc
  2770     0B07  3001               	movlw	1
  2771     0B08  07AC               	addwf	(___xxtofl@arg+2)^(0+128),f
  2772     0B09  3000               	movlw	0
  2773     0B0A  1803               	skipnc
  2774     0B0B  3001               	movlw	1
  2775     0B0C  07AD               	addwf	(___xxtofl@arg+3)^(0+128),f
  2776     0B0D                     l2328:
  2777     0B0D  3001               	movlw	1
  2778     0B0E                     u3455:
  2779     0B0E  1003               	clrc
  2780     0B0F  0CAD               	rrf	(___xxtofl@arg+3)^(0+128),f
  2781     0B10  0CAC               	rrf	(___xxtofl@arg+2)^(0+128),f
  2782     0B11  0CAB               	rrf	(___xxtofl@arg+1)^(0+128),f
  2783     0B12  0CAA               	rrf	___xxtofl@arg^(0+128),f
  2784     0B13  3EFF               	addlw	-1
  2785     0B14  1D03               	skipz
  2786     0B15  2B0E               	goto	u3455
  2787     0B16                     l665:
  2788     0B16  30FF               	movlw	255
  2789     0B17  052D               	andwf	(___xxtofl@arg+3)^(0+128),w
  2790     0B18  1D03               	btfss	3,2
  2791     0B19  2B1B               	goto	u3461
  2792     0B1A  2B1C               	goto	u3460
  2793     0B1B                     u3461:
  2794     0B1B  2AFB               	goto	l2324
  2795     0B1C                     u3460:
  2796     0B1C  2B28               	goto	l2332
  2797     0B1D                     l2330:
  2798     0B1D  3001               	movlw	1
  2799     0B1E  02A9               	subwf	___xxtofl@exp^(0+128),f
  2800     0B1F  3001               	movlw	1
  2801     0B20  00A4               	movwf	??___xxtofl^(0+128)
  2802     0B21                     u3475:
  2803     0B21  1003               	clrc
  2804     0B22  0DAA               	rlf	___xxtofl@arg^(0+128),f
  2805     0B23  0DAB               	rlf	(___xxtofl@arg+1)^(0+128),f
  2806     0B24  0DAC               	rlf	(___xxtofl@arg+2)^(0+128),f
  2807     0B25  0DAD               	rlf	(___xxtofl@arg+3)^(0+128),f
  2808     0B26  0BA4               	decfsz	??___xxtofl^(0+128),f
  2809     0B27  2B21               	goto	u3475
  2810     0B28                     l2332:
  2811     0B28  1BAC               	btfsc	(___xxtofl@arg+2)^(0+128),7
  2812     0B29  2B2B               	goto	u3481
  2813     0B2A  2B2C               	goto	u3480
  2814     0B2B                     u3481:
  2815     0B2B  2B32               	goto	l672
  2816     0B2C                     u3480:
  2817     0B2C                     l2334:
  2818     0B2C  3002               	movlw	2
  2819     0B2D  0229               	subwf	___xxtofl@exp^(0+128),w
  2820     0B2E  1803               	skipnc
  2821     0B2F  2B31               	goto	u3491
  2822     0B30  2B32               	goto	u3490
  2823     0B31                     u3491:
  2824     0B31  2B1D               	goto	l2330
  2825     0B32                     u3490:
  2826     0B32                     l672:
  2827     0B32  1829               	btfsc	___xxtofl@exp^(0+128),0
  2828     0B33  2B35               	goto	u3501
  2829     0B34  2B36               	goto	u3500
  2830     0B35                     u3501:
  2831     0B35  2B3E               	goto	l673
  2832     0B36                     u3500:
  2833     0B36                     l2336:
  2834     0B36  30FF               	movlw	255
  2835     0B37  05AA               	andwf	___xxtofl@arg^(0+128),f
  2836     0B38  30FF               	movlw	255
  2837     0B39  05AB               	andwf	(___xxtofl@arg+1)^(0+128),f
  2838     0B3A  307F               	movlw	127
  2839     0B3B  05AC               	andwf	(___xxtofl@arg+2)^(0+128),f
  2840     0B3C  30FF               	movlw	255
  2841     0B3D  05AD               	andwf	(___xxtofl@arg+3)^(0+128),f
  2842     0B3E                     l673:
  2843     0B3E  1003               	clrc
  2844     0B3F  0CA9               	rrf	___xxtofl@exp^(0+128),f
  2845     0B40                     l2338:
  2846     0B40  0829               	movf	___xxtofl@exp^(0+128),w
  2847     0B41  00A4               	movwf	??___xxtofl^(0+128)
  2848     0B42  01A5               	clrf	(??___xxtofl^(0+128)+1)
  2849     0B43  01A6               	clrf	(??___xxtofl^(0+128)+2)
  2850     0B44  01A7               	clrf	(??___xxtofl^(0+128)+3)
  2851     0B45  3018               	movlw	24
  2852     0B46                     u3515:
  2853     0B46  1003               	clrc
  2854     0B47  0DA4               	rlf	??___xxtofl^(0+128),f
  2855     0B48  0DA5               	rlf	(??___xxtofl^(0+128)+1),f
  2856     0B49  0DA6               	rlf	(??___xxtofl^(0+128)+2),f
  2857     0B4A  0DA7               	rlf	(??___xxtofl^(0+128)+3),f
  2858     0B4B                     u3510:
  2859     0B4B  3EFF               	addlw	-1
  2860     0B4C  1D03               	skipz
  2861     0B4D  2B46               	goto	u3515
  2862     0B4E  0824               	movf	??___xxtofl^(0+128),w
  2863     0B4F  04AA               	iorwf	___xxtofl@arg^(0+128),f
  2864     0B50  0825               	movf	(??___xxtofl+1)^(0+128),w
  2865     0B51  04AB               	iorwf	(___xxtofl@arg+1)^(0+128),f
  2866     0B52  0826               	movf	(??___xxtofl+2)^(0+128),w
  2867     0B53  04AC               	iorwf	(___xxtofl@arg+2)^(0+128),f
  2868     0B54  0827               	movf	(??___xxtofl+3)^(0+128),w
  2869     0B55  04AD               	iorwf	(___xxtofl@arg+3)^(0+128),f
  2870     0B56                     l2340:
  2871     0B56  0828               	movf	___xxtofl@sign^(0+128),w
  2872     0B57  1903               	btfsc	3,2
  2873     0B58  2B5A               	goto	u3521
  2874     0B59  2B5B               	goto	u3520
  2875     0B5A                     u3521:
  2876     0B5A  2B60               	goto	l2346
  2877     0B5B                     u3520:
  2878     0B5B                     l2342:
  2879     0B5B  1FA3               	btfss	(___xxtofl@val+3)^(0+128),7
  2880     0B5C  2B5E               	goto	u3531
  2881     0B5D  2B5F               	goto	u3530
  2882     0B5E                     u3531:
  2883     0B5E  2B60               	goto	l2346
  2884     0B5F                     u3530:
  2885     0B5F                     l2344:
  2886     0B5F  17AD               	bsf	(___xxtofl@arg^(0+128)+3),7
  2887     0B60                     l2346:
  2888     0B60  082D               	movf	(___xxtofl@arg+3)^(0+128),w
  2889     0B61  00A3               	movwf	(?___xxtofl+3)^(0+128)
  2890     0B62  082C               	movf	(___xxtofl@arg+2)^(0+128),w
  2891     0B63  00A2               	movwf	(?___xxtofl+2)^(0+128)
  2892     0B64  082B               	movf	(___xxtofl@arg+1)^(0+128),w
  2893     0B65  00A1               	movwf	(?___xxtofl+1)^(0+128)
  2894     0B66  082A               	movf	___xxtofl@arg^(0+128),w
  2895     0B67  00A0               	movwf	?___xxtofl^(0+128)
  2896     0B68                     l661:
  2897     0B68  0008               	return
  2898     0B69                     __end_of___xxtofl:
  2899                           
  2900                           	psect	text7
  2901     0027                     __ptext7:	
  2902 ;; *************** function ___flmul *****************
  2903 ;; Defined at:
  2904 ;;		line 8 in file "C:\Program Files\Microchip\xc8\v2.40\pic\sources\c90\common\sprcmul.c"
  2905 ;; Parameters:    Size  Location     Type
  2906 ;;  b               4   14[BANK1 ] unsigned char 
  2907 ;;  a               4   18[BANK1 ] unsigned char 
  2908 ;; Auto vars:     Size  Location     Type
  2909 ;;  prod            4   34[BANK1 ] struct .
  2910 ;;  grs             4   28[BANK1 ] unsigned long 
  2911 ;;  temp            2   38[BANK1 ] struct .
  2912 ;;  bexp            1   33[BANK1 ] unsigned char 
  2913 ;;  aexp            1   32[BANK1 ] unsigned char 
  2914 ;;  sign            1   27[BANK1 ] unsigned char 
  2915 ;; Return value:  Size  Location     Type
  2916 ;;                  4   14[BANK1 ] unsigned char 
  2917 ;; Registers used:
  2918 ;;		wreg, status,2, status,0, btemp+1, pclath, cstack
  2919 ;; Tracked objects:
  2920 ;;		On entry : 0/0
  2921 ;;		On exit  : 0/0
  2922 ;;		Unchanged: 0/0
  2923 ;; Data sizes:     COMMON   BANK0   BANK1   BANK3   BANK2
  2924 ;;      Params:         0       0       8       0       0
  2925 ;;      Locals:         0       0      13       0       0
  2926 ;;      Temps:          0       0       5       0       0
  2927 ;;      Totals:         0       0      26       0       0
  2928 ;;Total ram usage:       26 bytes
  2929 ;; Hardware stack levels used: 1
  2930 ;; Hardware stack levels required when called: 4
  2931 ;; This function calls:
  2932 ;;		__Umul8_16
  2933 ;; This function is called by:
  2934 ;;		_main
  2935 ;;		_Mapeo_Pot
  2936 ;;		_Duty_Pot
  2937 ;; This function uses a non-reentrant model
  2938 ;;
  2939                           
  2940     0027                     ___flmul:	
  2941                           ;psect for function ___flmul
  2942                           
  2943     0027                     l2166:	
  2944                           ;incstack = 0
  2945                           ; Regs used in ___flmul: [wreg+status,2+status,0+btemp+1+pclath+cstack]
  2946                           
  2947     0027  1683               	bsf	3,5	;RP0=1, select bank1
  2948     0028  1303               	bcf	3,6	;RP1=0, select bank1
  2949     0029  0831               	movf	(___flmul@b^(0+128)+3),w
  2950     002A  3980               	andlw	128
  2951     002B  00BB               	movwf	___flmul@sign^(0+128)
  2952     002C                     l2168:
  2953     002C  0831               	movf	(___flmul@b^(0+128)+3),w
  2954     002D  00B6               	movwf	??___flmul^(0+128)
  2955     002E  0736               	addwf	??___flmul^(0+128),w
  2956     002F  00C1               	movwf	___flmul@bexp^(0+128)
  2957     0030                     l2170:
  2958     0030  1FB0               	btfss	(___flmul@b^(0+128)+2),7
  2959     0031  2833               	goto	u3031
  2960     0032  2834               	goto	u3030
  2961     0033                     u3031:
  2962     0033  2835               	goto	l2174
  2963     0034                     u3030:
  2964     0034                     l2172:
  2965     0034  1441               	bsf	___flmul@bexp^(0+128),0
  2966     0035                     l2174:
  2967     0035  0841               	movf	___flmul@bexp^(0+128),w
  2968     0036  1903               	btfsc	3,2
  2969     0037  2839               	goto	u3041
  2970     0038  283A               	goto	u3040
  2971     0039                     u3041:
  2972     0039  2849               	goto	l2182
  2973     003A                     u3040:
  2974     003A                     l2176:
  2975     003A  0A41               	incf	___flmul@bexp^(0+128),w
  2976     003B  1D03               	btfss	3,2
  2977     003C  283E               	goto	u3051
  2978     003D  283F               	goto	u3050
  2979     003E                     u3051:
  2980     003E  2847               	goto	l2180
  2981     003F                     u3050:
  2982     003F                     l2178:
  2983     003F  3000               	movlw	0
  2984     0040  00B1               	movwf	(___flmul@b+3)^(0+128)
  2985     0041  3000               	movlw	0
  2986     0042  00B0               	movwf	(___flmul@b+2)^(0+128)
  2987     0043  3000               	movlw	0
  2988     0044  00AF               	movwf	(___flmul@b+1)^(0+128)
  2989     0045  3000               	movlw	0
  2990     0046  00AE               	movwf	___flmul@b^(0+128)
  2991     0047                     l2180:
  2992     0047  17B0               	bsf	(___flmul@b^(0+128)+2),7
  2993     0048  2851               	goto	l2184
  2994     0049                     l2182:
  2995     0049  3000               	movlw	0
  2996     004A  00B1               	movwf	(___flmul@b+3)^(0+128)
  2997     004B  3000               	movlw	0
  2998     004C  00B0               	movwf	(___flmul@b+2)^(0+128)
  2999     004D  3000               	movlw	0
  3000     004E  00AF               	movwf	(___flmul@b+1)^(0+128)
  3001     004F  3000               	movlw	0
  3002     0050  00AE               	movwf	___flmul@b^(0+128)
  3003     0051                     l2184:
  3004     0051  0835               	movf	(___flmul@a^(0+128)+3),w
  3005     0052  3980               	andlw	128
  3006     0053  00B6               	movwf	??___flmul^(0+128)
  3007     0054  0836               	movf	??___flmul^(0+128),w
  3008     0055  06BB               	xorwf	___flmul@sign^(0+128),f
  3009     0056                     l2186:
  3010     0056  0835               	movf	(___flmul@a^(0+128)+3),w
  3011     0057  00B6               	movwf	??___flmul^(0+128)
  3012     0058  0736               	addwf	??___flmul^(0+128),w
  3013     0059  00C0               	movwf	___flmul@aexp^(0+128)
  3014     005A                     l2188:
  3015     005A  1FB4               	btfss	(___flmul@a^(0+128)+2),7
  3016     005B  285D               	goto	u3061
  3017     005C  285E               	goto	u3060
  3018     005D                     u3061:
  3019     005D  285F               	goto	l2192
  3020     005E                     u3060:
  3021     005E                     l2190:
  3022     005E  1440               	bsf	___flmul@aexp^(0+128),0
  3023     005F                     l2192:
  3024     005F  0840               	movf	___flmul@aexp^(0+128),w
  3025     0060  1903               	btfsc	3,2
  3026     0061  2863               	goto	u3071
  3027     0062  2864               	goto	u3070
  3028     0063                     u3071:
  3029     0063  2873               	goto	l2200
  3030     0064                     u3070:
  3031     0064                     l2194:
  3032     0064  0A40               	incf	___flmul@aexp^(0+128),w
  3033     0065  1D03               	btfss	3,2
  3034     0066  2868               	goto	u3081
  3035     0067  2869               	goto	u3080
  3036     0068                     u3081:
  3037     0068  2871               	goto	l2198
  3038     0069                     u3080:
  3039     0069                     l2196:
  3040     0069  3000               	movlw	0
  3041     006A  00B5               	movwf	(___flmul@a+3)^(0+128)
  3042     006B  3000               	movlw	0
  3043     006C  00B4               	movwf	(___flmul@a+2)^(0+128)
  3044     006D  3000               	movlw	0
  3045     006E  00B3               	movwf	(___flmul@a+1)^(0+128)
  3046     006F  3000               	movlw	0
  3047     0070  00B2               	movwf	___flmul@a^(0+128)
  3048     0071                     l2198:
  3049     0071  17B4               	bsf	(___flmul@a^(0+128)+2),7
  3050     0072  287B               	goto	l2202
  3051     0073                     l2200:
  3052     0073  3000               	movlw	0
  3053     0074  00B5               	movwf	(___flmul@a+3)^(0+128)
  3054     0075  3000               	movlw	0
  3055     0076  00B4               	movwf	(___flmul@a+2)^(0+128)
  3056     0077  3000               	movlw	0
  3057     0078  00B3               	movwf	(___flmul@a+1)^(0+128)
  3058     0079  3000               	movlw	0
  3059     007A  00B2               	movwf	___flmul@a^(0+128)
  3060     007B                     l2202:
  3061     007B  0840               	movf	___flmul@aexp^(0+128),w
  3062     007C  1903               	btfsc	3,2
  3063     007D  287F               	goto	u3091
  3064     007E  2880               	goto	u3090
  3065     007F                     u3091:
  3066     007F  2885               	goto	l2206
  3067     0080                     u3090:
  3068     0080                     l2204:
  3069     0080  0841               	movf	___flmul@bexp^(0+128),w
  3070     0081  1D03               	btfss	3,2
  3071     0082  2884               	goto	u3101
  3072     0083  2885               	goto	u3100
  3073     0084                     u3101:
  3074     0084  288E               	goto	l2210
  3075     0085                     u3100:
  3076     0085                     l2206:
  3077     0085  3000               	movlw	0
  3078     0086  00B1               	movwf	(?___flmul+3)^(0+128)
  3079     0087  3000               	movlw	0
  3080     0088  00B0               	movwf	(?___flmul+2)^(0+128)
  3081     0089  3000               	movlw	0
  3082     008A  00AF               	movwf	(?___flmul+1)^(0+128)
  3083     008B  3000               	movlw	0
  3084     008C  00AE               	movwf	?___flmul^(0+128)
  3085     008D  2B6B               	goto	l615
  3086     008E                     l2210:
  3087     008E  082E               	movf	___flmul@b^(0+128),w
  3088     008F  00A0               	movwf	__Umul8_16@multiplicand^(0+128)
  3089     0090  0834               	movf	(___flmul@a^(0+128)+2),w
  3090     0091  120A  118A  27AF  120A  118A  	fcall	__Umul8_16
  3091     0096  1683               	bsf	3,5	;RP0=1, select bank1
  3092     0097  1303               	bcf	3,6	;RP1=0, select bank1
  3093     0098  0821               	movf	(?__Umul8_16+1)^(0+128),w
  3094     0099  00C7               	movwf	(___flmul@temp+1)^(0+128)
  3095     009A  0820               	movf	?__Umul8_16^(0+128),w
  3096     009B  00C6               	movwf	___flmul@temp^(0+128)
  3097     009C                     l2212:
  3098     009C  0846               	movf	___flmul@temp^(0+128),w
  3099     009D  00B6               	movwf	??___flmul^(0+128)
  3100     009E  01B7               	clrf	(??___flmul^(0+128)+1)
  3101     009F  01B8               	clrf	(??___flmul^(0+128)+2)
  3102     00A0  01B9               	clrf	(??___flmul^(0+128)+3)
  3103     00A1  0839               	movf	(??___flmul+3)^(0+128),w
  3104     00A2  00BF               	movwf	(___flmul@grs+3)^(0+128)
  3105     00A3  0838               	movf	(??___flmul+2)^(0+128),w
  3106     00A4  00BE               	movwf	(___flmul@grs+2)^(0+128)
  3107     00A5  0837               	movf	(??___flmul+1)^(0+128),w
  3108     00A6  00BD               	movwf	(___flmul@grs+1)^(0+128)
  3109     00A7  0836               	movf	??___flmul^(0+128),w
  3110     00A8  00BC               	movwf	___flmul@grs^(0+128)
  3111     00A9                     l2214:
  3112     00A9  0847               	movf	(___flmul@temp^(0+128)+1),w
  3113     00AA  00B6               	movwf	??___flmul^(0+128)
  3114     00AB  01B7               	clrf	(??___flmul^(0+128)+1)
  3115     00AC  01B8               	clrf	(??___flmul^(0+128)+2)
  3116     00AD  01B9               	clrf	(??___flmul^(0+128)+3)
  3117     00AE  0839               	movf	(??___flmul+3)^(0+128),w
  3118     00AF  00C5               	movwf	(___flmul@prod+3)^(0+128)
  3119     00B0  0838               	movf	(??___flmul+2)^(0+128),w
  3120     00B1  00C4               	movwf	(___flmul@prod+2)^(0+128)
  3121     00B2  0837               	movf	(??___flmul+1)^(0+128),w
  3122     00B3  00C3               	movwf	(___flmul@prod+1)^(0+128)
  3123     00B4  0836               	movf	??___flmul^(0+128),w
  3124     00B5  00C2               	movwf	___flmul@prod^(0+128)
  3125     00B6  082F               	movf	(___flmul@b^(0+128)+1),w
  3126     00B7  00A0               	movwf	__Umul8_16@multiplicand^(0+128)
  3127     00B8  0833               	movf	(___flmul@a^(0+128)+1),w
  3128     00B9  120A  118A  27AF  120A  118A  	fcall	__Umul8_16
  3129     00BE  1683               	bsf	3,5	;RP0=1, select bank1
  3130     00BF  1303               	bcf	3,6	;RP1=0, select bank1
  3131     00C0  0821               	movf	(?__Umul8_16+1)^(0+128),w
  3132     00C1  00C7               	movwf	(___flmul@temp+1)^(0+128)
  3133     00C2  0820               	movf	?__Umul8_16^(0+128),w
  3134     00C3  00C6               	movwf	___flmul@temp^(0+128)
  3135     00C4                     l2216:
  3136     00C4  0846               	movf	___flmul@temp^(0+128),w
  3137     00C5  00B6               	movwf	??___flmul^(0+128)
  3138     00C6  01B7               	clrf	(??___flmul^(0+128)+1)
  3139     00C7  01B8               	clrf	(??___flmul^(0+128)+2)
  3140     00C8  01B9               	clrf	(??___flmul^(0+128)+3)
  3141     00C9  0836               	movf	??___flmul^(0+128),w
  3142     00CA  07BC               	addwf	___flmul@grs^(0+128),f
  3143     00CB  0837               	movf	(??___flmul+1)^(0+128),w
  3144     00CC  1103               	clrz
  3145     00CD  1803               	skipnc
  3146     00CE  3E01               	addlw	1
  3147     00CF  1903               	skipnz
  3148     00D0  28D2               	goto	u3111
  3149     00D1  07BD               	addwf	(___flmul@grs+1)^(0+128),f
  3150     00D2                     u3111:
  3151     00D2  0838               	movf	(??___flmul+2)^(0+128),w
  3152     00D3  1103               	clrz
  3153     00D4  1803               	skipnc
  3154     00D5  3E01               	addlw	1
  3155     00D6  1903               	skipnz
  3156     00D7  28D9               	goto	u3112
  3157     00D8  07BE               	addwf	(___flmul@grs+2)^(0+128),f
  3158     00D9                     u3112:
  3159     00D9  0839               	movf	(??___flmul+3)^(0+128),w
  3160     00DA  1103               	clrz
  3161     00DB  1803               	skipnc
  3162     00DC  3E01               	addlw	1
  3163     00DD  1903               	skipnz
  3164     00DE  28E0               	goto	u3113
  3165     00DF  07BF               	addwf	(___flmul@grs+3)^(0+128),f
  3166     00E0                     u3113:
  3167     00E0                     l2218:
  3168     00E0  0847               	movf	(___flmul@temp^(0+128)+1),w
  3169     00E1  00B6               	movwf	??___flmul^(0+128)
  3170     00E2  01B7               	clrf	(??___flmul^(0+128)+1)
  3171     00E3  01B8               	clrf	(??___flmul^(0+128)+2)
  3172     00E4  01B9               	clrf	(??___flmul^(0+128)+3)
  3173     00E5  0836               	movf	??___flmul^(0+128),w
  3174     00E6  07C2               	addwf	___flmul@prod^(0+128),f
  3175     00E7  0837               	movf	(??___flmul+1)^(0+128),w
  3176     00E8  1103               	clrz
  3177     00E9  1803               	skipnc
  3178     00EA  3E01               	addlw	1
  3179     00EB  1903               	skipnz
  3180     00EC  28EE               	goto	u3121
  3181     00ED  07C3               	addwf	(___flmul@prod+1)^(0+128),f
  3182     00EE                     u3121:
  3183     00EE  0838               	movf	(??___flmul+2)^(0+128),w
  3184     00EF  1103               	clrz
  3185     00F0  1803               	skipnc
  3186     00F1  3E01               	addlw	1
  3187     00F2  1903               	skipnz
  3188     00F3  28F5               	goto	u3122
  3189     00F4  07C4               	addwf	(___flmul@prod+2)^(0+128),f
  3190     00F5                     u3122:
  3191     00F5  0839               	movf	(??___flmul+3)^(0+128),w
  3192     00F6  1103               	clrz
  3193     00F7  1803               	skipnc
  3194     00F8  3E01               	addlw	1
  3195     00F9  1903               	skipnz
  3196     00FA  28FC               	goto	u3123
  3197     00FB  07C5               	addwf	(___flmul@prod+3)^(0+128),f
  3198     00FC                     u3123:
  3199     00FC  0830               	movf	(___flmul@b^(0+128)+2),w
  3200     00FD  00A0               	movwf	__Umul8_16@multiplicand^(0+128)
  3201     00FE  0832               	movf	___flmul@a^(0+128),w
  3202     00FF  120A  118A  27AF  120A  118A  	fcall	__Umul8_16
  3203     0104  1683               	bsf	3,5	;RP0=1, select bank1
  3204     0105  1303               	bcf	3,6	;RP1=0, select bank1
  3205     0106  0821               	movf	(?__Umul8_16+1)^(0+128),w
  3206     0107  00C7               	movwf	(___flmul@temp+1)^(0+128)
  3207     0108  0820               	movf	?__Umul8_16^(0+128),w
  3208     0109  00C6               	movwf	___flmul@temp^(0+128)
  3209     010A                     l2220:
  3210     010A  0846               	movf	___flmul@temp^(0+128),w
  3211     010B  00B6               	movwf	??___flmul^(0+128)
  3212     010C  01B7               	clrf	(??___flmul^(0+128)+1)
  3213     010D  01B8               	clrf	(??___flmul^(0+128)+2)
  3214     010E  01B9               	clrf	(??___flmul^(0+128)+3)
  3215     010F  0836               	movf	??___flmul^(0+128),w
  3216     0110  07BC               	addwf	___flmul@grs^(0+128),f
  3217     0111  0837               	movf	(??___flmul+1)^(0+128),w
  3218     0112  1103               	clrz
  3219     0113  1803               	skipnc
  3220     0114  3E01               	addlw	1
  3221     0115  1903               	skipnz
  3222     0116  2918               	goto	u3131
  3223     0117  07BD               	addwf	(___flmul@grs+1)^(0+128),f
  3224     0118                     u3131:
  3225     0118  0838               	movf	(??___flmul+2)^(0+128),w
  3226     0119  1103               	clrz
  3227     011A  1803               	skipnc
  3228     011B  3E01               	addlw	1
  3229     011C  1903               	skipnz
  3230     011D  291F               	goto	u3132
  3231     011E  07BE               	addwf	(___flmul@grs+2)^(0+128),f
  3232     011F                     u3132:
  3233     011F  0839               	movf	(??___flmul+3)^(0+128),w
  3234     0120  1103               	clrz
  3235     0121  1803               	skipnc
  3236     0122  3E01               	addlw	1
  3237     0123  1903               	skipnz
  3238     0124  2926               	goto	u3133
  3239     0125  07BF               	addwf	(___flmul@grs+3)^(0+128),f
  3240     0126                     u3133:
  3241     0126                     l2222:
  3242     0126  0847               	movf	(___flmul@temp^(0+128)+1),w
  3243     0127  00B6               	movwf	??___flmul^(0+128)
  3244     0128  01B7               	clrf	(??___flmul^(0+128)+1)
  3245     0129  01B8               	clrf	(??___flmul^(0+128)+2)
  3246     012A  01B9               	clrf	(??___flmul^(0+128)+3)
  3247     012B  0836               	movf	??___flmul^(0+128),w
  3248     012C  07C2               	addwf	___flmul@prod^(0+128),f
  3249     012D  0837               	movf	(??___flmul+1)^(0+128),w
  3250     012E  1103               	clrz
  3251     012F  1803               	skipnc
  3252     0130  3E01               	addlw	1
  3253     0131  1903               	skipnz
  3254     0132  2934               	goto	u3141
  3255     0133  07C3               	addwf	(___flmul@prod+1)^(0+128),f
  3256     0134                     u3141:
  3257     0134  0838               	movf	(??___flmul+2)^(0+128),w
  3258     0135  1103               	clrz
  3259     0136  1803               	skipnc
  3260     0137  3E01               	addlw	1
  3261     0138  1903               	skipnz
  3262     0139  293B               	goto	u3142
  3263     013A  07C4               	addwf	(___flmul@prod+2)^(0+128),f
  3264     013B                     u3142:
  3265     013B  0839               	movf	(??___flmul+3)^(0+128),w
  3266     013C  1103               	clrz
  3267     013D  1803               	skipnc
  3268     013E  3E01               	addlw	1
  3269     013F  1903               	skipnz
  3270     0140  2942               	goto	u3143
  3271     0141  07C5               	addwf	(___flmul@prod+3)^(0+128),f
  3272     0142                     u3143:
  3273     0142                     l2224:
  3274     0142  3008               	movlw	8
  3275     0143  00B6               	movwf	??___flmul^(0+128)
  3276     0144                     u3155:
  3277     0144  1003               	clrc
  3278     0145  0DBC               	rlf	___flmul@grs^(0+128),f
  3279     0146  0DBD               	rlf	(___flmul@grs+1)^(0+128),f
  3280     0147  0DBE               	rlf	(___flmul@grs+2)^(0+128),f
  3281     0148  0DBF               	rlf	(___flmul@grs+3)^(0+128),f
  3282     0149  0BB6               	decfsz	??___flmul^(0+128),f
  3283     014A  2944               	goto	u3155
  3284     014B                     l2226:
  3285     014B  082F               	movf	(___flmul@b^(0+128)+1),w
  3286     014C  00A0               	movwf	__Umul8_16@multiplicand^(0+128)
  3287     014D  0832               	movf	___flmul@a^(0+128),w
  3288     014E  120A  118A  27AF  120A  118A  	fcall	__Umul8_16
  3289     0153  1683               	bsf	3,5	;RP0=1, select bank1
  3290     0154  1303               	bcf	3,6	;RP1=0, select bank1
  3291     0155  0821               	movf	(?__Umul8_16+1)^(0+128),w
  3292     0156  00C7               	movwf	(___flmul@temp+1)^(0+128)
  3293     0157  0820               	movf	?__Umul8_16^(0+128),w
  3294     0158  00C6               	movwf	___flmul@temp^(0+128)
  3295     0159                     l2228:
  3296     0159  0846               	movf	___flmul@temp^(0+128),w
  3297     015A  00B6               	movwf	??___flmul^(0+128)
  3298     015B  0847               	movf	(___flmul@temp+1)^(0+128),w
  3299     015C  00B7               	movwf	(??___flmul^(0+128)+1)
  3300     015D  01B8               	clrf	(??___flmul^(0+128)+2)
  3301     015E  01B9               	clrf	(??___flmul^(0+128)+3)
  3302     015F  0836               	movf	??___flmul^(0+128),w
  3303     0160  07BC               	addwf	___flmul@grs^(0+128),f
  3304     0161  0837               	movf	(??___flmul+1)^(0+128),w
  3305     0162  1103               	clrz
  3306     0163  1803               	skipnc
  3307     0164  3E01               	addlw	1
  3308     0165  1903               	skipnz
  3309     0166  2968               	goto	u3161
  3310     0167  07BD               	addwf	(___flmul@grs+1)^(0+128),f
  3311     0168                     u3161:
  3312     0168  0838               	movf	(??___flmul+2)^(0+128),w
  3313     0169  1103               	clrz
  3314     016A  1803               	skipnc
  3315     016B  3E01               	addlw	1
  3316     016C  1903               	skipnz
  3317     016D  296F               	goto	u3162
  3318     016E  07BE               	addwf	(___flmul@grs+2)^(0+128),f
  3319     016F                     u3162:
  3320     016F  0839               	movf	(??___flmul+3)^(0+128),w
  3321     0170  1103               	clrz
  3322     0171  1803               	skipnc
  3323     0172  3E01               	addlw	1
  3324     0173  1903               	skipnz
  3325     0174  2976               	goto	u3163
  3326     0175  07BF               	addwf	(___flmul@grs+3)^(0+128),f
  3327     0176                     u3163:
  3328     0176                     l2230:
  3329     0176  082E               	movf	___flmul@b^(0+128),w
  3330     0177  00A0               	movwf	__Umul8_16@multiplicand^(0+128)
  3331     0178  0833               	movf	(___flmul@a^(0+128)+1),w
  3332     0179  120A  118A  27AF  120A  118A  	fcall	__Umul8_16
  3333     017E  1683               	bsf	3,5	;RP0=1, select bank1
  3334     017F  1303               	bcf	3,6	;RP1=0, select bank1
  3335     0180  0821               	movf	(?__Umul8_16+1)^(0+128),w
  3336     0181  00C7               	movwf	(___flmul@temp+1)^(0+128)
  3337     0182  0820               	movf	?__Umul8_16^(0+128),w
  3338     0183  00C6               	movwf	___flmul@temp^(0+128)
  3339     0184                     l2232:
  3340     0184  0846               	movf	___flmul@temp^(0+128),w
  3341     0185  00B6               	movwf	??___flmul^(0+128)
  3342     0186  0847               	movf	(___flmul@temp+1)^(0+128),w
  3343     0187  00B7               	movwf	(??___flmul^(0+128)+1)
  3344     0188  01B8               	clrf	(??___flmul^(0+128)+2)
  3345     0189  01B9               	clrf	(??___flmul^(0+128)+3)
  3346     018A  0836               	movf	??___flmul^(0+128),w
  3347     018B  07BC               	addwf	___flmul@grs^(0+128),f
  3348     018C  0837               	movf	(??___flmul+1)^(0+128),w
  3349     018D  1103               	clrz
  3350     018E  1803               	skipnc
  3351     018F  3E01               	addlw	1
  3352     0190  1903               	skipnz
  3353     0191  2993               	goto	u3171
  3354     0192  07BD               	addwf	(___flmul@grs+1)^(0+128),f
  3355     0193                     u3171:
  3356     0193  0838               	movf	(??___flmul+2)^(0+128),w
  3357     0194  1103               	clrz
  3358     0195  1803               	skipnc
  3359     0196  3E01               	addlw	1
  3360     0197  1903               	skipnz
  3361     0198  299A               	goto	u3172
  3362     0199  07BE               	addwf	(___flmul@grs+2)^(0+128),f
  3363     019A                     u3172:
  3364     019A  0839               	movf	(??___flmul+3)^(0+128),w
  3365     019B  1103               	clrz
  3366     019C  1803               	skipnc
  3367     019D  3E01               	addlw	1
  3368     019E  1903               	skipnz
  3369     019F  29A1               	goto	u3173
  3370     01A0  07BF               	addwf	(___flmul@grs+3)^(0+128),f
  3371     01A1                     u3173:
  3372     01A1                     l2234:
  3373     01A1  3008               	movlw	8
  3374     01A2  00B6               	movwf	??___flmul^(0+128)
  3375     01A3                     u3185:
  3376     01A3  1003               	clrc
  3377     01A4  0DBC               	rlf	___flmul@grs^(0+128),f
  3378     01A5  0DBD               	rlf	(___flmul@grs+1)^(0+128),f
  3379     01A6  0DBE               	rlf	(___flmul@grs+2)^(0+128),f
  3380     01A7  0DBF               	rlf	(___flmul@grs+3)^(0+128),f
  3381     01A8  0BB6               	decfsz	??___flmul^(0+128),f
  3382     01A9  29A3               	goto	u3185
  3383     01AA  082E               	movf	___flmul@b^(0+128),w
  3384     01AB  00A0               	movwf	__Umul8_16@multiplicand^(0+128)
  3385     01AC  0832               	movf	___flmul@a^(0+128),w
  3386     01AD  120A  118A  27AF  120A  118A  	fcall	__Umul8_16
  3387     01B2  1683               	bsf	3,5	;RP0=1, select bank1
  3388     01B3  1303               	bcf	3,6	;RP1=0, select bank1
  3389     01B4  0821               	movf	(?__Umul8_16+1)^(0+128),w
  3390     01B5  00C7               	movwf	(___flmul@temp+1)^(0+128)
  3391     01B6  0820               	movf	?__Umul8_16^(0+128),w
  3392     01B7  00C6               	movwf	___flmul@temp^(0+128)
  3393     01B8                     l2236:
  3394     01B8  0846               	movf	___flmul@temp^(0+128),w
  3395     01B9  00B6               	movwf	??___flmul^(0+128)
  3396     01BA  0847               	movf	(___flmul@temp+1)^(0+128),w
  3397     01BB  00B7               	movwf	(??___flmul^(0+128)+1)
  3398     01BC  01B8               	clrf	(??___flmul^(0+128)+2)
  3399     01BD  01B9               	clrf	(??___flmul^(0+128)+3)
  3400     01BE  0836               	movf	??___flmul^(0+128),w
  3401     01BF  07BC               	addwf	___flmul@grs^(0+128),f
  3402     01C0  0837               	movf	(??___flmul+1)^(0+128),w
  3403     01C1  1103               	clrz
  3404     01C2  1803               	skipnc
  3405     01C3  3E01               	addlw	1
  3406     01C4  1903               	skipnz
  3407     01C5  29C7               	goto	u3191
  3408     01C6  07BD               	addwf	(___flmul@grs+1)^(0+128),f
  3409     01C7                     u3191:
  3410     01C7  0838               	movf	(??___flmul+2)^(0+128),w
  3411     01C8  1103               	clrz
  3412     01C9  1803               	skipnc
  3413     01CA  3E01               	addlw	1
  3414     01CB  1903               	skipnz
  3415     01CC  29CE               	goto	u3192
  3416     01CD  07BE               	addwf	(___flmul@grs+2)^(0+128),f
  3417     01CE                     u3192:
  3418     01CE  0839               	movf	(??___flmul+3)^(0+128),w
  3419     01CF  1103               	clrz
  3420     01D0  1803               	skipnc
  3421     01D1  3E01               	addlw	1
  3422     01D2  1903               	skipnz
  3423     01D3  29D5               	goto	u3193
  3424     01D4  07BF               	addwf	(___flmul@grs+3)^(0+128),f
  3425     01D5                     u3193:
  3426     01D5                     l2238:
  3427     01D5  082F               	movf	(___flmul@b^(0+128)+1),w
  3428     01D6  00A0               	movwf	__Umul8_16@multiplicand^(0+128)
  3429     01D7  0834               	movf	(___flmul@a^(0+128)+2),w
  3430     01D8  120A  118A  27AF  120A  118A  	fcall	__Umul8_16
  3431     01DD  1683               	bsf	3,5	;RP0=1, select bank1
  3432     01DE  1303               	bcf	3,6	;RP1=0, select bank1
  3433     01DF  0821               	movf	(?__Umul8_16+1)^(0+128),w
  3434     01E0  00C7               	movwf	(___flmul@temp+1)^(0+128)
  3435     01E1  0820               	movf	?__Umul8_16^(0+128),w
  3436     01E2  00C6               	movwf	___flmul@temp^(0+128)
  3437     01E3  0846               	movf	___flmul@temp^(0+128),w
  3438     01E4  00B6               	movwf	??___flmul^(0+128)
  3439     01E5  0847               	movf	(___flmul@temp+1)^(0+128),w
  3440     01E6  00B7               	movwf	(??___flmul^(0+128)+1)
  3441     01E7  01B8               	clrf	(??___flmul^(0+128)+2)
  3442     01E8  01B9               	clrf	(??___flmul^(0+128)+3)
  3443     01E9  0836               	movf	??___flmul^(0+128),w
  3444     01EA  07C2               	addwf	___flmul@prod^(0+128),f
  3445     01EB  0837               	movf	(??___flmul+1)^(0+128),w
  3446     01EC  1103               	clrz
  3447     01ED  1803               	skipnc
  3448     01EE  3E01               	addlw	1
  3449     01EF  1903               	skipnz
  3450     01F0  29F2               	goto	u3201
  3451     01F1  07C3               	addwf	(___flmul@prod+1)^(0+128),f
  3452     01F2                     u3201:
  3453     01F2  0838               	movf	(??___flmul+2)^(0+128),w
  3454     01F3  1103               	clrz
  3455     01F4  1803               	skipnc
  3456     01F5  3E01               	addlw	1
  3457     01F6  1903               	skipnz
  3458     01F7  29F9               	goto	u3202
  3459     01F8  07C4               	addwf	(___flmul@prod+2)^(0+128),f
  3460     01F9                     u3202:
  3461     01F9  0839               	movf	(??___flmul+3)^(0+128),w
  3462     01FA  1103               	clrz
  3463     01FB  1803               	skipnc
  3464     01FC  3E01               	addlw	1
  3465     01FD  1903               	skipnz
  3466     01FE  2A00               	goto	u3203
  3467     01FF  07C5               	addwf	(___flmul@prod+3)^(0+128),f
  3468     0200                     u3203:
  3469     0200                     l2240:
  3470     0200  0830               	movf	(___flmul@b^(0+128)+2),w
  3471     0201  00A0               	movwf	__Umul8_16@multiplicand^(0+128)
  3472     0202  0833               	movf	(___flmul@a^(0+128)+1),w
  3473     0203  120A  118A  27AF  120A  118A  	fcall	__Umul8_16
  3474     0208  1683               	bsf	3,5	;RP0=1, select bank1
  3475     0209  1303               	bcf	3,6	;RP1=0, select bank1
  3476     020A  0821               	movf	(?__Umul8_16+1)^(0+128),w
  3477     020B  00C7               	movwf	(___flmul@temp+1)^(0+128)
  3478     020C  0820               	movf	?__Umul8_16^(0+128),w
  3479     020D  00C6               	movwf	___flmul@temp^(0+128)
  3480     020E                     l2242:
  3481     020E  0846               	movf	___flmul@temp^(0+128),w
  3482     020F  00B6               	movwf	??___flmul^(0+128)
  3483     0210  0847               	movf	(___flmul@temp+1)^(0+128),w
  3484     0211  00B7               	movwf	(??___flmul^(0+128)+1)
  3485     0212  01B8               	clrf	(??___flmul^(0+128)+2)
  3486     0213  01B9               	clrf	(??___flmul^(0+128)+3)
  3487     0214  0836               	movf	??___flmul^(0+128),w
  3488     0215  07C2               	addwf	___flmul@prod^(0+128),f
  3489     0216  0837               	movf	(??___flmul+1)^(0+128),w
  3490     0217  1103               	clrz
  3491     0218  1803               	skipnc
  3492     0219  3E01               	addlw	1
  3493     021A  1903               	skipnz
  3494     021B  2A1D               	goto	u3211
  3495     021C  07C3               	addwf	(___flmul@prod+1)^(0+128),f
  3496     021D                     u3211:
  3497     021D  0838               	movf	(??___flmul+2)^(0+128),w
  3498     021E  1103               	clrz
  3499     021F  1803               	skipnc
  3500     0220  3E01               	addlw	1
  3501     0221  1903               	skipnz
  3502     0222  2A24               	goto	u3212
  3503     0223  07C4               	addwf	(___flmul@prod+2)^(0+128),f
  3504     0224                     u3212:
  3505     0224  0839               	movf	(??___flmul+3)^(0+128),w
  3506     0225  1103               	clrz
  3507     0226  1803               	skipnc
  3508     0227  3E01               	addlw	1
  3509     0228  1903               	skipnz
  3510     0229  2A2B               	goto	u3213
  3511     022A  07C5               	addwf	(___flmul@prod+3)^(0+128),f
  3512     022B                     u3213:
  3513     022B  0830               	movf	(___flmul@b^(0+128)+2),w
  3514     022C  00A0               	movwf	__Umul8_16@multiplicand^(0+128)
  3515     022D  0834               	movf	(___flmul@a^(0+128)+2),w
  3516     022E  120A  118A  27AF  120A  118A  	fcall	__Umul8_16
  3517     0233  1683               	bsf	3,5	;RP0=1, select bank1
  3518     0234  1303               	bcf	3,6	;RP1=0, select bank1
  3519     0235  0821               	movf	(?__Umul8_16+1)^(0+128),w
  3520     0236  00C7               	movwf	(___flmul@temp+1)^(0+128)
  3521     0237  0820               	movf	?__Umul8_16^(0+128),w
  3522     0238  00C6               	movwf	___flmul@temp^(0+128)
  3523     0239                     l2244:
  3524     0239  0846               	movf	___flmul@temp^(0+128),w
  3525     023A  00B6               	movwf	??___flmul^(0+128)
  3526     023B  0847               	movf	(___flmul@temp+1)^(0+128),w
  3527     023C  00B7               	movwf	(??___flmul^(0+128)+1)
  3528     023D  01B8               	clrf	(??___flmul^(0+128)+2)
  3529     023E  01B9               	clrf	(??___flmul^(0+128)+3)
  3530     023F  3008               	movlw	8
  3531     0240                     u3225:
  3532     0240  1003               	clrc
  3533     0241  0DB6               	rlf	??___flmul^(0+128),f
  3534     0242  0DB7               	rlf	(??___flmul^(0+128)+1),f
  3535     0243  0DB8               	rlf	(??___flmul^(0+128)+2),f
  3536     0244  0DB9               	rlf	(??___flmul^(0+128)+3),f
  3537     0245                     u3220:
  3538     0245  3EFF               	addlw	-1
  3539     0246  1D03               	skipz
  3540     0247  2A40               	goto	u3225
  3541     0248  0836               	movf	??___flmul^(0+128),w
  3542     0249  07C2               	addwf	___flmul@prod^(0+128),f
  3543     024A  0837               	movf	(??___flmul+1)^(0+128),w
  3544     024B  1103               	clrz
  3545     024C  1803               	skipnc
  3546     024D  3E01               	addlw	1
  3547     024E  1903               	skipnz
  3548     024F  2A51               	goto	u3231
  3549     0250  07C3               	addwf	(___flmul@prod+1)^(0+128),f
  3550     0251                     u3231:
  3551     0251  0838               	movf	(??___flmul+2)^(0+128),w
  3552     0252  1103               	clrz
  3553     0253  1803               	skipnc
  3554     0254  3E01               	addlw	1
  3555     0255  1903               	skipnz
  3556     0256  2A58               	goto	u3232
  3557     0257  07C4               	addwf	(___flmul@prod+2)^(0+128),f
  3558     0258                     u3232:
  3559     0258  0839               	movf	(??___flmul+3)^(0+128),w
  3560     0259  1103               	clrz
  3561     025A  1803               	skipnc
  3562     025B  3E01               	addlw	1
  3563     025C  1903               	skipnz
  3564     025D  2A5F               	goto	u3233
  3565     025E  07C5               	addwf	(___flmul@prod+3)^(0+128),f
  3566     025F                     u3233:
  3567     025F                     l2246:
  3568     025F  083C               	movf	___flmul@grs^(0+128),w
  3569     0260  00B6               	movwf	??___flmul^(0+128)
  3570     0261  083D               	movf	(___flmul@grs+1)^(0+128),w
  3571     0262  00B7               	movwf	(??___flmul^(0+128)+1)
  3572     0263  083E               	movf	(___flmul@grs+2)^(0+128),w
  3573     0264  00B8               	movwf	(??___flmul^(0+128)+2)
  3574     0265  083F               	movf	(___flmul@grs+3)^(0+128),w
  3575     0266  00B9               	movwf	(??___flmul^(0+128)+3)
  3576     0267  3018               	movlw	24
  3577     0268                     u3245:
  3578     0268  1003               	clrc
  3579     0269  0CB9               	rrf	(??___flmul^(0+128)+3),f
  3580     026A  0CB8               	rrf	(??___flmul^(0+128)+2),f
  3581     026B  0CB7               	rrf	(??___flmul^(0+128)+1),f
  3582     026C  0CB6               	rrf	??___flmul^(0+128),f
  3583     026D                     u3240:
  3584     026D  3EFF               	addlw	-1
  3585     026E  1D03               	skipz
  3586     026F  2A68               	goto	u3245
  3587     0270  0836               	movf	??___flmul^(0+128),w
  3588     0271  07C2               	addwf	___flmul@prod^(0+128),f
  3589     0272  0837               	movf	(??___flmul+1)^(0+128),w
  3590     0273  1103               	clrz
  3591     0274  1803               	skipnc
  3592     0275  3E01               	addlw	1
  3593     0276  1903               	skipnz
  3594     0277  2A79               	goto	u3251
  3595     0278  07C3               	addwf	(___flmul@prod+1)^(0+128),f
  3596     0279                     u3251:
  3597     0279  0838               	movf	(??___flmul+2)^(0+128),w
  3598     027A  1103               	clrz
  3599     027B  1803               	skipnc
  3600     027C  3E01               	addlw	1
  3601     027D  1903               	skipnz
  3602     027E  2A80               	goto	u3252
  3603     027F  07C4               	addwf	(___flmul@prod+2)^(0+128),f
  3604     0280                     u3252:
  3605     0280  0839               	movf	(??___flmul+3)^(0+128),w
  3606     0281  1103               	clrz
  3607     0282  1803               	skipnc
  3608     0283  3E01               	addlw	1
  3609     0284  1903               	skipnz
  3610     0285  2A87               	goto	u3253
  3611     0286  07C5               	addwf	(___flmul@prod+3)^(0+128),f
  3612     0287                     u3253:
  3613     0287                     l2248:
  3614     0287  3008               	movlw	8
  3615     0288  00B6               	movwf	??___flmul^(0+128)
  3616     0289                     u3265:
  3617     0289  1003               	clrc
  3618     028A  0DBC               	rlf	___flmul@grs^(0+128),f
  3619     028B  0DBD               	rlf	(___flmul@grs+1)^(0+128),f
  3620     028C  0DBE               	rlf	(___flmul@grs+2)^(0+128),f
  3621     028D  0DBF               	rlf	(___flmul@grs+3)^(0+128),f
  3622     028E  0BB6               	decfsz	??___flmul^(0+128),f
  3623     028F  2A89               	goto	u3265
  3624     0290                     l2250:
  3625     0290  0841               	movf	___flmul@bexp^(0+128),w
  3626     0291  0740               	addwf	___flmul@aexp^(0+128),w
  3627     0292  00B6               	movwf	??___flmul^(0+128)
  3628     0293  01B7               	clrf	(??___flmul^(0+128)+1)
  3629     0294  0DB7               	rlf	(??___flmul+1)^(0+128),f
  3630     0295  0836               	movf	??___flmul^(0+128),w
  3631     0296  3E82               	addlw	130
  3632     0297  00C6               	movwf	___flmul@temp^(0+128)
  3633     0298  0837               	movf	(??___flmul+1)^(0+128),w
  3634     0299  1803               	skipnc
  3635     029A  3E01               	addlw	1
  3636     029B  3EFF               	addlw	255
  3637     029C  00C7               	movwf	(___flmul@temp+1)^(0+128)
  3638     029D  2ABB               	goto	l2262
  3639     029E                     l2252:
  3640     029E  3001               	movlw	1
  3641     029F  00B6               	movwf	??___flmul^(0+128)
  3642     02A0                     u3275:
  3643     02A0  1003               	clrc
  3644     02A1  0DC2               	rlf	___flmul@prod^(0+128),f
  3645     02A2  0DC3               	rlf	(___flmul@prod+1)^(0+128),f
  3646     02A3  0DC4               	rlf	(___flmul@prod+2)^(0+128),f
  3647     02A4  0DC5               	rlf	(___flmul@prod+3)^(0+128),f
  3648     02A5  0BB6               	decfsz	??___flmul^(0+128),f
  3649     02A6  2AA0               	goto	u3275
  3650     02A7                     l2254:
  3651     02A7  1FBF               	btfss	(___flmul@grs+3)^(0+128),7
  3652     02A8  2AAA               	goto	u3281
  3653     02A9  2AAB               	goto	u3280
  3654     02AA                     u3281:
  3655     02AA  2AAC               	goto	l2258
  3656     02AB                     u3280:
  3657     02AB                     l2256:
  3658     02AB  1442               	bsf	___flmul@prod^(0+128),0
  3659     02AC                     l2258:
  3660     02AC  3001               	movlw	1
  3661     02AD  00B6               	movwf	??___flmul^(0+128)
  3662     02AE                     u3295:
  3663     02AE  1003               	clrc
  3664     02AF  0DBC               	rlf	___flmul@grs^(0+128),f
  3665     02B0  0DBD               	rlf	(___flmul@grs+1)^(0+128),f
  3666     02B1  0DBE               	rlf	(___flmul@grs+2)^(0+128),f
  3667     02B2  0DBF               	rlf	(___flmul@grs+3)^(0+128),f
  3668     02B3  0BB6               	decfsz	??___flmul^(0+128),f
  3669     02B4  2AAE               	goto	u3295
  3670     02B5                     l2260:
  3671     02B5  30FF               	movlw	255
  3672     02B6  07C6               	addwf	___flmul@temp^(0+128),f
  3673     02B7  1803               	skipnc
  3674     02B8  0AC7               	incf	(___flmul@temp+1)^(0+128),f
  3675     02B9  30FF               	movlw	255
  3676     02BA  07C7               	addwf	(___flmul@temp+1)^(0+128),f
  3677     02BB                     l2262:
  3678     02BB  1FC4               	btfss	(___flmul@prod+2)^(0+128),7
  3679     02BC  2ABE               	goto	u3301
  3680     02BD  2ABF               	goto	u3300
  3681     02BE                     u3301:
  3682     02BE  2A9E               	goto	l2252
  3683     02BF                     u3300:
  3684     02BF                     l2264:
  3685     02BF  01C0               	clrf	___flmul@aexp^(0+128)
  3686     02C0                     l2266:
  3687     02C0  1FBF               	btfss	(___flmul@grs+3)^(0+128),7
  3688     02C1  2AC3               	goto	u3311
  3689     02C2  2AC4               	goto	u3310
  3690     02C3                     u3311:
  3691     02C3  2AE0               	goto	l2274
  3692     02C4                     u3310:
  3693     02C4                     l2268:
  3694     02C4  30FF               	movlw	255
  3695     02C5  053C               	andwf	___flmul@grs^(0+128),w
  3696     02C6  00B6               	movwf	??___flmul^(0+128)
  3697     02C7  30FF               	movlw	255
  3698     02C8  053D               	andwf	(___flmul@grs+1)^(0+128),w
  3699     02C9  00B7               	movwf	(??___flmul^(0+128)+1)
  3700     02CA  30FF               	movlw	255
  3701     02CB  053E               	andwf	(___flmul@grs+2)^(0+128),w
  3702     02CC  00B8               	movwf	(??___flmul^(0+128)+2)
  3703     02CD  307F               	movlw	127
  3704     02CE  053F               	andwf	(___flmul@grs+3)^(0+128),w
  3705     02CF  00B9               	movwf	(??___flmul^(0+128)+3)
  3706     02D0  0839               	movf	(??___flmul+3)^(0+128),w
  3707     02D1  0438               	iorwf	(??___flmul+2)^(0+128),w
  3708     02D2  0437               	iorwf	(??___flmul+1)^(0+128),w
  3709     02D3  0436               	iorwf	??___flmul^(0+128),w
  3710     02D4  1903               	skipnz
  3711     02D5  2AD7               	goto	u3321
  3712     02D6  2AD8               	goto	u3320
  3713     02D7                     u3321:
  3714     02D7  2ADB               	goto	l621
  3715     02D8                     u3320:
  3716     02D8                     l2270:
  3717     02D8  01C0               	clrf	___flmul@aexp^(0+128)
  3718     02D9  0AC0               	incf	___flmul@aexp^(0+128),f
  3719     02DA  2AE0               	goto	l2274
  3720     02DB                     l621:
  3721     02DB  1C42               	btfss	___flmul@prod^(0+128),0
  3722     02DC  2ADE               	goto	u3331
  3723     02DD  2ADF               	goto	u3330
  3724     02DE                     u3331:
  3725     02DE  2AE0               	goto	l2274
  3726     02DF                     u3330:
  3727     02DF  2AD8               	goto	l2270
  3728     02E0                     l2274:
  3729     02E0  0840               	movf	___flmul@aexp^(0+128),w
  3730     02E1  1903               	btfsc	3,2
  3731     02E2  2AE4               	goto	u3341
  3732     02E3  2AE5               	goto	u3340
  3733     02E4                     u3341:
  3734     02E4  2B16               	goto	l2284
  3735     02E5                     u3340:
  3736     02E5                     l2276:
  3737     02E5  3001               	movlw	1
  3738     02E6  07C2               	addwf	___flmul@prod^(0+128),f
  3739     02E7  3000               	movlw	0
  3740     02E8  1803               	skipnc
  3741     02E9  3001               	movlw	1
  3742     02EA  07C3               	addwf	(___flmul@prod+1)^(0+128),f
  3743     02EB  3000               	movlw	0
  3744     02EC  1803               	skipnc
  3745     02ED  3001               	movlw	1
  3746     02EE  07C4               	addwf	(___flmul@prod+2)^(0+128),f
  3747     02EF  3000               	movlw	0
  3748     02F0  1803               	skipnc
  3749     02F1  3001               	movlw	1
  3750     02F2  07C5               	addwf	(___flmul@prod+3)^(0+128),f
  3751     02F3                     l2278:
  3752     02F3  1C45               	btfss	(___flmul@prod+3)^(0+128),0
  3753     02F4  2AF6               	goto	u3351
  3754     02F5  2AF7               	goto	u3350
  3755     02F6                     u3351:
  3756     02F6  2B16               	goto	l2284
  3757     02F7                     u3350:
  3758     02F7                     l2280:
  3759     02F7  0842               	movf	___flmul@prod^(0+128),w
  3760     02F8  00B6               	movwf	??___flmul^(0+128)
  3761     02F9  0843               	movf	(___flmul@prod+1)^(0+128),w
  3762     02FA  00B7               	movwf	(??___flmul^(0+128)+1)
  3763     02FB  0844               	movf	(___flmul@prod+2)^(0+128),w
  3764     02FC  00B8               	movwf	(??___flmul^(0+128)+2)
  3765     02FD  0845               	movf	(___flmul@prod+3)^(0+128),w
  3766     02FE  00B9               	movwf	(??___flmul^(0+128)+3)
  3767     02FF  3001               	movlw	1
  3768     0300  00BA               	movwf	(??___flmul+4)^(0+128)
  3769     0301                     u3365:
  3770     0301  0D39               	rlf	(??___flmul^(0+128)+3),w
  3771     0302  0CB9               	rrf	(??___flmul^(0+128)+3),f
  3772     0303  0CB8               	rrf	(??___flmul^(0+128)+2),f
  3773     0304  0CB7               	rrf	(??___flmul^(0+128)+1),f
  3774     0305  0CB6               	rrf	??___flmul^(0+128),f
  3775     0306                     u3360:
  3776     0306  0BBA               	decfsz	(??___flmul+4)^(0+128),f
  3777     0307  2B01               	goto	u3365
  3778     0308  0839               	movf	(??___flmul+3)^(0+128),w
  3779     0309  00C5               	movwf	(___flmul@prod+3)^(0+128)
  3780     030A  0838               	movf	(??___flmul+2)^(0+128),w
  3781     030B  00C4               	movwf	(___flmul@prod+2)^(0+128)
  3782     030C  0837               	movf	(??___flmul+1)^(0+128),w
  3783     030D  00C3               	movwf	(___flmul@prod+1)^(0+128)
  3784     030E  0836               	movf	??___flmul^(0+128),w
  3785     030F  00C2               	movwf	___flmul@prod^(0+128)
  3786     0310                     l2282:
  3787     0310  3001               	movlw	1
  3788     0311  07C6               	addwf	___flmul@temp^(0+128),f
  3789     0312  1803               	skipnc
  3790     0313  0AC7               	incf	(___flmul@temp+1)^(0+128),f
  3791     0314  3000               	movlw	0
  3792     0315  07C7               	addwf	(___flmul@temp+1)^(0+128),f
  3793     0316                     l2284:
  3794     0316  0847               	movf	(___flmul@temp+1)^(0+128),w
  3795     0317  3A80               	xorlw	128
  3796     0318  00FF               	movwf	btemp+1
  3797     0319  3080               	movlw	128
  3798     031A  027F               	subwf	btemp+1,w
  3799     031B  1D03               	skipz
  3800     031C  2B1F               	goto	u3375
  3801     031D  30FF               	movlw	255
  3802     031E  0246               	subwf	___flmul@temp^(0+128),w
  3803     031F                     u3375:
  3804     031F  1C03               	skipc
  3805     0320  2B22               	goto	u3371
  3806     0321  2B23               	goto	u3370
  3807     0322                     u3371:
  3808     0322  2B2E               	goto	l2288
  3809     0323                     u3370:
  3810     0323                     l2286:
  3811     0323  307F               	movlw	127
  3812     0324  1683               	bsf	3,5	;RP0=1, select bank1
  3813     0325  1303               	bcf	3,6	;RP1=0, select bank1
  3814     0326  00C5               	movwf	(___flmul@prod+3)^(0+128)
  3815     0327  3080               	movlw	128
  3816     0328  00C4               	movwf	(___flmul@prod+2)^(0+128)
  3817     0329  3000               	movlw	0
  3818     032A  00C3               	movwf	(___flmul@prod+1)^(0+128)
  3819     032B  3000               	movlw	0
  3820     032C  00C2               	movwf	___flmul@prod^(0+128)
  3821     032D  2B5F               	goto	l627
  3822     032E                     l2288:
  3823     032E  1683               	bsf	3,5	;RP0=1, select bank1
  3824     032F  1303               	bcf	3,6	;RP1=0, select bank1
  3825     0330  0847               	movf	(___flmul@temp+1)^(0+128),w
  3826     0331  3A80               	xorlw	128
  3827     0332  00FF               	movwf	btemp+1
  3828     0333  3080               	movlw	128
  3829     0334  027F               	subwf	btemp+1,w
  3830     0335  1D03               	skipz
  3831     0336  2B39               	goto	u3385
  3832     0337  3001               	movlw	1
  3833     0338  0246               	subwf	___flmul@temp^(0+128),w
  3834     0339                     u3385:
  3835     0339  1803               	skipnc
  3836     033A  2B3C               	goto	u3381
  3837     033B  2B3D               	goto	u3380
  3838     033C                     u3381:
  3839     033C  2B49               	goto	l2294
  3840     033D                     u3380:
  3841     033D                     l2290:
  3842     033D  3000               	movlw	0
  3843     033E  1683               	bsf	3,5	;RP0=1, select bank1
  3844     033F  1303               	bcf	3,6	;RP1=0, select bank1
  3845     0340  00C5               	movwf	(___flmul@prod+3)^(0+128)
  3846     0341  3000               	movlw	0
  3847     0342  00C4               	movwf	(___flmul@prod+2)^(0+128)
  3848     0343  3000               	movlw	0
  3849     0344  00C3               	movwf	(___flmul@prod+1)^(0+128)
  3850     0345  3000               	movlw	0
  3851     0346  00C2               	movwf	___flmul@prod^(0+128)
  3852     0347                     l2292:
  3853     0347  01BB               	clrf	___flmul@sign^(0+128)
  3854     0348  2B5F               	goto	l627
  3855     0349                     l2294:
  3856     0349  1683               	bsf	3,5	;RP0=1, select bank1
  3857     034A  1303               	bcf	3,6	;RP1=0, select bank1
  3858     034B  0846               	movf	___flmul@temp^(0+128),w
  3859     034C  00C1               	movwf	___flmul@bexp^(0+128)
  3860     034D  30FF               	movlw	255
  3861     034E  05C2               	andwf	___flmul@prod^(0+128),f
  3862     034F  30FF               	movlw	255
  3863     0350  05C3               	andwf	(___flmul@prod+1)^(0+128),f
  3864     0351  307F               	movlw	127
  3865     0352  05C4               	andwf	(___flmul@prod+2)^(0+128),f
  3866     0353  3000               	movlw	0
  3867     0354  05C5               	andwf	(___flmul@prod+3)^(0+128),f
  3868     0355                     l2296:
  3869     0355  1C41               	btfss	___flmul@bexp^(0+128),0
  3870     0356  2B58               	goto	u3391
  3871     0357  2B59               	goto	u3390
  3872     0358                     u3391:
  3873     0358  2B5A               	goto	l2300
  3874     0359                     u3390:
  3875     0359                     l2298:
  3876     0359  17C4               	bsf	(___flmul@prod^(0+128)+2),7
  3877     035A                     l2300:
  3878     035A  0841               	movf	___flmul@bexp^(0+128),w
  3879     035B  00B6               	movwf	??___flmul^(0+128)
  3880     035C  1003               	clrc
  3881     035D  0C36               	rrf	??___flmul^(0+128),w
  3882     035E  00C5               	movwf	(___flmul@prod^(0+128)+3)
  3883     035F                     l627:
  3884     035F  083B               	movf	___flmul@sign^(0+128),w
  3885     0360  00B6               	movwf	??___flmul^(0+128)
  3886     0361  0836               	movf	??___flmul^(0+128),w
  3887     0362  04C5               	iorwf	(___flmul@prod^(0+128)+3),f
  3888     0363                     l2302:
  3889     0363  0845               	movf	(___flmul@prod+3)^(0+128),w
  3890     0364  00B1               	movwf	(?___flmul+3)^(0+128)
  3891     0365  0844               	movf	(___flmul@prod+2)^(0+128),w
  3892     0366  00B0               	movwf	(?___flmul+2)^(0+128)
  3893     0367  0843               	movf	(___flmul@prod+1)^(0+128),w
  3894     0368  00AF               	movwf	(?___flmul+1)^(0+128)
  3895     0369  0842               	movf	___flmul@prod^(0+128),w
  3896     036A  00AE               	movwf	?___flmul^(0+128)
  3897     036B                     l615:
  3898     036B  0008               	return
  3899     036C                     __end_of___flmul:
  3900                           
  3901                           	psect	text8
  3902     07AF                     __ptext8:	
  3903 ;; *************** function __Umul8_16 *****************
  3904 ;; Defined at:
  3905 ;;		line 4 in file "C:\Program Files\Microchip\xc8\v2.40\pic\sources\c90\common\Umul8_16.c"
  3906 ;; Parameters:    Size  Location     Type
  3907 ;;  multiplier      1    wreg     unsigned char 
  3908 ;;  multiplicand    1    0[BANK1 ] unsigned char 
  3909 ;; Auto vars:     Size  Location     Type
  3910 ;;  multiplier      1    8[BANK1 ] unsigned char 
  3911 ;;  word_mpld       2    6[BANK1 ] unsigned int 
  3912 ;;  product         2    4[BANK1 ] unsigned int 
  3913 ;; Return value:  Size  Location     Type
  3914 ;;                  2    0[BANK1 ] unsigned int 
  3915 ;; Registers used:
  3916 ;;		wreg, status,2, status,0
  3917 ;; Tracked objects:
  3918 ;;		On entry : 0/0
  3919 ;;		On exit  : 0/0
  3920 ;;		Unchanged: 0/0
  3921 ;; Data sizes:     COMMON   BANK0   BANK1   BANK3   BANK2
  3922 ;;      Params:         0       0       2       0       0
  3923 ;;      Locals:         0       0       5       0       0
  3924 ;;      Temps:          0       0       2       0       0
  3925 ;;      Totals:         0       0       9       0       0
  3926 ;;Total ram usage:        9 bytes
  3927 ;; Hardware stack levels used: 1
  3928 ;; Hardware stack levels required when called: 3
  3929 ;; This function calls:
  3930 ;;		Nothing
  3931 ;; This function is called by:
  3932 ;;		___flmul
  3933 ;; This function uses a non-reentrant model
  3934 ;;
  3935                           
  3936     07AF                     __Umul8_16:	
  3937                           ;psect for function __Umul8_16
  3938                           
  3939                           
  3940                           ;incstack = 0
  3941                           ; Regs used in __Umul8_16: [wreg+status,2+status,0]
  3942                           ;__Umul8_16@multiplier stored from wreg
  3943     07AF  1683               	bsf	3,5	;RP0=1, select bank1
  3944     07B0  1303               	bcf	3,6	;RP1=0, select bank1
  3945     07B1  00A8               	movwf	__Umul8_16@multiplier^(0+128)
  3946     07B2                     l1898:
  3947     07B2  01A4               	clrf	__Umul8_16@product^(0+128)
  3948     07B3  01A5               	clrf	(__Umul8_16@product+1)^(0+128)
  3949     07B4                     l1900:
  3950     07B4  0820               	movf	__Umul8_16@multiplicand^(0+128),w
  3951     07B5  00A2               	movwf	??__Umul8_16^(0+128)
  3952     07B6  01A3               	clrf	(??__Umul8_16^(0+128)+1)
  3953     07B7  0822               	movf	??__Umul8_16^(0+128),w
  3954     07B8  00A6               	movwf	__Umul8_16@word_mpld^(0+128)
  3955     07B9  0823               	movf	(??__Umul8_16+1)^(0+128),w
  3956     07BA  00A7               	movwf	(__Umul8_16@word_mpld+1)^(0+128)
  3957     07BB                     l1902:
  3958     07BB  1C28               	btfss	__Umul8_16@multiplier^(0+128),0
  3959     07BC  2FBE               	goto	u2571
  3960     07BD  2FBF               	goto	u2570
  3961     07BE                     u2571:
  3962     07BE  2FC5               	goto	l634
  3963     07BF                     u2570:
  3964     07BF                     l1904:
  3965     07BF  0826               	movf	__Umul8_16@word_mpld^(0+128),w
  3966     07C0  07A4               	addwf	__Umul8_16@product^(0+128),f
  3967     07C1  1803               	skipnc
  3968     07C2  0AA5               	incf	(__Umul8_16@product+1)^(0+128),f
  3969     07C3  0827               	movf	(__Umul8_16@word_mpld+1)^(0+128),w
  3970     07C4  07A5               	addwf	(__Umul8_16@product+1)^(0+128),f
  3971     07C5                     l634:
  3972     07C5  3001               	movlw	1
  3973     07C6                     u2585:
  3974     07C6  1003               	clrc
  3975     07C7  0DA6               	rlf	__Umul8_16@word_mpld^(0+128),f
  3976     07C8  0DA7               	rlf	(__Umul8_16@word_mpld+1)^(0+128),f
  3977     07C9  3EFF               	addlw	-1
  3978     07CA  1D03               	skipz
  3979     07CB  2FC6               	goto	u2585
  3980     07CC  1003               	clrc
  3981     07CD  0CA8               	rrf	__Umul8_16@multiplier^(0+128),f
  3982     07CE                     l1906:
  3983     07CE  0828               	movf	__Umul8_16@multiplier^(0+128),w
  3984     07CF  1D03               	btfss	3,2
  3985     07D0  2FD2               	goto	u2591
  3986     07D1  2FD3               	goto	u2590
  3987     07D2                     u2591:
  3988     07D2  2FBB               	goto	l1902
  3989     07D3                     u2590:
  3990     07D3                     l1908:
  3991     07D3  0825               	movf	(__Umul8_16@product+1)^(0+128),w
  3992     07D4  00A1               	movwf	(?__Umul8_16+1)^(0+128)
  3993     07D5  0824               	movf	__Umul8_16@product^(0+128),w
  3994     07D6  00A0               	movwf	?__Umul8_16^(0+128)
  3995     07D7                     l636:
  3996     07D7  0008               	return
  3997     07D8                     __end_of__Umul8_16:
  3998                           
  3999                           	psect	text9
  4000     06B1                     __ptext9:	
  4001 ;; *************** function _isr *****************
  4002 ;; Defined at:
  4003 ;;		line 62 in file "PostLabC02.c"
  4004 ;; Parameters:    Size  Location     Type
  4005 ;;		None
  4006 ;; Auto vars:     Size  Location     Type
  4007 ;;		None
  4008 ;; Return value:  Size  Location     Type
  4009 ;;                  1    wreg      void 
  4010 ;; Registers used:
  4011 ;;		wreg, status,2, status,0, btemp+1, pclath, cstack
  4012 ;; Tracked objects:
  4013 ;;		On entry : 0/0
  4014 ;;		On exit  : 0/0
  4015 ;;		Unchanged: 0/0
  4016 ;; Data sizes:     COMMON   BANK0   BANK1   BANK3   BANK2
  4017 ;;      Params:         0       0       0       0       0
  4018 ;;      Locals:         0       4       0       0       0
  4019 ;;      Temps:          0       7       0       0       0
  4020 ;;      Totals:         0      11       0       0       0
  4021 ;;Total ram usage:       11 bytes
  4022 ;; Hardware stack levels used: 1
  4023 ;; Hardware stack levels required when called: 2
  4024 ;; This function calls:
  4025 ;;		_duty_cicle
  4026 ;;		i1_PWM_duty
  4027 ;;		i1___fldiv
  4028 ;;		i1___flmul
  4029 ;;		i1___xxtofl
  4030 ;; This function is called by:
  4031 ;;		Interrupt level 1
  4032 ;; This function uses a non-reentrant model
  4033 ;;
  4034                           
  4035     06B1                     _isr:	
  4036                           ;psect for function _isr
  4037                           
  4038     06B1                     i1l2546:
  4039                           
  4040                           ;PostLabC02.c: 63:     if (INTCONbits.T0IF){
  4041     06B1  1D0B               	btfss	11,2	;volatile
  4042     06B2  2EB4               	goto	u409_21
  4043     06B3  2EB5               	goto	u409_20
  4044     06B4                     u409_21:
  4045     06B4  2EC3               	goto	i1l2554
  4046     06B5                     u409_20:
  4047     06B5                     i1l2548:
  4048                           
  4049                           ;PostLabC02.c: 64:         duty_cicle(dutyPot);
  4050     06B5  086A               	movf	_dutyPot+1,w
  4051     06B6  00F1               	movwf	duty_cicle@ciclo+1
  4052     06B7  0869               	movf	_dutyPot,w
  4053     06B8  00F0               	movwf	duty_cicle@ciclo
  4054     06B9  120A  158A  2038  120A  118A  	fcall	_duty_cicle
  4055     06BE                     i1l2550:
  4056                           
  4057                           ;PostLabC02.c: 65:         INTCONbits.T0IF = 0;
  4058     06BE  110B               	bcf	11,2	;volatile
  4059     06BF                     i1l2552:
  4060                           
  4061                           ;PostLabC02.c: 66:         TMR0 = 98;
  4062     06BF  3062               	movlw	98
  4063     06C0  1283               	bcf	3,5	;RP0=0, select bank0
  4064     06C1  1303               	bcf	3,6	;RP1=0, select bank0
  4065     06C2  0081               	movwf	1	;volatile
  4066     06C3                     i1l2554:
  4067                           
  4068                           ;PostLabC02.c: 68:     if (PIR1bits.ADIF) {
  4069     06C3  1F0C               	btfss	12,6	;volatile
  4070     06C4  2EC6               	goto	u410_21
  4071     06C5  2EC7               	goto	u410_20
  4072     06C6                     u410_21:
  4073     06C6  2FA6               	goto	i1l107
  4074     06C7                     u410_20:
  4075     06C7                     i1l2556:
  4076                           
  4077                           ;PostLabC02.c: 69:         if (ADCON0bits.CHS == 0b0000){
  4078     06C7  0C1F               	rrf	31,w	;volatile
  4079     06C8  00DC               	movwf	??_isr
  4080     06C9  0C5C               	rrf	??_isr,w
  4081     06CA  390F               	andlw	15
  4082     06CB  3A00               	xorlw	0
  4083     06CC  1D03               	skipz
  4084     06CD  2ECF               	goto	u411_21
  4085     06CE  2ED0               	goto	u411_20
  4086     06CF                     u411_21:
  4087     06CF  2F2A               	goto	i1l2560
  4088     06D0                     u411_20:
  4089     06D0                     i1l2558:
  4090                           
  4091                           ;PostLabC02.c: 70:             PWM_duty(1, 0.0025f*(ADRESH/255.0f));
  4092     06D0  303B               	movlw	59
  4093     06D1  00BD               	movwf	i1___flmul@b+3
  4094     06D2  3023               	movlw	35
  4095     06D3  00BC               	movwf	i1___flmul@b+2
  4096     06D4  30D7               	movlw	215
  4097     06D5  00BB               	movwf	i1___flmul@b+1
  4098     06D6  300A               	movlw	10
  4099     06D7  00BA               	movwf	i1___flmul@b
  4100     06D8  3043               	movlw	67
  4101     06D9  00A3               	movwf	i1___fldiv@a+3
  4102     06DA  307F               	movlw	127
  4103     06DB  00A2               	movwf	i1___fldiv@a+2
  4104     06DC  3000               	movlw	0
  4105     06DD  00A1               	movwf	i1___fldiv@a+1
  4106     06DE  3000               	movlw	0
  4107     06DF  00A0               	movwf	i1___fldiv@a
  4108     06E0  081E               	movf	30,w	;volatile
  4109     06E1  00DC               	movwf	??_isr
  4110     06E2  01DD               	clrf	??_isr+1
  4111     06E3  01DE               	clrf	??_isr+2
  4112     06E4  01DF               	clrf	??_isr+3
  4113     06E5  085F               	movf	??_isr+3,w
  4114     06E6  00F3               	movwf	i1___xxtofl@val+3
  4115     06E7  085E               	movf	??_isr+2,w
  4116     06E8  00F2               	movwf	i1___xxtofl@val+2
  4117     06E9  085D               	movf	??_isr+1,w
  4118     06EA  00F1               	movwf	i1___xxtofl@val+1
  4119     06EB  085C               	movf	??_isr,w
  4120     06EC  00F0               	movwf	i1___xxtofl@val
  4121     06ED  3001               	movlw	1
  4122     06EE  120A  158A  21F7  120A  118A  	fcall	i1___xxtofl
  4123     06F3  0873               	movf	?i1___xxtofl+3,w
  4124     06F4  1283               	bcf	3,5	;RP0=0, select bank0
  4125     06F5  1303               	bcf	3,6	;RP1=0, select bank0
  4126     06F6  00A7               	movwf	i1___fldiv@b+3
  4127     06F7  0872               	movf	?i1___xxtofl+2,w
  4128     06F8  00A6               	movwf	i1___fldiv@b+2
  4129     06F9  0871               	movf	?i1___xxtofl+1,w
  4130     06FA  00A5               	movwf	i1___fldiv@b+1
  4131     06FB  0870               	movf	?i1___xxtofl,w
  4132     06FC  00A4               	movwf	i1___fldiv@b
  4133     06FD  120A  158A  245A  120A  118A  	fcall	i1___fldiv
  4134     0702  1283               	bcf	3,5	;RP0=0, select bank0
  4135     0703  1303               	bcf	3,6	;RP1=0, select bank0
  4136     0704  0823               	movf	?i1___fldiv+3,w
  4137     0705  00C1               	movwf	i1___flmul@a+3
  4138     0706  0822               	movf	?i1___fldiv+2,w
  4139     0707  00C0               	movwf	i1___flmul@a+2
  4140     0708  0821               	movf	?i1___fldiv+1,w
  4141     0709  00BF               	movwf	i1___flmul@a+1
  4142     070A  0820               	movf	?i1___fldiv,w
  4143     070B  00BE               	movwf	i1___flmul@a
  4144     070C  120A  118A  236C  120A  118A  	fcall	i1___flmul
  4145     0711  1283               	bcf	3,5	;RP0=0, select bank0
  4146     0712  1303               	bcf	3,6	;RP1=0, select bank0
  4147     0713  083D               	movf	?i1___flmul+3,w
  4148     0714  00E6               	movwf	_isr$1218+3
  4149     0715  083C               	movf	?i1___flmul+2,w
  4150     0716  00E5               	movwf	_isr$1218+2
  4151     0717  083B               	movf	?i1___flmul+1,w
  4152     0718  00E4               	movwf	_isr$1218+1
  4153     0719  083A               	movf	?i1___flmul,w
  4154     071A  00E3               	movwf	_isr$1218
  4155                           
  4156                           ;PostLabC02.c: 70:             PWM_duty(1, 0.0025f*(ADRESH/255.0f));
  4157     071B  0866               	movf	_isr$1218+3,w
  4158     071C  00D7               	movwf	i1PWM_duty@duty+3
  4159     071D  0865               	movf	_isr$1218+2,w
  4160     071E  00D6               	movwf	i1PWM_duty@duty+2
  4161     071F  0864               	movf	_isr$1218+1,w
  4162     0720  00D5               	movwf	i1PWM_duty@duty+1
  4163     0721  0863               	movf	_isr$1218,w
  4164     0722  00D4               	movwf	i1PWM_duty@duty
  4165     0723  3001               	movlw	1
  4166     0724  160A  118A  2788  120A  118A  	fcall	i1_PWM_duty
  4167                           
  4168                           ;PostLabC02.c: 72:         }
  4169     0729  2FA3               	goto	i1l2568
  4170     072A                     i1l2560:
  4171     072A  0C1F               	rrf	31,w	;volatile
  4172     072B  00DC               	movwf	??_isr
  4173     072C  0C5C               	rrf	??_isr,w
  4174     072D  390F               	andlw	15
  4175     072E  3A04               	xorlw	4
  4176     072F  1D03               	skipz
  4177     0730  2F32               	goto	u412_21
  4178     0731  2F33               	goto	u412_20
  4179     0732                     u412_21:
  4180     0732  2F8D               	goto	i1l2564
  4181     0733                     u412_20:
  4182     0733                     i1l2562:
  4183                           
  4184                           ;PostLabC02.c: 74:             PWM_duty(2, 0.0025f*(ADRESH/255.0f));
  4185     0733  303B               	movlw	59
  4186     0734  00BD               	movwf	i1___flmul@b+3
  4187     0735  3023               	movlw	35
  4188     0736  00BC               	movwf	i1___flmul@b+2
  4189     0737  30D7               	movlw	215
  4190     0738  00BB               	movwf	i1___flmul@b+1
  4191     0739  300A               	movlw	10
  4192     073A  00BA               	movwf	i1___flmul@b
  4193     073B  3043               	movlw	67
  4194     073C  00A3               	movwf	i1___fldiv@a+3
  4195     073D  307F               	movlw	127
  4196     073E  00A2               	movwf	i1___fldiv@a+2
  4197     073F  3000               	movlw	0
  4198     0740  00A1               	movwf	i1___fldiv@a+1
  4199     0741  3000               	movlw	0
  4200     0742  00A0               	movwf	i1___fldiv@a
  4201     0743  081E               	movf	30,w	;volatile
  4202     0744  00DC               	movwf	??_isr
  4203     0745  01DD               	clrf	??_isr+1
  4204     0746  01DE               	clrf	??_isr+2
  4205     0747  01DF               	clrf	??_isr+3
  4206     0748  085F               	movf	??_isr+3,w
  4207     0749  00F3               	movwf	i1___xxtofl@val+3
  4208     074A  085E               	movf	??_isr+2,w
  4209     074B  00F2               	movwf	i1___xxtofl@val+2
  4210     074C  085D               	movf	??_isr+1,w
  4211     074D  00F1               	movwf	i1___xxtofl@val+1
  4212     074E  085C               	movf	??_isr,w
  4213     074F  00F0               	movwf	i1___xxtofl@val
  4214     0750  3001               	movlw	1
  4215     0751  120A  158A  21F7  120A  118A  	fcall	i1___xxtofl
  4216     0756  0873               	movf	?i1___xxtofl+3,w
  4217     0757  1283               	bcf	3,5	;RP0=0, select bank0
  4218     0758  1303               	bcf	3,6	;RP1=0, select bank0
  4219     0759  00A7               	movwf	i1___fldiv@b+3
  4220     075A  0872               	movf	?i1___xxtofl+2,w
  4221     075B  00A6               	movwf	i1___fldiv@b+2
  4222     075C  0871               	movf	?i1___xxtofl+1,w
  4223     075D  00A5               	movwf	i1___fldiv@b+1
  4224     075E  0870               	movf	?i1___xxtofl,w
  4225     075F  00A4               	movwf	i1___fldiv@b
  4226     0760  120A  158A  245A  120A  118A  	fcall	i1___fldiv
  4227     0765  1283               	bcf	3,5	;RP0=0, select bank0
  4228     0766  1303               	bcf	3,6	;RP1=0, select bank0
  4229     0767  0823               	movf	?i1___fldiv+3,w
  4230     0768  00C1               	movwf	i1___flmul@a+3
  4231     0769  0822               	movf	?i1___fldiv+2,w
  4232     076A  00C0               	movwf	i1___flmul@a+2
  4233     076B  0821               	movf	?i1___fldiv+1,w
  4234     076C  00BF               	movwf	i1___flmul@a+1
  4235     076D  0820               	movf	?i1___fldiv,w
  4236     076E  00BE               	movwf	i1___flmul@a
  4237     076F  120A  118A  236C  120A  118A  	fcall	i1___flmul
  4238     0774  1283               	bcf	3,5	;RP0=0, select bank0
  4239     0775  1303               	bcf	3,6	;RP1=0, select bank0
  4240     0776  083D               	movf	?i1___flmul+3,w
  4241     0777  00E6               	movwf	_isr$1218+3
  4242     0778  083C               	movf	?i1___flmul+2,w
  4243     0779  00E5               	movwf	_isr$1218+2
  4244     077A  083B               	movf	?i1___flmul+1,w
  4245     077B  00E4               	movwf	_isr$1218+1
  4246     077C  083A               	movf	?i1___flmul,w
  4247     077D  00E3               	movwf	_isr$1218
  4248                           
  4249                           ;PostLabC02.c: 74:             PWM_duty(2, 0.0025f*(ADRESH/255.0f));
  4250     077E  0866               	movf	_isr$1218+3,w
  4251     077F  00D7               	movwf	i1PWM_duty@duty+3
  4252     0780  0865               	movf	_isr$1218+2,w
  4253     0781  00D6               	movwf	i1PWM_duty@duty+2
  4254     0782  0864               	movf	_isr$1218+1,w
  4255     0783  00D5               	movwf	i1PWM_duty@duty+1
  4256     0784  0863               	movf	_isr$1218,w
  4257     0785  00D4               	movwf	i1PWM_duty@duty
  4258     0786  3002               	movlw	2
  4259     0787  160A  118A  2788  120A  118A  	fcall	i1_PWM_duty
  4260                           
  4261                           ;PostLabC02.c: 76:         }
  4262     078C  2FA3               	goto	i1l2568
  4263     078D                     i1l2564:
  4264     078D  0C1F               	rrf	31,w	;volatile
  4265     078E  00DC               	movwf	??_isr
  4266     078F  0C5C               	rrf	??_isr,w
  4267     0790  390F               	andlw	15
  4268     0791  3A02               	xorlw	2
  4269     0792  1D03               	skipz
  4270     0793  2F95               	goto	u413_21
  4271     0794  2F96               	goto	u413_20
  4272     0795                     u413_21:
  4273     0795  2FA3               	goto	i1l2568
  4274     0796                     u413_20:
  4275     0796                     i1l2566:
  4276                           
  4277                           ;PostLabC02.c: 78:             potenciometro = ADRESH;
  4278     0796  081E               	movf	30,w	;volatile
  4279     0797  00DC               	movwf	??_isr
  4280     0798  01DD               	clrf	??_isr+1
  4281     0799  085C               	movf	??_isr,w
  4282     079A  1683               	bsf	3,5	;RP0=1, select bank3
  4283     079B  1703               	bsf	3,6	;RP1=1, select bank3
  4284     079C  0094               	movwf	_potenciometro^(0+384)
  4285     079D  1283               	bcf	3,5	;RP0=0, select bank0
  4286     079E  1303               	bcf	3,6	;RP1=0, select bank0
  4287     079F  085D               	movf	??_isr+1,w
  4288     07A0  1683               	bsf	3,5	;RP0=1, select bank3
  4289     07A1  1703               	bsf	3,6	;RP1=1, select bank3
  4290     07A2  0095               	movwf	(_potenciometro+1)^(0+384)
  4291     07A3                     i1l2568:
  4292                           
  4293                           ;PostLabC02.c: 81:         PIR1bits.ADIF = 0;
  4294     07A3  1283               	bcf	3,5	;RP0=0, select bank0
  4295     07A4  1303               	bcf	3,6	;RP1=0, select bank0
  4296     07A5  130C               	bcf	12,6	;volatile
  4297     07A6                     i1l107:
  4298     07A6  0862               	movf	??_isr+6,w
  4299     07A7  00FF               	movwf	btemp+1
  4300     07A8  0861               	movf	??_isr+5,w
  4301     07A9  008A               	movwf	10
  4302     07AA  0E60               	swapf	??_isr+4,w
  4303     07AB  0083               	movwf	3
  4304     07AC  0EFE               	swapf	btemp,f
  4305     07AD  0E7E               	swapf	btemp,w
  4306     07AE  0009               	retfie
  4307     07AF                     __end_of_isr:
  4308                           
  4309                           	psect	intentry
  4310     0004                     __pintentry:	
  4311                           ;incstack = 0
  4312                           ; Regs used in _isr: [wreg+status,2+status,0+btemp+1+pclath+cstack]
  4313                           
  4314     0004                     interrupt_function:
  4315     007E                     saved_w	set	btemp
  4316     0004  00FE               	movwf	btemp
  4317     0005  0E03               	swapf	3,w
  4318     0006  1283               	bcf	3,5	;RP0=0, select bank0
  4319     0007  1303               	bcf	3,6	;RP1=0, select bank0
  4320     0008  00E0               	movwf	??_isr+4
  4321     0009  080A               	movf	10,w
  4322     000A  00E1               	movwf	??_isr+5
  4323     000B  087F               	movf	btemp+1,w
  4324     000C  00E2               	movwf	??_isr+6
  4325     000D  120A  118A  2EB1   	ljmp	_isr
  4326                           
  4327                           	psect	text10
  4328     09F7                     __ptext10:	
  4329 ;; *************** function i1___xxtofl *****************
  4330 ;; Defined at:
  4331 ;;		line 10 in file "C:\Program Files\Microchip\xc8\v2.40\pic\sources\c90\common\xxtofl.c"
  4332 ;; Parameters:    Size  Location     Type
  4333 ;;  sign            1    wreg     unsigned char 
  4334 ;;  val             4    0[COMMON] long 
  4335 ;; Auto vars:     Size  Location     Type
  4336 ;;  sign            1    8[COMMON] unsigned char 
  4337 ;;  arg             4   10[COMMON] unsigned long 
  4338 ;;  exp             1    9[COMMON] unsigned char 
  4339 ;; Return value:  Size  Location     Type
  4340 ;;                  4    0[COMMON] unsigned char 
  4341 ;; Registers used:
  4342 ;;		wreg, status,2, status,0
  4343 ;; Tracked objects:
  4344 ;;		On entry : 0/0
  4345 ;;		On exit  : 0/0
  4346 ;;		Unchanged: 0/0
  4347 ;; Data sizes:     COMMON   BANK0   BANK1   BANK3   BANK2
  4348 ;;      Params:         4       0       0       0       0
  4349 ;;      Locals:         6       0       0       0       0
  4350 ;;      Temps:          4       0       0       0       0
  4351 ;;      Totals:        14       0       0       0       0
  4352 ;;Total ram usage:       14 bytes
  4353 ;; Hardware stack levels used: 1
  4354 ;; This function calls:
  4355 ;;		Nothing
  4356 ;; This function is called by:
  4357 ;;		_isr
  4358 ;; This function uses a non-reentrant model
  4359 ;;
  4360                           
  4361     09F7                     i1___xxtofl:	
  4362                           ;psect for function i1___xxtofl
  4363                           
  4364                           
  4365                           ;incstack = 0
  4366                           ; Regs used in i1___xxtofl: [wreg+status,2+status,0]
  4367                           ;i1___xxtofl@sign stored from wreg
  4368     09F7  00F8               	movwf	i1___xxtofl@sign
  4369     09F8                     i1l2502:
  4370     09F8  0878               	movf	i1___xxtofl@sign,w
  4371     09F9  1903               	btfsc	3,2
  4372     09FA  29FC               	goto	u395_21
  4373     09FB  29FD               	goto	u395_20
  4374     09FC                     u395_21:
  4375     09FC  2A11               	goto	i1l2508
  4376     09FD                     u395_20:
  4377     09FD                     i1l2504:
  4378     09FD  1FF3               	btfss	i1___xxtofl@val+3,7
  4379     09FE  2A00               	goto	u396_21
  4380     09FF  2A01               	goto	u396_20
  4381     0A00                     u396_21:
  4382     0A00  2A11               	goto	i1l2508
  4383     0A01                     u396_20:
  4384     0A01                     i1l2506:
  4385     0A01  0970               	comf	i1___xxtofl@val,w
  4386     0A02  00FA               	movwf	i1___xxtofl@arg
  4387     0A03  0971               	comf	i1___xxtofl@val+1,w
  4388     0A04  00FB               	movwf	i1___xxtofl@arg+1
  4389     0A05  0972               	comf	i1___xxtofl@val+2,w
  4390     0A06  00FC               	movwf	i1___xxtofl@arg+2
  4391     0A07  0973               	comf	i1___xxtofl@val+3,w
  4392     0A08  00FD               	movwf	i1___xxtofl@arg+3
  4393     0A09  0AFA               	incf	i1___xxtofl@arg,f
  4394     0A0A  1903               	skipnz
  4395     0A0B  0AFB               	incf	i1___xxtofl@arg+1,f
  4396     0A0C  1903               	skipnz
  4397     0A0D  0AFC               	incf	i1___xxtofl@arg+2,f
  4398     0A0E  1903               	skipnz
  4399     0A0F  0AFD               	incf	i1___xxtofl@arg+3,f
  4400     0A10  2A19               	goto	i1l659
  4401     0A11                     i1l2508:
  4402     0A11  0873               	movf	i1___xxtofl@val+3,w
  4403     0A12  00FD               	movwf	i1___xxtofl@arg+3
  4404     0A13  0872               	movf	i1___xxtofl@val+2,w
  4405     0A14  00FC               	movwf	i1___xxtofl@arg+2
  4406     0A15  0871               	movf	i1___xxtofl@val+1,w
  4407     0A16  00FB               	movwf	i1___xxtofl@arg+1
  4408     0A17  0870               	movf	i1___xxtofl@val,w
  4409     0A18  00FA               	movwf	i1___xxtofl@arg
  4410     0A19                     i1l659:
  4411     0A19  0873               	movf	i1___xxtofl@val+3,w
  4412     0A1A  0472               	iorwf	i1___xxtofl@val+2,w
  4413     0A1B  0471               	iorwf	i1___xxtofl@val+1,w
  4414     0A1C  0470               	iorwf	i1___xxtofl@val,w
  4415     0A1D  1D03               	skipz
  4416     0A1E  2A20               	goto	u397_21
  4417     0A1F  2A21               	goto	u397_20
  4418     0A20                     u397_21:
  4419     0A20  2A2A               	goto	i1l2514
  4420     0A21                     u397_20:
  4421     0A21                     i1l2510:
  4422     0A21  3000               	movlw	0
  4423     0A22  00F3               	movwf	?i1___xxtofl+3
  4424     0A23  3000               	movlw	0
  4425     0A24  00F2               	movwf	?i1___xxtofl+2
  4426     0A25  3000               	movlw	0
  4427     0A26  00F1               	movwf	?i1___xxtofl+1
  4428     0A27  3000               	movlw	0
  4429     0A28  00F0               	movwf	?i1___xxtofl
  4430     0A29  2AAE               	goto	i1l661
  4431     0A2A                     i1l2514:
  4432     0A2A  3096               	movlw	150
  4433     0A2B  00F9               	movwf	i1___xxtofl@exp
  4434     0A2C  2A3A               	goto	i1l2518
  4435     0A2D                     i1l2516:
  4436     0A2D  3001               	movlw	1
  4437     0A2E  00F4               	movwf	??i1___xxtofl
  4438     0A2F  0874               	movf	??i1___xxtofl,w
  4439     0A30  07F9               	addwf	i1___xxtofl@exp,f
  4440     0A31  3001               	movlw	1
  4441     0A32                     u398_25:
  4442     0A32  1003               	clrc
  4443     0A33  0CFD               	rrf	i1___xxtofl@arg+3,f
  4444     0A34  0CFC               	rrf	i1___xxtofl@arg+2,f
  4445     0A35  0CFB               	rrf	i1___xxtofl@arg+1,f
  4446     0A36  0CFA               	rrf	i1___xxtofl@arg,f
  4447     0A37  3EFF               	addlw	-1
  4448     0A38  1D03               	skipz
  4449     0A39  2A32               	goto	u398_25
  4450     0A3A                     i1l2518:
  4451     0A3A  30FE               	movlw	254
  4452     0A3B  057D               	andwf	i1___xxtofl@arg+3,w
  4453     0A3C  1D03               	btfss	3,2
  4454     0A3D  2A3F               	goto	u399_21
  4455     0A3E  2A40               	goto	u399_20
  4456     0A3F                     u399_21:
  4457     0A3F  2A2D               	goto	i1l2516
  4458     0A40                     u399_20:
  4459     0A40  2A5C               	goto	i1l665
  4460     0A41                     i1l2520:
  4461     0A41  3001               	movlw	1
  4462     0A42  00F4               	movwf	??i1___xxtofl
  4463     0A43  0874               	movf	??i1___xxtofl,w
  4464     0A44  07F9               	addwf	i1___xxtofl@exp,f
  4465     0A45                     i1l2522:
  4466     0A45  3001               	movlw	1
  4467     0A46  07FA               	addwf	i1___xxtofl@arg,f
  4468     0A47  3000               	movlw	0
  4469     0A48  1803               	skipnc
  4470     0A49  3001               	movlw	1
  4471     0A4A  07FB               	addwf	i1___xxtofl@arg+1,f
  4472     0A4B  3000               	movlw	0
  4473     0A4C  1803               	skipnc
  4474     0A4D  3001               	movlw	1
  4475     0A4E  07FC               	addwf	i1___xxtofl@arg+2,f
  4476     0A4F  3000               	movlw	0
  4477     0A50  1803               	skipnc
  4478     0A51  3001               	movlw	1
  4479     0A52  07FD               	addwf	i1___xxtofl@arg+3,f
  4480     0A53                     i1l2524:
  4481     0A53  3001               	movlw	1
  4482     0A54                     u400_25:
  4483     0A54  1003               	clrc
  4484     0A55  0CFD               	rrf	i1___xxtofl@arg+3,f
  4485     0A56  0CFC               	rrf	i1___xxtofl@arg+2,f
  4486     0A57  0CFB               	rrf	i1___xxtofl@arg+1,f
  4487     0A58  0CFA               	rrf	i1___xxtofl@arg,f
  4488     0A59  3EFF               	addlw	-1
  4489     0A5A  1D03               	skipz
  4490     0A5B  2A54               	goto	u400_25
  4491     0A5C                     i1l665:
  4492     0A5C  30FF               	movlw	255
  4493     0A5D  057D               	andwf	i1___xxtofl@arg+3,w
  4494     0A5E  1D03               	btfss	3,2
  4495     0A5F  2A61               	goto	u401_21
  4496     0A60  2A62               	goto	u401_20
  4497     0A61                     u401_21:
  4498     0A61  2A41               	goto	i1l2520
  4499     0A62                     u401_20:
  4500     0A62  2A6E               	goto	i1l2528
  4501     0A63                     i1l2526:
  4502     0A63  3001               	movlw	1
  4503     0A64  02F9               	subwf	i1___xxtofl@exp,f
  4504     0A65  3001               	movlw	1
  4505     0A66  00F4               	movwf	??i1___xxtofl
  4506     0A67                     u402_25:
  4507     0A67  1003               	clrc
  4508     0A68  0DFA               	rlf	i1___xxtofl@arg,f
  4509     0A69  0DFB               	rlf	i1___xxtofl@arg+1,f
  4510     0A6A  0DFC               	rlf	i1___xxtofl@arg+2,f
  4511     0A6B  0DFD               	rlf	i1___xxtofl@arg+3,f
  4512     0A6C  0BF4               	decfsz	??i1___xxtofl,f
  4513     0A6D  2A67               	goto	u402_25
  4514     0A6E                     i1l2528:
  4515     0A6E  1BFC               	btfsc	i1___xxtofl@arg+2,7
  4516     0A6F  2A71               	goto	u403_21
  4517     0A70  2A72               	goto	u403_20
  4518     0A71                     u403_21:
  4519     0A71  2A78               	goto	i1l672
  4520     0A72                     u403_20:
  4521     0A72                     i1l2530:
  4522     0A72  3002               	movlw	2
  4523     0A73  0279               	subwf	i1___xxtofl@exp,w
  4524     0A74  1803               	skipnc
  4525     0A75  2A77               	goto	u404_21
  4526     0A76  2A78               	goto	u404_20
  4527     0A77                     u404_21:
  4528     0A77  2A63               	goto	i1l2526
  4529     0A78                     u404_20:
  4530     0A78                     i1l672:
  4531     0A78  1879               	btfsc	i1___xxtofl@exp,0
  4532     0A79  2A7B               	goto	u405_21
  4533     0A7A  2A7C               	goto	u405_20
  4534     0A7B                     u405_21:
  4535     0A7B  2A84               	goto	i1l673
  4536     0A7C                     u405_20:
  4537     0A7C                     i1l2532:
  4538     0A7C  30FF               	movlw	255
  4539     0A7D  05FA               	andwf	i1___xxtofl@arg,f
  4540     0A7E  30FF               	movlw	255
  4541     0A7F  05FB               	andwf	i1___xxtofl@arg+1,f
  4542     0A80  307F               	movlw	127
  4543     0A81  05FC               	andwf	i1___xxtofl@arg+2,f
  4544     0A82  30FF               	movlw	255
  4545     0A83  05FD               	andwf	i1___xxtofl@arg+3,f
  4546     0A84                     i1l673:
  4547     0A84  1003               	clrc
  4548     0A85  0CF9               	rrf	i1___xxtofl@exp,f
  4549     0A86                     i1l2534:
  4550     0A86  0879               	movf	i1___xxtofl@exp,w
  4551     0A87  00F4               	movwf	??i1___xxtofl
  4552     0A88  01F5               	clrf	??i1___xxtofl+1
  4553     0A89  01F6               	clrf	??i1___xxtofl+2
  4554     0A8A  01F7               	clrf	??i1___xxtofl+3
  4555     0A8B  3018               	movlw	24
  4556     0A8C                     u406_25:
  4557     0A8C  1003               	clrc
  4558     0A8D  0DF4               	rlf	??i1___xxtofl,f
  4559     0A8E  0DF5               	rlf	??i1___xxtofl+1,f
  4560     0A8F  0DF6               	rlf	??i1___xxtofl+2,f
  4561     0A90  0DF7               	rlf	??i1___xxtofl+3,f
  4562     0A91                     u406_20:
  4563     0A91  3EFF               	addlw	-1
  4564     0A92  1D03               	skipz
  4565     0A93  2A8C               	goto	u406_25
  4566     0A94  0874               	movf	??i1___xxtofl,w
  4567     0A95  04FA               	iorwf	i1___xxtofl@arg,f
  4568     0A96  0875               	movf	??i1___xxtofl+1,w
  4569     0A97  04FB               	iorwf	i1___xxtofl@arg+1,f
  4570     0A98  0876               	movf	??i1___xxtofl+2,w
  4571     0A99  04FC               	iorwf	i1___xxtofl@arg+2,f
  4572     0A9A  0877               	movf	??i1___xxtofl+3,w
  4573     0A9B  04FD               	iorwf	i1___xxtofl@arg+3,f
  4574     0A9C                     i1l2536:
  4575     0A9C  0878               	movf	i1___xxtofl@sign,w
  4576     0A9D  1903               	btfsc	3,2
  4577     0A9E  2AA0               	goto	u407_21
  4578     0A9F  2AA1               	goto	u407_20
  4579     0AA0                     u407_21:
  4580     0AA0  2AA6               	goto	i1l2542
  4581     0AA1                     u407_20:
  4582     0AA1                     i1l2538:
  4583     0AA1  1FF3               	btfss	i1___xxtofl@val+3,7
  4584     0AA2  2AA4               	goto	u408_21
  4585     0AA3  2AA5               	goto	u408_20
  4586     0AA4                     u408_21:
  4587     0AA4  2AA6               	goto	i1l2542
  4588     0AA5                     u408_20:
  4589     0AA5                     i1l2540:
  4590     0AA5  17FD               	bsf	i1___xxtofl@arg+3,7
  4591     0AA6                     i1l2542:
  4592     0AA6  087D               	movf	i1___xxtofl@arg+3,w
  4593     0AA7  00F3               	movwf	?i1___xxtofl+3
  4594     0AA8  087C               	movf	i1___xxtofl@arg+2,w
  4595     0AA9  00F2               	movwf	?i1___xxtofl+2
  4596     0AAA  087B               	movf	i1___xxtofl@arg+1,w
  4597     0AAB  00F1               	movwf	?i1___xxtofl+1
  4598     0AAC  087A               	movf	i1___xxtofl@arg,w
  4599     0AAD  00F0               	movwf	?i1___xxtofl
  4600     0AAE                     i1l661:
  4601     0AAE  0008               	return
  4602     0AAF                     __end_ofi1___xxtofl:
  4603                           
  4604                           	psect	text11
  4605     036C                     __ptext11:	
  4606 ;; *************** function i1___flmul *****************
  4607 ;; Defined at:
  4608 ;;		line 8 in file "C:\Program Files\Microchip\xc8\v2.40\pic\sources\c90\common\sprcmul.c"
  4609 ;; Parameters:    Size  Location     Type
  4610 ;;  b               4   26[BANK0 ] unsigned char 
  4611 ;;  a               4   30[BANK0 ] unsigned char 
  4612 ;; Auto vars:     Size  Location     Type
  4613 ;;  prod            4   46[BANK0 ] struct .
  4614 ;;  grs             4   40[BANK0 ] unsigned long 
  4615 ;;  temp            2   50[BANK0 ] struct .
  4616 ;;  bexp            1   45[BANK0 ] unsigned char 
  4617 ;;  aexp            1   44[BANK0 ] unsigned char 
  4618 ;;  sign            1   39[BANK0 ] unsigned char 
  4619 ;; Return value:  Size  Location     Type
  4620 ;;                  4   26[BANK0 ] unsigned char 
  4621 ;; Registers used:
  4622 ;;		wreg, status,2, status,0, btemp+1, pclath, cstack
  4623 ;; Tracked objects:
  4624 ;;		On entry : 0/0
  4625 ;;		On exit  : 0/0
  4626 ;;		Unchanged: 0/0
  4627 ;; Data sizes:     COMMON   BANK0   BANK1   BANK3   BANK2
  4628 ;;      Params:         0       8       0       0       0
  4629 ;;      Locals:         0      13       0       0       0
  4630 ;;      Temps:          0       5       0       0       0
  4631 ;;      Totals:         0      26       0       0       0
  4632 ;;Total ram usage:       26 bytes
  4633 ;; Hardware stack levels used: 1
  4634 ;; Hardware stack levels required when called: 1
  4635 ;; This function calls:
  4636 ;;		i1__Umul8_16
  4637 ;; This function is called by:
  4638 ;;		_isr
  4639 ;; This function uses a non-reentrant model
  4640 ;;
  4641                           
  4642     036C                     i1___flmul:	
  4643                           ;psect for function i1___flmul
  4644                           
  4645     036C                     i1l2362:	
  4646                           ;incstack = 0
  4647                           ; Regs used in i1___flmul: [wreg+status,2+status,0+btemp+1+pclath+cstack]
  4648                           
  4649     036C  1283               	bcf	3,5	;RP0=0, select bank0
  4650     036D  1303               	bcf	3,6	;RP1=0, select bank0
  4651     036E  083D               	movf	i1___flmul@b+3,w
  4652     036F  3980               	andlw	128
  4653     0370  00C7               	movwf	i1___flmul@sign
  4654     0371                     i1l2364:
  4655     0371  083D               	movf	i1___flmul@b+3,w
  4656     0372  00C2               	movwf	??i1___flmul
  4657     0373  0742               	addwf	??i1___flmul,w
  4658     0374  00CD               	movwf	i1___flmul@bexp
  4659     0375                     i1l2366:
  4660     0375  1FBC               	btfss	i1___flmul@b+2,7
  4661     0376  2B78               	goto	u358_21
  4662     0377  2B79               	goto	u358_20
  4663     0378                     u358_21:
  4664     0378  2B7A               	goto	i1l2370
  4665     0379                     u358_20:
  4666     0379                     i1l2368:
  4667     0379  144D               	bsf	i1___flmul@bexp,0
  4668     037A                     i1l2370:
  4669     037A  084D               	movf	i1___flmul@bexp,w
  4670     037B  1903               	btfsc	3,2
  4671     037C  2B7E               	goto	u359_21
  4672     037D  2B7F               	goto	u359_20
  4673     037E                     u359_21:
  4674     037E  2B8E               	goto	i1l2378
  4675     037F                     u359_20:
  4676     037F                     i1l2372:
  4677     037F  0A4D               	incf	i1___flmul@bexp,w
  4678     0380  1D03               	btfss	3,2
  4679     0381  2B83               	goto	u360_21
  4680     0382  2B84               	goto	u360_20
  4681     0383                     u360_21:
  4682     0383  2B8C               	goto	i1l2376
  4683     0384                     u360_20:
  4684     0384                     i1l2374:
  4685     0384  3000               	movlw	0
  4686     0385  00BD               	movwf	i1___flmul@b+3
  4687     0386  3000               	movlw	0
  4688     0387  00BC               	movwf	i1___flmul@b+2
  4689     0388  3000               	movlw	0
  4690     0389  00BB               	movwf	i1___flmul@b+1
  4691     038A  3000               	movlw	0
  4692     038B  00BA               	movwf	i1___flmul@b
  4693     038C                     i1l2376:
  4694     038C  17BC               	bsf	i1___flmul@b+2,7
  4695     038D  2B96               	goto	i1l2380
  4696     038E                     i1l2378:
  4697     038E  3000               	movlw	0
  4698     038F  00BD               	movwf	i1___flmul@b+3
  4699     0390  3000               	movlw	0
  4700     0391  00BC               	movwf	i1___flmul@b+2
  4701     0392  3000               	movlw	0
  4702     0393  00BB               	movwf	i1___flmul@b+1
  4703     0394  3000               	movlw	0
  4704     0395  00BA               	movwf	i1___flmul@b
  4705     0396                     i1l2380:
  4706     0396  0841               	movf	i1___flmul@a+3,w
  4707     0397  3980               	andlw	128
  4708     0398  00C2               	movwf	??i1___flmul
  4709     0399  0842               	movf	??i1___flmul,w
  4710     039A  06C7               	xorwf	i1___flmul@sign,f
  4711     039B                     i1l2382:
  4712     039B  0841               	movf	i1___flmul@a+3,w
  4713     039C  00C2               	movwf	??i1___flmul
  4714     039D  0742               	addwf	??i1___flmul,w
  4715     039E  00CC               	movwf	i1___flmul@aexp
  4716     039F                     i1l2384:
  4717     039F  1FC0               	btfss	i1___flmul@a+2,7
  4718     03A0  2BA2               	goto	u361_21
  4719     03A1  2BA3               	goto	u361_20
  4720     03A2                     u361_21:
  4721     03A2  2BA4               	goto	i1l2388
  4722     03A3                     u361_20:
  4723     03A3                     i1l2386:
  4724     03A3  144C               	bsf	i1___flmul@aexp,0
  4725     03A4                     i1l2388:
  4726     03A4  084C               	movf	i1___flmul@aexp,w
  4727     03A5  1903               	btfsc	3,2
  4728     03A6  2BA8               	goto	u362_21
  4729     03A7  2BA9               	goto	u362_20
  4730     03A8                     u362_21:
  4731     03A8  2BB8               	goto	i1l2396
  4732     03A9                     u362_20:
  4733     03A9                     i1l2390:
  4734     03A9  0A4C               	incf	i1___flmul@aexp,w
  4735     03AA  1D03               	btfss	3,2
  4736     03AB  2BAD               	goto	u363_21
  4737     03AC  2BAE               	goto	u363_20
  4738     03AD                     u363_21:
  4739     03AD  2BB6               	goto	i1l2394
  4740     03AE                     u363_20:
  4741     03AE                     i1l2392:
  4742     03AE  3000               	movlw	0
  4743     03AF  00C1               	movwf	i1___flmul@a+3
  4744     03B0  3000               	movlw	0
  4745     03B1  00C0               	movwf	i1___flmul@a+2
  4746     03B2  3000               	movlw	0
  4747     03B3  00BF               	movwf	i1___flmul@a+1
  4748     03B4  3000               	movlw	0
  4749     03B5  00BE               	movwf	i1___flmul@a
  4750     03B6                     i1l2394:
  4751     03B6  17C0               	bsf	i1___flmul@a+2,7
  4752     03B7  2BC0               	goto	i1l2398
  4753     03B8                     i1l2396:
  4754     03B8  3000               	movlw	0
  4755     03B9  00C1               	movwf	i1___flmul@a+3
  4756     03BA  3000               	movlw	0
  4757     03BB  00C0               	movwf	i1___flmul@a+2
  4758     03BC  3000               	movlw	0
  4759     03BD  00BF               	movwf	i1___flmul@a+1
  4760     03BE  3000               	movlw	0
  4761     03BF  00BE               	movwf	i1___flmul@a
  4762     03C0                     i1l2398:
  4763     03C0  084C               	movf	i1___flmul@aexp,w
  4764     03C1  1903               	btfsc	3,2
  4765     03C2  2BC4               	goto	u364_21
  4766     03C3  2BC5               	goto	u364_20
  4767     03C4                     u364_21:
  4768     03C4  2BCA               	goto	i1l2402
  4769     03C5                     u364_20:
  4770     03C5                     i1l2400:
  4771     03C5  084D               	movf	i1___flmul@bexp,w
  4772     03C6  1D03               	btfss	3,2
  4773     03C7  2BC9               	goto	u365_21
  4774     03C8  2BCA               	goto	u365_20
  4775     03C9                     u365_21:
  4776     03C9  2BD3               	goto	i1l2406
  4777     03CA                     u365_20:
  4778     03CA                     i1l2402:
  4779     03CA  3000               	movlw	0
  4780     03CB  00BD               	movwf	?i1___flmul+3
  4781     03CC  3000               	movlw	0
  4782     03CD  00BC               	movwf	?i1___flmul+2
  4783     03CE  3000               	movlw	0
  4784     03CF  00BB               	movwf	?i1___flmul+1
  4785     03D0  3000               	movlw	0
  4786     03D1  00BA               	movwf	?i1___flmul
  4787     03D2  2EB0               	goto	i1l615
  4788     03D3                     i1l2406:
  4789     03D3  083A               	movf	i1___flmul@b,w
  4790     03D4  00F0               	movwf	i1__Umul8_16@multiplicand
  4791     03D5  0840               	movf	i1___flmul@a+2,w
  4792     03D6  120A  118A  27D8  120A  118A  	fcall	i1__Umul8_16
  4793     03DB  0871               	movf	?i1__Umul8_16+1,w
  4794     03DC  1283               	bcf	3,5	;RP0=0, select bank0
  4795     03DD  1303               	bcf	3,6	;RP1=0, select bank0
  4796     03DE  00D3               	movwf	i1___flmul@temp+1
  4797     03DF  0870               	movf	?i1__Umul8_16,w
  4798     03E0  00D2               	movwf	i1___flmul@temp
  4799     03E1                     i1l2408:
  4800     03E1  0852               	movf	i1___flmul@temp,w
  4801     03E2  00C2               	movwf	??i1___flmul
  4802     03E3  01C3               	clrf	??i1___flmul+1
  4803     03E4  01C4               	clrf	??i1___flmul+2
  4804     03E5  01C5               	clrf	??i1___flmul+3
  4805     03E6  0845               	movf	??i1___flmul+3,w
  4806     03E7  00CB               	movwf	i1___flmul@grs+3
  4807     03E8  0844               	movf	??i1___flmul+2,w
  4808     03E9  00CA               	movwf	i1___flmul@grs+2
  4809     03EA  0843               	movf	??i1___flmul+1,w
  4810     03EB  00C9               	movwf	i1___flmul@grs+1
  4811     03EC  0842               	movf	??i1___flmul,w
  4812     03ED  00C8               	movwf	i1___flmul@grs
  4813     03EE                     i1l2410:
  4814     03EE  0853               	movf	i1___flmul@temp+1,w
  4815     03EF  00C2               	movwf	??i1___flmul
  4816     03F0  01C3               	clrf	??i1___flmul+1
  4817     03F1  01C4               	clrf	??i1___flmul+2
  4818     03F2  01C5               	clrf	??i1___flmul+3
  4819     03F3  0845               	movf	??i1___flmul+3,w
  4820     03F4  00D1               	movwf	i1___flmul@prod+3
  4821     03F5  0844               	movf	??i1___flmul+2,w
  4822     03F6  00D0               	movwf	i1___flmul@prod+2
  4823     03F7  0843               	movf	??i1___flmul+1,w
  4824     03F8  00CF               	movwf	i1___flmul@prod+1
  4825     03F9  0842               	movf	??i1___flmul,w
  4826     03FA  00CE               	movwf	i1___flmul@prod
  4827     03FB  083B               	movf	i1___flmul@b+1,w
  4828     03FC  00F0               	movwf	i1__Umul8_16@multiplicand
  4829     03FD  083F               	movf	i1___flmul@a+1,w
  4830     03FE  120A  118A  27D8  120A  118A  	fcall	i1__Umul8_16
  4831     0403  0871               	movf	?i1__Umul8_16+1,w
  4832     0404  1283               	bcf	3,5	;RP0=0, select bank0
  4833     0405  1303               	bcf	3,6	;RP1=0, select bank0
  4834     0406  00D3               	movwf	i1___flmul@temp+1
  4835     0407  0870               	movf	?i1__Umul8_16,w
  4836     0408  00D2               	movwf	i1___flmul@temp
  4837     0409                     i1l2412:
  4838     0409  0852               	movf	i1___flmul@temp,w
  4839     040A  00C2               	movwf	??i1___flmul
  4840     040B  01C3               	clrf	??i1___flmul+1
  4841     040C  01C4               	clrf	??i1___flmul+2
  4842     040D  01C5               	clrf	??i1___flmul+3
  4843     040E  0842               	movf	??i1___flmul,w
  4844     040F  07C8               	addwf	i1___flmul@grs,f
  4845     0410  0843               	movf	??i1___flmul+1,w
  4846     0411  1103               	clrz
  4847     0412  1803               	skipnc
  4848     0413  3E01               	addlw	1
  4849     0414  1903               	skipnz
  4850     0415  2C17               	goto	u366_21
  4851     0416  07C9               	addwf	i1___flmul@grs+1,f
  4852     0417                     u366_21:
  4853     0417  0844               	movf	??i1___flmul+2,w
  4854     0418  1103               	clrz
  4855     0419  1803               	skipnc
  4856     041A  3E01               	addlw	1
  4857     041B  1903               	skipnz
  4858     041C  2C1E               	goto	u366_22
  4859     041D  07CA               	addwf	i1___flmul@grs+2,f
  4860     041E                     u366_22:
  4861     041E  0845               	movf	??i1___flmul+3,w
  4862     041F  1103               	clrz
  4863     0420  1803               	skipnc
  4864     0421  3E01               	addlw	1
  4865     0422  1903               	skipnz
  4866     0423  2C25               	goto	u366_23
  4867     0424  07CB               	addwf	i1___flmul@grs+3,f
  4868     0425                     u366_23:
  4869     0425                     i1l2414:
  4870     0425  0853               	movf	i1___flmul@temp+1,w
  4871     0426  00C2               	movwf	??i1___flmul
  4872     0427  01C3               	clrf	??i1___flmul+1
  4873     0428  01C4               	clrf	??i1___flmul+2
  4874     0429  01C5               	clrf	??i1___flmul+3
  4875     042A  0842               	movf	??i1___flmul,w
  4876     042B  07CE               	addwf	i1___flmul@prod,f
  4877     042C  0843               	movf	??i1___flmul+1,w
  4878     042D  1103               	clrz
  4879     042E  1803               	skipnc
  4880     042F  3E01               	addlw	1
  4881     0430  1903               	skipnz
  4882     0431  2C33               	goto	u367_21
  4883     0432  07CF               	addwf	i1___flmul@prod+1,f
  4884     0433                     u367_21:
  4885     0433  0844               	movf	??i1___flmul+2,w
  4886     0434  1103               	clrz
  4887     0435  1803               	skipnc
  4888     0436  3E01               	addlw	1
  4889     0437  1903               	skipnz
  4890     0438  2C3A               	goto	u367_22
  4891     0439  07D0               	addwf	i1___flmul@prod+2,f
  4892     043A                     u367_22:
  4893     043A  0845               	movf	??i1___flmul+3,w
  4894     043B  1103               	clrz
  4895     043C  1803               	skipnc
  4896     043D  3E01               	addlw	1
  4897     043E  1903               	skipnz
  4898     043F  2C41               	goto	u367_23
  4899     0440  07D1               	addwf	i1___flmul@prod+3,f
  4900     0441                     u367_23:
  4901     0441  083C               	movf	i1___flmul@b+2,w
  4902     0442  00F0               	movwf	i1__Umul8_16@multiplicand
  4903     0443  083E               	movf	i1___flmul@a,w
  4904     0444  120A  118A  27D8  120A  118A  	fcall	i1__Umul8_16
  4905     0449  0871               	movf	?i1__Umul8_16+1,w
  4906     044A  1283               	bcf	3,5	;RP0=0, select bank0
  4907     044B  1303               	bcf	3,6	;RP1=0, select bank0
  4908     044C  00D3               	movwf	i1___flmul@temp+1
  4909     044D  0870               	movf	?i1__Umul8_16,w
  4910     044E  00D2               	movwf	i1___flmul@temp
  4911     044F                     i1l2416:
  4912     044F  0852               	movf	i1___flmul@temp,w
  4913     0450  00C2               	movwf	??i1___flmul
  4914     0451  01C3               	clrf	??i1___flmul+1
  4915     0452  01C4               	clrf	??i1___flmul+2
  4916     0453  01C5               	clrf	??i1___flmul+3
  4917     0454  0842               	movf	??i1___flmul,w
  4918     0455  07C8               	addwf	i1___flmul@grs,f
  4919     0456  0843               	movf	??i1___flmul+1,w
  4920     0457  1103               	clrz
  4921     0458  1803               	skipnc
  4922     0459  3E01               	addlw	1
  4923     045A  1903               	skipnz
  4924     045B  2C5D               	goto	u368_21
  4925     045C  07C9               	addwf	i1___flmul@grs+1,f
  4926     045D                     u368_21:
  4927     045D  0844               	movf	??i1___flmul+2,w
  4928     045E  1103               	clrz
  4929     045F  1803               	skipnc
  4930     0460  3E01               	addlw	1
  4931     0461  1903               	skipnz
  4932     0462  2C64               	goto	u368_22
  4933     0463  07CA               	addwf	i1___flmul@grs+2,f
  4934     0464                     u368_22:
  4935     0464  0845               	movf	??i1___flmul+3,w
  4936     0465  1103               	clrz
  4937     0466  1803               	skipnc
  4938     0467  3E01               	addlw	1
  4939     0468  1903               	skipnz
  4940     0469  2C6B               	goto	u368_23
  4941     046A  07CB               	addwf	i1___flmul@grs+3,f
  4942     046B                     u368_23:
  4943     046B                     i1l2418:
  4944     046B  0853               	movf	i1___flmul@temp+1,w
  4945     046C  00C2               	movwf	??i1___flmul
  4946     046D  01C3               	clrf	??i1___flmul+1
  4947     046E  01C4               	clrf	??i1___flmul+2
  4948     046F  01C5               	clrf	??i1___flmul+3
  4949     0470  0842               	movf	??i1___flmul,w
  4950     0471  07CE               	addwf	i1___flmul@prod,f
  4951     0472  0843               	movf	??i1___flmul+1,w
  4952     0473  1103               	clrz
  4953     0474  1803               	skipnc
  4954     0475  3E01               	addlw	1
  4955     0476  1903               	skipnz
  4956     0477  2C79               	goto	u369_21
  4957     0478  07CF               	addwf	i1___flmul@prod+1,f
  4958     0479                     u369_21:
  4959     0479  0844               	movf	??i1___flmul+2,w
  4960     047A  1103               	clrz
  4961     047B  1803               	skipnc
  4962     047C  3E01               	addlw	1
  4963     047D  1903               	skipnz
  4964     047E  2C80               	goto	u369_22
  4965     047F  07D0               	addwf	i1___flmul@prod+2,f
  4966     0480                     u369_22:
  4967     0480  0845               	movf	??i1___flmul+3,w
  4968     0481  1103               	clrz
  4969     0482  1803               	skipnc
  4970     0483  3E01               	addlw	1
  4971     0484  1903               	skipnz
  4972     0485  2C87               	goto	u369_23
  4973     0486  07D1               	addwf	i1___flmul@prod+3,f
  4974     0487                     u369_23:
  4975     0487                     i1l2420:
  4976     0487  3008               	movlw	8
  4977     0488  00C2               	movwf	??i1___flmul
  4978     0489                     u370_25:
  4979     0489  1003               	clrc
  4980     048A  0DC8               	rlf	i1___flmul@grs,f
  4981     048B  0DC9               	rlf	i1___flmul@grs+1,f
  4982     048C  0DCA               	rlf	i1___flmul@grs+2,f
  4983     048D  0DCB               	rlf	i1___flmul@grs+3,f
  4984     048E  0BC2               	decfsz	??i1___flmul,f
  4985     048F  2C89               	goto	u370_25
  4986     0490                     i1l2422:
  4987     0490  083B               	movf	i1___flmul@b+1,w
  4988     0491  00F0               	movwf	i1__Umul8_16@multiplicand
  4989     0492  083E               	movf	i1___flmul@a,w
  4990     0493  120A  118A  27D8  120A  118A  	fcall	i1__Umul8_16
  4991     0498  0871               	movf	?i1__Umul8_16+1,w
  4992     0499  1283               	bcf	3,5	;RP0=0, select bank0
  4993     049A  1303               	bcf	3,6	;RP1=0, select bank0
  4994     049B  00D3               	movwf	i1___flmul@temp+1
  4995     049C  0870               	movf	?i1__Umul8_16,w
  4996     049D  00D2               	movwf	i1___flmul@temp
  4997     049E                     i1l2424:
  4998     049E  0852               	movf	i1___flmul@temp,w
  4999     049F  00C2               	movwf	??i1___flmul
  5000     04A0  0853               	movf	i1___flmul@temp+1,w
  5001     04A1  00C3               	movwf	??i1___flmul+1
  5002     04A2  01C4               	clrf	??i1___flmul+2
  5003     04A3  01C5               	clrf	??i1___flmul+3
  5004     04A4  0842               	movf	??i1___flmul,w
  5005     04A5  07C8               	addwf	i1___flmul@grs,f
  5006     04A6  0843               	movf	??i1___flmul+1,w
  5007     04A7  1103               	clrz
  5008     04A8  1803               	skipnc
  5009     04A9  3E01               	addlw	1
  5010     04AA  1903               	skipnz
  5011     04AB  2CAD               	goto	u371_21
  5012     04AC  07C9               	addwf	i1___flmul@grs+1,f
  5013     04AD                     u371_21:
  5014     04AD  0844               	movf	??i1___flmul+2,w
  5015     04AE  1103               	clrz
  5016     04AF  1803               	skipnc
  5017     04B0  3E01               	addlw	1
  5018     04B1  1903               	skipnz
  5019     04B2  2CB4               	goto	u371_22
  5020     04B3  07CA               	addwf	i1___flmul@grs+2,f
  5021     04B4                     u371_22:
  5022     04B4  0845               	movf	??i1___flmul+3,w
  5023     04B5  1103               	clrz
  5024     04B6  1803               	skipnc
  5025     04B7  3E01               	addlw	1
  5026     04B8  1903               	skipnz
  5027     04B9  2CBB               	goto	u371_23
  5028     04BA  07CB               	addwf	i1___flmul@grs+3,f
  5029     04BB                     u371_23:
  5030     04BB                     i1l2426:
  5031     04BB  083A               	movf	i1___flmul@b,w
  5032     04BC  00F0               	movwf	i1__Umul8_16@multiplicand
  5033     04BD  083F               	movf	i1___flmul@a+1,w
  5034     04BE  120A  118A  27D8  120A  118A  	fcall	i1__Umul8_16
  5035     04C3  0871               	movf	?i1__Umul8_16+1,w
  5036     04C4  1283               	bcf	3,5	;RP0=0, select bank0
  5037     04C5  1303               	bcf	3,6	;RP1=0, select bank0
  5038     04C6  00D3               	movwf	i1___flmul@temp+1
  5039     04C7  0870               	movf	?i1__Umul8_16,w
  5040     04C8  00D2               	movwf	i1___flmul@temp
  5041     04C9                     i1l2428:
  5042     04C9  0852               	movf	i1___flmul@temp,w
  5043     04CA  00C2               	movwf	??i1___flmul
  5044     04CB  0853               	movf	i1___flmul@temp+1,w
  5045     04CC  00C3               	movwf	??i1___flmul+1
  5046     04CD  01C4               	clrf	??i1___flmul+2
  5047     04CE  01C5               	clrf	??i1___flmul+3
  5048     04CF  0842               	movf	??i1___flmul,w
  5049     04D0  07C8               	addwf	i1___flmul@grs,f
  5050     04D1  0843               	movf	??i1___flmul+1,w
  5051     04D2  1103               	clrz
  5052     04D3  1803               	skipnc
  5053     04D4  3E01               	addlw	1
  5054     04D5  1903               	skipnz
  5055     04D6  2CD8               	goto	u372_21
  5056     04D7  07C9               	addwf	i1___flmul@grs+1,f
  5057     04D8                     u372_21:
  5058     04D8  0844               	movf	??i1___flmul+2,w
  5059     04D9  1103               	clrz
  5060     04DA  1803               	skipnc
  5061     04DB  3E01               	addlw	1
  5062     04DC  1903               	skipnz
  5063     04DD  2CDF               	goto	u372_22
  5064     04DE  07CA               	addwf	i1___flmul@grs+2,f
  5065     04DF                     u372_22:
  5066     04DF  0845               	movf	??i1___flmul+3,w
  5067     04E0  1103               	clrz
  5068     04E1  1803               	skipnc
  5069     04E2  3E01               	addlw	1
  5070     04E3  1903               	skipnz
  5071     04E4  2CE6               	goto	u372_23
  5072     04E5  07CB               	addwf	i1___flmul@grs+3,f
  5073     04E6                     u372_23:
  5074     04E6                     i1l2430:
  5075     04E6  3008               	movlw	8
  5076     04E7  00C2               	movwf	??i1___flmul
  5077     04E8                     u373_25:
  5078     04E8  1003               	clrc
  5079     04E9  0DC8               	rlf	i1___flmul@grs,f
  5080     04EA  0DC9               	rlf	i1___flmul@grs+1,f
  5081     04EB  0DCA               	rlf	i1___flmul@grs+2,f
  5082     04EC  0DCB               	rlf	i1___flmul@grs+3,f
  5083     04ED  0BC2               	decfsz	??i1___flmul,f
  5084     04EE  2CE8               	goto	u373_25
  5085     04EF  083A               	movf	i1___flmul@b,w
  5086     04F0  00F0               	movwf	i1__Umul8_16@multiplicand
  5087     04F1  083E               	movf	i1___flmul@a,w
  5088     04F2  120A  118A  27D8  120A  118A  	fcall	i1__Umul8_16
  5089     04F7  0871               	movf	?i1__Umul8_16+1,w
  5090     04F8  1283               	bcf	3,5	;RP0=0, select bank0
  5091     04F9  1303               	bcf	3,6	;RP1=0, select bank0
  5092     04FA  00D3               	movwf	i1___flmul@temp+1
  5093     04FB  0870               	movf	?i1__Umul8_16,w
  5094     04FC  00D2               	movwf	i1___flmul@temp
  5095     04FD                     i1l2432:
  5096     04FD  0852               	movf	i1___flmul@temp,w
  5097     04FE  00C2               	movwf	??i1___flmul
  5098     04FF  0853               	movf	i1___flmul@temp+1,w
  5099     0500  00C3               	movwf	??i1___flmul+1
  5100     0501  01C4               	clrf	??i1___flmul+2
  5101     0502  01C5               	clrf	??i1___flmul+3
  5102     0503  0842               	movf	??i1___flmul,w
  5103     0504  07C8               	addwf	i1___flmul@grs,f
  5104     0505  0843               	movf	??i1___flmul+1,w
  5105     0506  1103               	clrz
  5106     0507  1803               	skipnc
  5107     0508  3E01               	addlw	1
  5108     0509  1903               	skipnz
  5109     050A  2D0C               	goto	u374_21
  5110     050B  07C9               	addwf	i1___flmul@grs+1,f
  5111     050C                     u374_21:
  5112     050C  0844               	movf	??i1___flmul+2,w
  5113     050D  1103               	clrz
  5114     050E  1803               	skipnc
  5115     050F  3E01               	addlw	1
  5116     0510  1903               	skipnz
  5117     0511  2D13               	goto	u374_22
  5118     0512  07CA               	addwf	i1___flmul@grs+2,f
  5119     0513                     u374_22:
  5120     0513  0845               	movf	??i1___flmul+3,w
  5121     0514  1103               	clrz
  5122     0515  1803               	skipnc
  5123     0516  3E01               	addlw	1
  5124     0517  1903               	skipnz
  5125     0518  2D1A               	goto	u374_23
  5126     0519  07CB               	addwf	i1___flmul@grs+3,f
  5127     051A                     u374_23:
  5128     051A                     i1l2434:
  5129     051A  083B               	movf	i1___flmul@b+1,w
  5130     051B  00F0               	movwf	i1__Umul8_16@multiplicand
  5131     051C  0840               	movf	i1___flmul@a+2,w
  5132     051D  120A  118A  27D8  120A  118A  	fcall	i1__Umul8_16
  5133     0522  0871               	movf	?i1__Umul8_16+1,w
  5134     0523  1283               	bcf	3,5	;RP0=0, select bank0
  5135     0524  1303               	bcf	3,6	;RP1=0, select bank0
  5136     0525  00D3               	movwf	i1___flmul@temp+1
  5137     0526  0870               	movf	?i1__Umul8_16,w
  5138     0527  00D2               	movwf	i1___flmul@temp
  5139     0528  0852               	movf	i1___flmul@temp,w
  5140     0529  00C2               	movwf	??i1___flmul
  5141     052A  0853               	movf	i1___flmul@temp+1,w
  5142     052B  00C3               	movwf	??i1___flmul+1
  5143     052C  01C4               	clrf	??i1___flmul+2
  5144     052D  01C5               	clrf	??i1___flmul+3
  5145     052E  0842               	movf	??i1___flmul,w
  5146     052F  07CE               	addwf	i1___flmul@prod,f
  5147     0530  0843               	movf	??i1___flmul+1,w
  5148     0531  1103               	clrz
  5149     0532  1803               	skipnc
  5150     0533  3E01               	addlw	1
  5151     0534  1903               	skipnz
  5152     0535  2D37               	goto	u375_21
  5153     0536  07CF               	addwf	i1___flmul@prod+1,f
  5154     0537                     u375_21:
  5155     0537  0844               	movf	??i1___flmul+2,w
  5156     0538  1103               	clrz
  5157     0539  1803               	skipnc
  5158     053A  3E01               	addlw	1
  5159     053B  1903               	skipnz
  5160     053C  2D3E               	goto	u375_22
  5161     053D  07D0               	addwf	i1___flmul@prod+2,f
  5162     053E                     u375_22:
  5163     053E  0845               	movf	??i1___flmul+3,w
  5164     053F  1103               	clrz
  5165     0540  1803               	skipnc
  5166     0541  3E01               	addlw	1
  5167     0542  1903               	skipnz
  5168     0543  2D45               	goto	u375_23
  5169     0544  07D1               	addwf	i1___flmul@prod+3,f
  5170     0545                     u375_23:
  5171     0545                     i1l2436:
  5172     0545  083C               	movf	i1___flmul@b+2,w
  5173     0546  00F0               	movwf	i1__Umul8_16@multiplicand
  5174     0547  083F               	movf	i1___flmul@a+1,w
  5175     0548  120A  118A  27D8  120A  118A  	fcall	i1__Umul8_16
  5176     054D  0871               	movf	?i1__Umul8_16+1,w
  5177     054E  1283               	bcf	3,5	;RP0=0, select bank0
  5178     054F  1303               	bcf	3,6	;RP1=0, select bank0
  5179     0550  00D3               	movwf	i1___flmul@temp+1
  5180     0551  0870               	movf	?i1__Umul8_16,w
  5181     0552  00D2               	movwf	i1___flmul@temp
  5182     0553                     i1l2438:
  5183     0553  0852               	movf	i1___flmul@temp,w
  5184     0554  00C2               	movwf	??i1___flmul
  5185     0555  0853               	movf	i1___flmul@temp+1,w
  5186     0556  00C3               	movwf	??i1___flmul+1
  5187     0557  01C4               	clrf	??i1___flmul+2
  5188     0558  01C5               	clrf	??i1___flmul+3
  5189     0559  0842               	movf	??i1___flmul,w
  5190     055A  07CE               	addwf	i1___flmul@prod,f
  5191     055B  0843               	movf	??i1___flmul+1,w
  5192     055C  1103               	clrz
  5193     055D  1803               	skipnc
  5194     055E  3E01               	addlw	1
  5195     055F  1903               	skipnz
  5196     0560  2D62               	goto	u376_21
  5197     0561  07CF               	addwf	i1___flmul@prod+1,f
  5198     0562                     u376_21:
  5199     0562  0844               	movf	??i1___flmul+2,w
  5200     0563  1103               	clrz
  5201     0564  1803               	skipnc
  5202     0565  3E01               	addlw	1
  5203     0566  1903               	skipnz
  5204     0567  2D69               	goto	u376_22
  5205     0568  07D0               	addwf	i1___flmul@prod+2,f
  5206     0569                     u376_22:
  5207     0569  0845               	movf	??i1___flmul+3,w
  5208     056A  1103               	clrz
  5209     056B  1803               	skipnc
  5210     056C  3E01               	addlw	1
  5211     056D  1903               	skipnz
  5212     056E  2D70               	goto	u376_23
  5213     056F  07D1               	addwf	i1___flmul@prod+3,f
  5214     0570                     u376_23:
  5215     0570  083C               	movf	i1___flmul@b+2,w
  5216     0571  00F0               	movwf	i1__Umul8_16@multiplicand
  5217     0572  0840               	movf	i1___flmul@a+2,w
  5218     0573  120A  118A  27D8  120A  118A  	fcall	i1__Umul8_16
  5219     0578  0871               	movf	?i1__Umul8_16+1,w
  5220     0579  1283               	bcf	3,5	;RP0=0, select bank0
  5221     057A  1303               	bcf	3,6	;RP1=0, select bank0
  5222     057B  00D3               	movwf	i1___flmul@temp+1
  5223     057C  0870               	movf	?i1__Umul8_16,w
  5224     057D  00D2               	movwf	i1___flmul@temp
  5225     057E                     i1l2440:
  5226     057E  0852               	movf	i1___flmul@temp,w
  5227     057F  00C2               	movwf	??i1___flmul
  5228     0580  0853               	movf	i1___flmul@temp+1,w
  5229     0581  00C3               	movwf	??i1___flmul+1
  5230     0582  01C4               	clrf	??i1___flmul+2
  5231     0583  01C5               	clrf	??i1___flmul+3
  5232     0584  3008               	movlw	8
  5233     0585                     u377_25:
  5234     0585  1003               	clrc
  5235     0586  0DC2               	rlf	??i1___flmul,f
  5236     0587  0DC3               	rlf	??i1___flmul+1,f
  5237     0588  0DC4               	rlf	??i1___flmul+2,f
  5238     0589  0DC5               	rlf	??i1___flmul+3,f
  5239     058A                     u377_20:
  5240     058A  3EFF               	addlw	-1
  5241     058B  1D03               	skipz
  5242     058C  2D85               	goto	u377_25
  5243     058D  0842               	movf	??i1___flmul,w
  5244     058E  07CE               	addwf	i1___flmul@prod,f
  5245     058F  0843               	movf	??i1___flmul+1,w
  5246     0590  1103               	clrz
  5247     0591  1803               	skipnc
  5248     0592  3E01               	addlw	1
  5249     0593  1903               	skipnz
  5250     0594  2D96               	goto	u378_21
  5251     0595  07CF               	addwf	i1___flmul@prod+1,f
  5252     0596                     u378_21:
  5253     0596  0844               	movf	??i1___flmul+2,w
  5254     0597  1103               	clrz
  5255     0598  1803               	skipnc
  5256     0599  3E01               	addlw	1
  5257     059A  1903               	skipnz
  5258     059B  2D9D               	goto	u378_22
  5259     059C  07D0               	addwf	i1___flmul@prod+2,f
  5260     059D                     u378_22:
  5261     059D  0845               	movf	??i1___flmul+3,w
  5262     059E  1103               	clrz
  5263     059F  1803               	skipnc
  5264     05A0  3E01               	addlw	1
  5265     05A1  1903               	skipnz
  5266     05A2  2DA4               	goto	u378_23
  5267     05A3  07D1               	addwf	i1___flmul@prod+3,f
  5268     05A4                     u378_23:
  5269     05A4                     i1l2442:
  5270     05A4  0848               	movf	i1___flmul@grs,w
  5271     05A5  00C2               	movwf	??i1___flmul
  5272     05A6  0849               	movf	i1___flmul@grs+1,w
  5273     05A7  00C3               	movwf	??i1___flmul+1
  5274     05A8  084A               	movf	i1___flmul@grs+2,w
  5275     05A9  00C4               	movwf	??i1___flmul+2
  5276     05AA  084B               	movf	i1___flmul@grs+3,w
  5277     05AB  00C5               	movwf	??i1___flmul+3
  5278     05AC  3018               	movlw	24
  5279     05AD                     u379_25:
  5280     05AD  1003               	clrc
  5281     05AE  0CC5               	rrf	??i1___flmul+3,f
  5282     05AF  0CC4               	rrf	??i1___flmul+2,f
  5283     05B0  0CC3               	rrf	??i1___flmul+1,f
  5284     05B1  0CC2               	rrf	??i1___flmul,f
  5285     05B2                     u379_20:
  5286     05B2  3EFF               	addlw	-1
  5287     05B3  1D03               	skipz
  5288     05B4  2DAD               	goto	u379_25
  5289     05B5  0842               	movf	??i1___flmul,w
  5290     05B6  07CE               	addwf	i1___flmul@prod,f
  5291     05B7  0843               	movf	??i1___flmul+1,w
  5292     05B8  1103               	clrz
  5293     05B9  1803               	skipnc
  5294     05BA  3E01               	addlw	1
  5295     05BB  1903               	skipnz
  5296     05BC  2DBE               	goto	u380_21
  5297     05BD  07CF               	addwf	i1___flmul@prod+1,f
  5298     05BE                     u380_21:
  5299     05BE  0844               	movf	??i1___flmul+2,w
  5300     05BF  1103               	clrz
  5301     05C0  1803               	skipnc
  5302     05C1  3E01               	addlw	1
  5303     05C2  1903               	skipnz
  5304     05C3  2DC5               	goto	u380_22
  5305     05C4  07D0               	addwf	i1___flmul@prod+2,f
  5306     05C5                     u380_22:
  5307     05C5  0845               	movf	??i1___flmul+3,w
  5308     05C6  1103               	clrz
  5309     05C7  1803               	skipnc
  5310     05C8  3E01               	addlw	1
  5311     05C9  1903               	skipnz
  5312     05CA  2DCC               	goto	u380_23
  5313     05CB  07D1               	addwf	i1___flmul@prod+3,f
  5314     05CC                     u380_23:
  5315     05CC                     i1l2444:
  5316     05CC  3008               	movlw	8
  5317     05CD  00C2               	movwf	??i1___flmul
  5318     05CE                     u381_25:
  5319     05CE  1003               	clrc
  5320     05CF  0DC8               	rlf	i1___flmul@grs,f
  5321     05D0  0DC9               	rlf	i1___flmul@grs+1,f
  5322     05D1  0DCA               	rlf	i1___flmul@grs+2,f
  5323     05D2  0DCB               	rlf	i1___flmul@grs+3,f
  5324     05D3  0BC2               	decfsz	??i1___flmul,f
  5325     05D4  2DCE               	goto	u381_25
  5326     05D5                     i1l2446:
  5327     05D5  084D               	movf	i1___flmul@bexp,w
  5328     05D6  074C               	addwf	i1___flmul@aexp,w
  5329     05D7  00C2               	movwf	??i1___flmul
  5330     05D8  01C3               	clrf	??i1___flmul+1
  5331     05D9  0DC3               	rlf	??i1___flmul+1,f
  5332     05DA  0842               	movf	??i1___flmul,w
  5333     05DB  3E82               	addlw	130
  5334     05DC  00D2               	movwf	i1___flmul@temp
  5335     05DD  0843               	movf	??i1___flmul+1,w
  5336     05DE  1803               	skipnc
  5337     05DF  3E01               	addlw	1
  5338     05E0  3EFF               	addlw	255
  5339     05E1  00D3               	movwf	i1___flmul@temp+1
  5340     05E2  2E00               	goto	i1l2458
  5341     05E3                     i1l2448:
  5342     05E3  3001               	movlw	1
  5343     05E4  00C2               	movwf	??i1___flmul
  5344     05E5                     u382_25:
  5345     05E5  1003               	clrc
  5346     05E6  0DCE               	rlf	i1___flmul@prod,f
  5347     05E7  0DCF               	rlf	i1___flmul@prod+1,f
  5348     05E8  0DD0               	rlf	i1___flmul@prod+2,f
  5349     05E9  0DD1               	rlf	i1___flmul@prod+3,f
  5350     05EA  0BC2               	decfsz	??i1___flmul,f
  5351     05EB  2DE5               	goto	u382_25
  5352     05EC                     i1l2450:
  5353     05EC  1FCB               	btfss	i1___flmul@grs+3,7
  5354     05ED  2DEF               	goto	u383_21
  5355     05EE  2DF0               	goto	u383_20
  5356     05EF                     u383_21:
  5357     05EF  2DF1               	goto	i1l2454
  5358     05F0                     u383_20:
  5359     05F0                     i1l2452:
  5360     05F0  144E               	bsf	i1___flmul@prod,0
  5361     05F1                     i1l2454:
  5362     05F1  3001               	movlw	1
  5363     05F2  00C2               	movwf	??i1___flmul
  5364     05F3                     u384_25:
  5365     05F3  1003               	clrc
  5366     05F4  0DC8               	rlf	i1___flmul@grs,f
  5367     05F5  0DC9               	rlf	i1___flmul@grs+1,f
  5368     05F6  0DCA               	rlf	i1___flmul@grs+2,f
  5369     05F7  0DCB               	rlf	i1___flmul@grs+3,f
  5370     05F8  0BC2               	decfsz	??i1___flmul,f
  5371     05F9  2DF3               	goto	u384_25
  5372     05FA                     i1l2456:
  5373     05FA  30FF               	movlw	255
  5374     05FB  07D2               	addwf	i1___flmul@temp,f
  5375     05FC  1803               	skipnc
  5376     05FD  0AD3               	incf	i1___flmul@temp+1,f
  5377     05FE  30FF               	movlw	255
  5378     05FF  07D3               	addwf	i1___flmul@temp+1,f
  5379     0600                     i1l2458:
  5380     0600  1FD0               	btfss	i1___flmul@prod+2,7
  5381     0601  2E03               	goto	u385_21
  5382     0602  2E04               	goto	u385_20
  5383     0603                     u385_21:
  5384     0603  2DE3               	goto	i1l2448
  5385     0604                     u385_20:
  5386     0604                     i1l2460:
  5387     0604  01CC               	clrf	i1___flmul@aexp
  5388     0605                     i1l2462:
  5389     0605  1FCB               	btfss	i1___flmul@grs+3,7
  5390     0606  2E08               	goto	u386_21
  5391     0607  2E09               	goto	u386_20
  5392     0608                     u386_21:
  5393     0608  2E25               	goto	i1l2470
  5394     0609                     u386_20:
  5395     0609                     i1l2464:
  5396     0609  30FF               	movlw	255
  5397     060A  0548               	andwf	i1___flmul@grs,w
  5398     060B  00C2               	movwf	??i1___flmul
  5399     060C  30FF               	movlw	255
  5400     060D  0549               	andwf	i1___flmul@grs+1,w
  5401     060E  00C3               	movwf	??i1___flmul+1
  5402     060F  30FF               	movlw	255
  5403     0610  054A               	andwf	i1___flmul@grs+2,w
  5404     0611  00C4               	movwf	??i1___flmul+2
  5405     0612  307F               	movlw	127
  5406     0613  054B               	andwf	i1___flmul@grs+3,w
  5407     0614  00C5               	movwf	??i1___flmul+3
  5408     0615  0845               	movf	??i1___flmul+3,w
  5409     0616  0444               	iorwf	??i1___flmul+2,w
  5410     0617  0443               	iorwf	??i1___flmul+1,w
  5411     0618  0442               	iorwf	??i1___flmul,w
  5412     0619  1903               	skipnz
  5413     061A  2E1C               	goto	u387_21
  5414     061B  2E1D               	goto	u387_20
  5415     061C                     u387_21:
  5416     061C  2E20               	goto	i1l621
  5417     061D                     u387_20:
  5418     061D                     i1l2466:
  5419     061D  01CC               	clrf	i1___flmul@aexp
  5420     061E  0ACC               	incf	i1___flmul@aexp,f
  5421     061F  2E25               	goto	i1l2470
  5422     0620                     i1l621:
  5423     0620  1C4E               	btfss	i1___flmul@prod,0
  5424     0621  2E23               	goto	u388_21
  5425     0622  2E24               	goto	u388_20
  5426     0623                     u388_21:
  5427     0623  2E25               	goto	i1l2470
  5428     0624                     u388_20:
  5429     0624  2E1D               	goto	i1l2466
  5430     0625                     i1l2470:
  5431     0625  084C               	movf	i1___flmul@aexp,w
  5432     0626  1903               	btfsc	3,2
  5433     0627  2E29               	goto	u389_21
  5434     0628  2E2A               	goto	u389_20
  5435     0629                     u389_21:
  5436     0629  2E5B               	goto	i1l2480
  5437     062A                     u389_20:
  5438     062A                     i1l2472:
  5439     062A  3001               	movlw	1
  5440     062B  07CE               	addwf	i1___flmul@prod,f
  5441     062C  3000               	movlw	0
  5442     062D  1803               	skipnc
  5443     062E  3001               	movlw	1
  5444     062F  07CF               	addwf	i1___flmul@prod+1,f
  5445     0630  3000               	movlw	0
  5446     0631  1803               	skipnc
  5447     0632  3001               	movlw	1
  5448     0633  07D0               	addwf	i1___flmul@prod+2,f
  5449     0634  3000               	movlw	0
  5450     0635  1803               	skipnc
  5451     0636  3001               	movlw	1
  5452     0637  07D1               	addwf	i1___flmul@prod+3,f
  5453     0638                     i1l2474:
  5454     0638  1C51               	btfss	i1___flmul@prod+3,0
  5455     0639  2E3B               	goto	u390_21
  5456     063A  2E3C               	goto	u390_20
  5457     063B                     u390_21:
  5458     063B  2E5B               	goto	i1l2480
  5459     063C                     u390_20:
  5460     063C                     i1l2476:
  5461     063C  084E               	movf	i1___flmul@prod,w
  5462     063D  00C2               	movwf	??i1___flmul
  5463     063E  084F               	movf	i1___flmul@prod+1,w
  5464     063F  00C3               	movwf	??i1___flmul+1
  5465     0640  0850               	movf	i1___flmul@prod+2,w
  5466     0641  00C4               	movwf	??i1___flmul+2
  5467     0642  0851               	movf	i1___flmul@prod+3,w
  5468     0643  00C5               	movwf	??i1___flmul+3
  5469     0644  3001               	movlw	1
  5470     0645  00C6               	movwf	??i1___flmul+4
  5471     0646                     u391_25:
  5472     0646  0D45               	rlf	??i1___flmul+3,w
  5473     0647  0CC5               	rrf	??i1___flmul+3,f
  5474     0648  0CC4               	rrf	??i1___flmul+2,f
  5475     0649  0CC3               	rrf	??i1___flmul+1,f
  5476     064A  0CC2               	rrf	??i1___flmul,f
  5477     064B                     u391_20:
  5478     064B  0BC6               	decfsz	??i1___flmul+4,f
  5479     064C  2E46               	goto	u391_25
  5480     064D  0845               	movf	??i1___flmul+3,w
  5481     064E  00D1               	movwf	i1___flmul@prod+3
  5482     064F  0844               	movf	??i1___flmul+2,w
  5483     0650  00D0               	movwf	i1___flmul@prod+2
  5484     0651  0843               	movf	??i1___flmul+1,w
  5485     0652  00CF               	movwf	i1___flmul@prod+1
  5486     0653  0842               	movf	??i1___flmul,w
  5487     0654  00CE               	movwf	i1___flmul@prod
  5488     0655                     i1l2478:
  5489     0655  3001               	movlw	1
  5490     0656  07D2               	addwf	i1___flmul@temp,f
  5491     0657  1803               	skipnc
  5492     0658  0AD3               	incf	i1___flmul@temp+1,f
  5493     0659  3000               	movlw	0
  5494     065A  07D3               	addwf	i1___flmul@temp+1,f
  5495     065B                     i1l2480:
  5496     065B  0853               	movf	i1___flmul@temp+1,w
  5497     065C  3A80               	xorlw	128
  5498     065D  00FF               	movwf	btemp+1
  5499     065E  3080               	movlw	128
  5500     065F  027F               	subwf	btemp+1,w
  5501     0660  1D03               	skipz
  5502     0661  2E64               	goto	u392_25
  5503     0662  30FF               	movlw	255
  5504     0663  0252               	subwf	i1___flmul@temp,w
  5505     0664                     u392_25:
  5506     0664  1C03               	skipc
  5507     0665  2E67               	goto	u392_21
  5508     0666  2E68               	goto	u392_20
  5509     0667                     u392_21:
  5510     0667  2E73               	goto	i1l2484
  5511     0668                     u392_20:
  5512     0668                     i1l2482:
  5513     0668  307F               	movlw	127
  5514     0669  1283               	bcf	3,5	;RP0=0, select bank0
  5515     066A  1303               	bcf	3,6	;RP1=0, select bank0
  5516     066B  00D1               	movwf	i1___flmul@prod+3
  5517     066C  3080               	movlw	128
  5518     066D  00D0               	movwf	i1___flmul@prod+2
  5519     066E  3000               	movlw	0
  5520     066F  00CF               	movwf	i1___flmul@prod+1
  5521     0670  3000               	movlw	0
  5522     0671  00CE               	movwf	i1___flmul@prod
  5523     0672  2EA4               	goto	i1l627
  5524     0673                     i1l2484:
  5525     0673  1283               	bcf	3,5	;RP0=0, select bank0
  5526     0674  1303               	bcf	3,6	;RP1=0, select bank0
  5527     0675  0853               	movf	i1___flmul@temp+1,w
  5528     0676  3A80               	xorlw	128
  5529     0677  00FF               	movwf	btemp+1
  5530     0678  3080               	movlw	128
  5531     0679  027F               	subwf	btemp+1,w
  5532     067A  1D03               	skipz
  5533     067B  2E7E               	goto	u393_25
  5534     067C  3001               	movlw	1
  5535     067D  0252               	subwf	i1___flmul@temp,w
  5536     067E                     u393_25:
  5537     067E  1803               	skipnc
  5538     067F  2E81               	goto	u393_21
  5539     0680  2E82               	goto	u393_20
  5540     0681                     u393_21:
  5541     0681  2E8E               	goto	i1l2490
  5542     0682                     u393_20:
  5543     0682                     i1l2486:
  5544     0682  3000               	movlw	0
  5545     0683  1283               	bcf	3,5	;RP0=0, select bank0
  5546     0684  1303               	bcf	3,6	;RP1=0, select bank0
  5547     0685  00D1               	movwf	i1___flmul@prod+3
  5548     0686  3000               	movlw	0
  5549     0687  00D0               	movwf	i1___flmul@prod+2
  5550     0688  3000               	movlw	0
  5551     0689  00CF               	movwf	i1___flmul@prod+1
  5552     068A  3000               	movlw	0
  5553     068B  00CE               	movwf	i1___flmul@prod
  5554     068C                     i1l2488:
  5555     068C  01C7               	clrf	i1___flmul@sign
  5556     068D  2EA4               	goto	i1l627
  5557     068E                     i1l2490:
  5558     068E  1283               	bcf	3,5	;RP0=0, select bank0
  5559     068F  1303               	bcf	3,6	;RP1=0, select bank0
  5560     0690  0852               	movf	i1___flmul@temp,w
  5561     0691  00CD               	movwf	i1___flmul@bexp
  5562     0692  30FF               	movlw	255
  5563     0693  05CE               	andwf	i1___flmul@prod,f
  5564     0694  30FF               	movlw	255
  5565     0695  05CF               	andwf	i1___flmul@prod+1,f
  5566     0696  307F               	movlw	127
  5567     0697  05D0               	andwf	i1___flmul@prod+2,f
  5568     0698  3000               	movlw	0
  5569     0699  05D1               	andwf	i1___flmul@prod+3,f
  5570     069A                     i1l2492:
  5571     069A  1C4D               	btfss	i1___flmul@bexp,0
  5572     069B  2E9D               	goto	u394_21
  5573     069C  2E9E               	goto	u394_20
  5574     069D                     u394_21:
  5575     069D  2E9F               	goto	i1l2496
  5576     069E                     u394_20:
  5577     069E                     i1l2494:
  5578     069E  17D0               	bsf	i1___flmul@prod+2,7
  5579     069F                     i1l2496:
  5580     069F  084D               	movf	i1___flmul@bexp,w
  5581     06A0  00C2               	movwf	??i1___flmul
  5582     06A1  1003               	clrc
  5583     06A2  0C42               	rrf	??i1___flmul,w
  5584     06A3  00D1               	movwf	i1___flmul@prod+3
  5585     06A4                     i1l627:
  5586     06A4  0847               	movf	i1___flmul@sign,w
  5587     06A5  00C2               	movwf	??i1___flmul
  5588     06A6  0842               	movf	??i1___flmul,w
  5589     06A7  04D1               	iorwf	i1___flmul@prod+3,f
  5590     06A8                     i1l2498:
  5591     06A8  0851               	movf	i1___flmul@prod+3,w
  5592     06A9  00BD               	movwf	?i1___flmul+3
  5593     06AA  0850               	movf	i1___flmul@prod+2,w
  5594     06AB  00BC               	movwf	?i1___flmul+2
  5595     06AC  084F               	movf	i1___flmul@prod+1,w
  5596     06AD  00BB               	movwf	?i1___flmul+1
  5597     06AE  084E               	movf	i1___flmul@prod,w
  5598     06AF  00BA               	movwf	?i1___flmul
  5599     06B0                     i1l615:
  5600     06B0  0008               	return
  5601     06B1                     __end_ofi1___flmul:
  5602                           
  5603                           	psect	text12
  5604     07D8                     __ptext12:	
  5605 ;; *************** function i1__Umul8_16 *****************
  5606 ;; Defined at:
  5607 ;;		line 4 in file "C:\Program Files\Microchip\xc8\v2.40\pic\sources\c90\common\Umul8_16.c"
  5608 ;; Parameters:    Size  Location     Type
  5609 ;;  multiplier      1    wreg     unsigned char 
  5610 ;;  multiplicand    1    0[COMMON] unsigned char 
  5611 ;; Auto vars:     Size  Location     Type
  5612 ;;  multiplier      1    8[COMMON] unsigned char 
  5613 ;;  word_mpld       2    6[COMMON] unsigned int 
  5614 ;;  product         2    4[COMMON] unsigned int 
  5615 ;; Return value:  Size  Location     Type
  5616 ;;                  2    0[COMMON] unsigned int 
  5617 ;; Registers used:
  5618 ;;		wreg, status,2, status,0
  5619 ;; Tracked objects:
  5620 ;;		On entry : 0/0
  5621 ;;		On exit  : 0/0
  5622 ;;		Unchanged: 0/0
  5623 ;; Data sizes:     COMMON   BANK0   BANK1   BANK3   BANK2
  5624 ;;      Params:         2       0       0       0       0
  5625 ;;      Locals:         5       0       0       0       0
  5626 ;;      Temps:          2       0       0       0       0
  5627 ;;      Totals:         9       0       0       0       0
  5628 ;;Total ram usage:        9 bytes
  5629 ;; Hardware stack levels used: 1
  5630 ;; This function calls:
  5631 ;;		Nothing
  5632 ;; This function is called by:
  5633 ;;		i1___flmul
  5634 ;; This function uses a non-reentrant model
  5635 ;;
  5636                           
  5637     07D8                     i1__Umul8_16:	
  5638                           ;psect for function i1__Umul8_16
  5639                           
  5640                           
  5641                           ;incstack = 0
  5642                           ; Regs used in i1__Umul8_16: [wreg+status,2+status,0]
  5643                           ;i1__Umul8_16@multiplier stored from wreg
  5644     07D8  00F8               	movwf	i1__Umul8_16@multiplier
  5645     07D9                     i1l2090:
  5646     07D9  01F4               	clrf	i1__Umul8_16@product
  5647     07DA  01F5               	clrf	i1__Umul8_16@product+1
  5648     07DB                     i1l2092:
  5649     07DB  0870               	movf	i1__Umul8_16@multiplicand,w
  5650     07DC  00F2               	movwf	??i1__Umul8_16
  5651     07DD  01F3               	clrf	??i1__Umul8_16+1
  5652     07DE  0872               	movf	??i1__Umul8_16,w
  5653     07DF  00F6               	movwf	i1__Umul8_16@word_mpld
  5654     07E0  0873               	movf	??i1__Umul8_16+1,w
  5655     07E1  00F7               	movwf	i1__Umul8_16@word_mpld+1
  5656     07E2                     i1l2094:
  5657     07E2  1C78               	btfss	i1__Umul8_16@multiplier,0
  5658     07E3  2FE5               	goto	u299_21
  5659     07E4  2FE6               	goto	u299_20
  5660     07E5                     u299_21:
  5661     07E5  2FEC               	goto	i1l634
  5662     07E6                     u299_20:
  5663     07E6                     i1l2096:
  5664     07E6  0876               	movf	i1__Umul8_16@word_mpld,w
  5665     07E7  07F4               	addwf	i1__Umul8_16@product,f
  5666     07E8  1803               	skipnc
  5667     07E9  0AF5               	incf	i1__Umul8_16@product+1,f
  5668     07EA  0877               	movf	i1__Umul8_16@word_mpld+1,w
  5669     07EB  07F5               	addwf	i1__Umul8_16@product+1,f
  5670     07EC                     i1l634:
  5671     07EC  3001               	movlw	1
  5672     07ED                     u300_25:
  5673     07ED  1003               	clrc
  5674     07EE  0DF6               	rlf	i1__Umul8_16@word_mpld,f
  5675     07EF  0DF7               	rlf	i1__Umul8_16@word_mpld+1,f
  5676     07F0  3EFF               	addlw	-1
  5677     07F1  1D03               	skipz
  5678     07F2  2FED               	goto	u300_25
  5679     07F3  1003               	clrc
  5680     07F4  0CF8               	rrf	i1__Umul8_16@multiplier,f
  5681     07F5                     i1l2098:
  5682     07F5  0878               	movf	i1__Umul8_16@multiplier,w
  5683     07F6  1D03               	btfss	3,2
  5684     07F7  2FF9               	goto	u301_21
  5685     07F8  2FFA               	goto	u301_20
  5686     07F9                     u301_21:
  5687     07F9  2FE2               	goto	i1l2094
  5688     07FA                     u301_20:
  5689     07FA                     i1l2100:
  5690     07FA  0875               	movf	i1__Umul8_16@product+1,w
  5691     07FB  00F1               	movwf	?i1__Umul8_16+1
  5692     07FC  0874               	movf	i1__Umul8_16@product,w
  5693     07FD  00F0               	movwf	?i1__Umul8_16
  5694     07FE                     i1l636:
  5695     07FE  0008               	return
  5696     07FF                     __end_ofi1__Umul8_16:
  5697                           
  5698                           	psect	text13
  5699     1788                     __ptext13:	
  5700 ;; *************** function i1_PWM_duty *****************
  5701 ;; Defined at:
  5702 ;;		line 34 in file "PWM_SERVO.c"
  5703 ;; Parameters:    Size  Location     Type
  5704 ;;  canal           1    wreg     unsigned char 
  5705 ;;  duty            4   52[BANK0 ] float 
  5706 ;; Auto vars:     Size  Location     Type
  5707 ;;  canal           1   58[BANK0 ] unsigned char 
  5708 ;;  particion       1   59[BANK0 ] unsigned char 
  5709 ;; Return value:  Size  Location     Type
  5710 ;;                  1    wreg      void 
  5711 ;; Registers used:
  5712 ;;		wreg, status,2, status,0, btemp+1, pclath, cstack
  5713 ;; Tracked objects:
  5714 ;;		On entry : 0/0
  5715 ;;		On exit  : 0/0
  5716 ;;		Unchanged: 0/0
  5717 ;; Data sizes:     COMMON   BANK0   BANK1   BANK3   BANK2
  5718 ;;      Params:         0       4       0       0       0
  5719 ;;      Locals:         0       2       0       0       0
  5720 ;;      Temps:          0       2       0       0       0
  5721 ;;      Totals:         0       8       0       0       0
  5722 ;;Total ram usage:        8 bytes
  5723 ;; Hardware stack levels used: 1
  5724 ;; Hardware stack levels required when called: 1
  5725 ;; This function calls:
  5726 ;;		i1___fldiv
  5727 ;;		i1___fltol
  5728 ;; This function is called by:
  5729 ;;		_isr
  5730 ;; This function uses a non-reentrant model
  5731 ;;
  5732                           
  5733     1788                     i1_PWM_duty:	
  5734                           ;psect for function i1_PWM_duty
  5735                           
  5736                           
  5737                           ;incstack = 0
  5738                           ; Regs used in i1_PWM_duty: [wreg+status,2+status,0+btemp+1+pclath+cstack]
  5739                           ;i1PWM_duty@canal stored from wreg
  5740     1788  1283               	bcf	3,5	;RP0=0, select bank0
  5741     1789  1303               	bcf	3,6	;RP1=0, select bank0
  5742     178A  00DA               	movwf	i1PWM_duty@canal
  5743     178B                     i1l2350:
  5744                           
  5745                           ;PWM_SERVO.c: 35:     char particion = (char)(duty/((1.0f/4000000)*16));
  5746     178B  0857               	movf	i1PWM_duty@duty+3,w
  5747     178C  00A7               	movwf	i1___fldiv@b+3
  5748     178D  0856               	movf	i1PWM_duty@duty+2,w
  5749     178E  00A6               	movwf	i1___fldiv@b+2
  5750     178F  0855               	movf	i1PWM_duty@duty+1,w
  5751     1790  00A5               	movwf	i1___fldiv@b+1
  5752     1791  0854               	movf	i1PWM_duty@duty,w
  5753     1792  00A4               	movwf	i1___fldiv@b
  5754     1793  3036               	movlw	54
  5755     1794  00A3               	movwf	i1___fldiv@a+3
  5756     1795  3086               	movlw	134
  5757     1796  00A2               	movwf	i1___fldiv@a+2
  5758     1797  3037               	movlw	55
  5759     1798  00A1               	movwf	i1___fldiv@a+1
  5760     1799  30BD               	movlw	189
  5761     179A  00A0               	movwf	i1___fldiv@a
  5762     179B  120A  158A  245A  160A  118A  	fcall	i1___fldiv
  5763     17A0  1283               	bcf	3,5	;RP0=0, select bank0
  5764     17A1  1303               	bcf	3,6	;RP1=0, select bank0
  5765     17A2  0823               	movf	?i1___fldiv+3,w
  5766     17A3  00BD               	movwf	i1___fltol@f1+3
  5767     17A4  0822               	movf	?i1___fldiv+2,w
  5768     17A5  00BC               	movwf	i1___fltol@f1+2
  5769     17A6  0821               	movf	?i1___fldiv+1,w
  5770     17A7  00BB               	movwf	i1___fltol@f1+1
  5771     17A8  0820               	movf	?i1___fldiv,w
  5772     17A9  00BA               	movwf	i1___fltol@f1
  5773     17AA  160A  118A  2710  160A  118A  	fcall	i1___fltol
  5774     17AF  1283               	bcf	3,5	;RP0=0, select bank0
  5775     17B0  1303               	bcf	3,6	;RP1=0, select bank0
  5776     17B1  083A               	movf	?i1___fltol,w
  5777     17B2  00DB               	movwf	i1PWM_duty@particion
  5778     17B3                     i1l2352:
  5779                           
  5780                           ;PWM_SERVO.c: 36:     if (canal == 1){
  5781     17B3  035A               	decf	i1PWM_duty@canal,w
  5782     17B4  1D03               	btfss	3,2
  5783     17B5  2FB7               	goto	u354_21
  5784     17B6  2FB8               	goto	u354_20
  5785     17B7                     u354_21:
  5786     17B7  2FD9               	goto	i1l2356
  5787     17B8                     u354_20:
  5788     17B8                     i1l2354:
  5789                           
  5790                           ;PWM_SERVO.c: 37:         CCPR1L = (particion >> 2);
  5791     17B8  085B               	movf	i1PWM_duty@particion,w
  5792     17B9  00D8               	movwf	??i1_PWM_duty
  5793     17BA  3002               	movlw	2
  5794     17BB                     u355_25:
  5795     17BB  1003               	clrc
  5796     17BC  0CD8               	rrf	??i1_PWM_duty,f
  5797     17BD  3EFF               	addlw	-1
  5798     17BE  1D03               	skipz
  5799     17BF  2FBB               	goto	u355_25
  5800     17C0  0858               	movf	??i1_PWM_duty,w
  5801     17C1  0095               	movwf	21	;volatile
  5802                           
  5803                           ;PWM_SERVO.c: 38:         CCP1CONbits.DC1B0 = (particion&(0b1));
  5804     17C2  085B               	movf	i1PWM_duty@particion,w
  5805     17C3  3901               	andlw	1
  5806     17C4  00D8               	movwf	??i1_PWM_duty
  5807     17C5  0ED8               	swapf	??i1_PWM_duty,f
  5808     17C6  0817               	movf	23,w	;volatile
  5809     17C7  0658               	xorwf	??i1_PWM_duty,w
  5810     17C8  39EF               	andlw	-17
  5811     17C9  0658               	xorwf	??i1_PWM_duty,w
  5812     17CA  0097               	movwf	23	;volatile
  5813                           
  5814                           ;PWM_SERVO.c: 39:         CCP1CONbits.DC1B1 = ((particion>>1) &(0b1));
  5815     17CB  085B               	movf	i1PWM_duty@particion,w
  5816     17CC  00D8               	movwf	??i1_PWM_duty
  5817     17CD  1003               	clrc
  5818     17CE  0C58               	rrf	??i1_PWM_duty,w
  5819     17CF  3901               	andlw	1
  5820     17D0  00D9               	movwf	??i1_PWM_duty+1
  5821     17D1  0ED9               	swapf	??i1_PWM_duty+1,f
  5822     17D2  0DD9               	rlf	??i1_PWM_duty+1,f
  5823     17D3  0817               	movf	23,w	;volatile
  5824     17D4  0659               	xorwf	??i1_PWM_duty+1,w
  5825     17D5  39DF               	andlw	-33
  5826     17D6  0659               	xorwf	??i1_PWM_duty+1,w
  5827     17D7  0097               	movwf	23	;volatile
  5828                           
  5829                           ;PWM_SERVO.c: 40:     }
  5830     17D8  2FFF               	goto	i1l33
  5831     17D9                     i1l2356:
  5832     17D9  3002               	movlw	2
  5833     17DA  065A               	xorwf	i1PWM_duty@canal,w
  5834     17DB  1D03               	btfss	3,2
  5835     17DC  2FDE               	goto	u356_21
  5836     17DD  2FDF               	goto	u356_20
  5837     17DE                     u356_21:
  5838     17DE  2FFF               	goto	i1l33
  5839     17DF                     u356_20:
  5840     17DF                     i1l2358:
  5841                           
  5842                           ;PWM_SERVO.c: 42:         CCPR2L = (particion >> 2);
  5843     17DF  085B               	movf	i1PWM_duty@particion,w
  5844     17E0  00D8               	movwf	??i1_PWM_duty
  5845     17E1  3002               	movlw	2
  5846     17E2                     u357_25:
  5847     17E2  1003               	clrc
  5848     17E3  0CD8               	rrf	??i1_PWM_duty,f
  5849     17E4  3EFF               	addlw	-1
  5850     17E5  1D03               	skipz
  5851     17E6  2FE2               	goto	u357_25
  5852     17E7  0858               	movf	??i1_PWM_duty,w
  5853     17E8  009B               	movwf	27	;volatile
  5854                           
  5855                           ;PWM_SERVO.c: 43:         CCP2CONbits.DC2B0 = (particion&(0b1));
  5856     17E9  085B               	movf	i1PWM_duty@particion,w
  5857     17EA  3901               	andlw	1
  5858     17EB  00D8               	movwf	??i1_PWM_duty
  5859     17EC  0ED8               	swapf	??i1_PWM_duty,f
  5860     17ED  081D               	movf	29,w	;volatile
  5861     17EE  0658               	xorwf	??i1_PWM_duty,w
  5862     17EF  39EF               	andlw	-17
  5863     17F0  0658               	xorwf	??i1_PWM_duty,w
  5864     17F1  009D               	movwf	29	;volatile
  5865                           
  5866                           ;PWM_SERVO.c: 44:         CCP2CONbits.DC2B1 = ((particion>>1) &(0b1));
  5867     17F2  085B               	movf	i1PWM_duty@particion,w
  5868     17F3  00D8               	movwf	??i1_PWM_duty
  5869     17F4  1003               	clrc
  5870     17F5  0C58               	rrf	??i1_PWM_duty,w
  5871     17F6  3901               	andlw	1
  5872     17F7  00D9               	movwf	??i1_PWM_duty+1
  5873     17F8  0ED9               	swapf	??i1_PWM_duty+1,f
  5874     17F9  0DD9               	rlf	??i1_PWM_duty+1,f
  5875     17FA  081D               	movf	29,w	;volatile
  5876     17FB  0659               	xorwf	??i1_PWM_duty+1,w
  5877     17FC  39DF               	andlw	-33
  5878     17FD  0659               	xorwf	??i1_PWM_duty+1,w
  5879     17FE  009D               	movwf	29	;volatile
  5880     17FF                     i1l33:
  5881     17FF  0008               	return
  5882     1800                     __end_ofi1_PWM_duty:
  5883                           
  5884                           	psect	text14
  5885     1710                     __ptext14:	
  5886 ;; *************** function i1___fltol *****************
  5887 ;; Defined at:
  5888 ;;		line 43 in file "C:\Program Files\Microchip\xc8\v2.40\pic\sources\c90\common\fltol.c"
  5889 ;; Parameters:    Size  Location     Type
  5890 ;;  f1              4   26[BANK0 ] void 
  5891 ;; Auto vars:     Size  Location     Type
  5892 ;;  exp1            1   35[BANK0 ] unsigned char 
  5893 ;;  sign1           1   34[BANK0 ] unsigned char 
  5894 ;; Return value:  Size  Location     Type
  5895 ;;                  4   26[BANK0 ] long 
  5896 ;; Registers used:
  5897 ;;		wreg, status,2, status,0
  5898 ;; Tracked objects:
  5899 ;;		On entry : 0/0
  5900 ;;		On exit  : 0/0
  5901 ;;		Unchanged: 0/0
  5902 ;; Data sizes:     COMMON   BANK0   BANK1   BANK3   BANK2
  5903 ;;      Params:         0       4       0       0       0
  5904 ;;      Locals:         0       2       0       0       0
  5905 ;;      Temps:          0       4       0       0       0
  5906 ;;      Totals:         0      10       0       0       0
  5907 ;;Total ram usage:       10 bytes
  5908 ;; Hardware stack levels used: 1
  5909 ;; This function calls:
  5910 ;;		Nothing
  5911 ;; This function is called by:
  5912 ;;		i1_PWM_duty
  5913 ;; This function uses a non-reentrant model
  5914 ;;
  5915                           
  5916     1710                     i1___fltol:	
  5917                           ;psect for function i1___fltol
  5918                           
  5919     1710                     i1l1912:	
  5920                           ;incstack = 0
  5921                           ; Regs used in i1___fltol: [wreg+status,2+status,0]
  5922                           
  5923     1710  1003               	clrc
  5924     1711  1283               	bcf	3,5	;RP0=0, select bank0
  5925     1712  1303               	bcf	3,6	;RP1=0, select bank0
  5926     1713  0D3C               	rlf	i1___fltol@f1+2,w
  5927     1714  0D3D               	rlf	i1___fltol@f1+3,w
  5928     1715  00C3               	movwf	i1___fltol@exp1
  5929     1716  0843               	movf	i1___fltol@exp1,w
  5930     1717  1D03               	btfss	3,2
  5931     1718  2F1A               	goto	u260_21
  5932     1719  2F1B               	goto	u260_20
  5933     171A                     u260_21:
  5934     171A  2F24               	goto	i1l1918
  5935     171B                     u260_20:
  5936     171B                     i1l1914:
  5937     171B  3000               	movlw	0
  5938     171C  00BD               	movwf	?i1___fltol+3
  5939     171D  3000               	movlw	0
  5940     171E  00BC               	movwf	?i1___fltol+2
  5941     171F  3000               	movlw	0
  5942     1720  00BB               	movwf	?i1___fltol+1
  5943     1721  3000               	movlw	0
  5944     1722  00BA               	movwf	?i1___fltol
  5945     1723  2F87               	goto	i1l412
  5946     1724                     i1l1918:
  5947     1724  083A               	movf	i1___fltol@f1,w
  5948     1725  00BE               	movwf	??i1___fltol
  5949     1726  083B               	movf	i1___fltol@f1+1,w
  5950     1727  00BF               	movwf	??i1___fltol+1
  5951     1728  083C               	movf	i1___fltol@f1+2,w
  5952     1729  00C0               	movwf	??i1___fltol+2
  5953     172A  083D               	movf	i1___fltol@f1+3,w
  5954     172B  00C1               	movwf	??i1___fltol+3
  5955     172C  301F               	movlw	31
  5956     172D                     u261_25:
  5957     172D  1003               	clrc
  5958     172E  0CC1               	rrf	??i1___fltol+3,f
  5959     172F  0CC0               	rrf	??i1___fltol+2,f
  5960     1730  0CBF               	rrf	??i1___fltol+1,f
  5961     1731  0CBE               	rrf	??i1___fltol,f
  5962     1732                     u261_20:
  5963     1732  3EFF               	addlw	-1
  5964     1733  1D03               	skipz
  5965     1734  2F2D               	goto	u261_25
  5966     1735  083E               	movf	??i1___fltol,w
  5967     1736  00C2               	movwf	i1___fltol@sign1
  5968     1737                     i1l1920:
  5969     1737  17BC               	bsf	i1___fltol@f1+2,7
  5970     1738                     i1l1922:
  5971     1738  30FF               	movlw	255
  5972     1739  05BA               	andwf	i1___fltol@f1,f
  5973     173A  30FF               	movlw	255
  5974     173B  05BB               	andwf	i1___fltol@f1+1,f
  5975     173C  30FF               	movlw	255
  5976     173D  05BC               	andwf	i1___fltol@f1+2,f
  5977     173E  3000               	movlw	0
  5978     173F  05BD               	andwf	i1___fltol@f1+3,f
  5979     1740                     i1l1924:
  5980     1740  3096               	movlw	150
  5981     1741  02C3               	subwf	i1___fltol@exp1,f
  5982     1742                     i1l1926:
  5983     1742  1FC3               	btfss	i1___fltol@exp1,7
  5984     1743  2F45               	goto	u262_21
  5985     1744  2F46               	goto	u262_20
  5986     1745                     u262_21:
  5987     1745  2F60               	goto	i1l1936
  5988     1746                     u262_20:
  5989     1746                     i1l1928:
  5990     1746  0843               	movf	i1___fltol@exp1,w
  5991     1747  3A80               	xorlw	128
  5992     1748  3E97               	addlw	151
  5993     1749  1803               	skipnc
  5994     174A  2F4C               	goto	u263_21
  5995     174B  2F4D               	goto	u263_20
  5996     174C                     u263_21:
  5997     174C  2F4E               	goto	i1l1934
  5998     174D                     u263_20:
  5999     174D  2F1B               	goto	i1l1914
  6000     174E                     i1l1934:
  6001     174E  3001               	movlw	1
  6002     174F                     u264_25:
  6003     174F  1003               	clrc
  6004     1750  0CBD               	rrf	i1___fltol@f1+3,f
  6005     1751  0CBC               	rrf	i1___fltol@f1+2,f
  6006     1752  0CBB               	rrf	i1___fltol@f1+1,f
  6007     1753  0CBA               	rrf	i1___fltol@f1,f
  6008     1754  3EFF               	addlw	-1
  6009     1755  1D03               	skipz
  6010     1756  2F4F               	goto	u264_25
  6011     1757  3001               	movlw	1
  6012     1758  00BE               	movwf	??i1___fltol
  6013     1759  083E               	movf	??i1___fltol,w
  6014     175A  07C3               	addwf	i1___fltol@exp1,f
  6015     175B  1D03               	btfss	3,2
  6016     175C  2F5E               	goto	u265_21
  6017     175D  2F5F               	goto	u265_20
  6018     175E                     u265_21:
  6019     175E  2F4E               	goto	i1l1934
  6020     175F                     u265_20:
  6021     175F  2F77               	goto	i1l1944
  6022     1760                     i1l1936:
  6023     1760  3020               	movlw	32
  6024     1761  0243               	subwf	i1___fltol@exp1,w
  6025     1762  1C03               	skipc
  6026     1763  2F65               	goto	u266_21
  6027     1764  2F66               	goto	u266_20
  6028     1765                     u266_21:
  6029     1765  2F72               	goto	i1l419
  6030     1766                     u266_20:
  6031     1766  2F1B               	goto	i1l1914
  6032     1767                     i1l1942:
  6033     1767  3001               	movlw	1
  6034     1768  00BE               	movwf	??i1___fltol
  6035     1769                     u267_25:
  6036     1769  1003               	clrc
  6037     176A  0DBA               	rlf	i1___fltol@f1,f
  6038     176B  0DBB               	rlf	i1___fltol@f1+1,f
  6039     176C  0DBC               	rlf	i1___fltol@f1+2,f
  6040     176D  0DBD               	rlf	i1___fltol@f1+3,f
  6041     176E  0BBE               	decfsz	??i1___fltol,f
  6042     176F  2F69               	goto	u267_25
  6043     1770  3001               	movlw	1
  6044     1771  02C3               	subwf	i1___fltol@exp1,f
  6045     1772                     i1l419:
  6046     1772  0843               	movf	i1___fltol@exp1,w
  6047     1773  1D03               	btfss	3,2
  6048     1774  2F76               	goto	u268_21
  6049     1775  2F77               	goto	u268_20
  6050     1776                     u268_21:
  6051     1776  2F67               	goto	i1l1942
  6052     1777                     u268_20:
  6053     1777                     i1l1944:
  6054     1777  0842               	movf	i1___fltol@sign1,w
  6055     1778  1903               	btfsc	3,2
  6056     1779  2F7B               	goto	u269_21
  6057     177A  2F7C               	goto	u269_20
  6058     177B                     u269_21:
  6059     177B  2F87               	goto	i1l422
  6060     177C                     u269_20:
  6061     177C                     i1l1946:
  6062     177C  09BA               	comf	i1___fltol@f1,f
  6063     177D  09BB               	comf	i1___fltol@f1+1,f
  6064     177E  09BC               	comf	i1___fltol@f1+2,f
  6065     177F  09BD               	comf	i1___fltol@f1+3,f
  6066     1780  0ABA               	incf	i1___fltol@f1,f
  6067     1781  1903               	skipnz
  6068     1782  0ABB               	incf	i1___fltol@f1+1,f
  6069     1783  1903               	skipnz
  6070     1784  0ABC               	incf	i1___fltol@f1+2,f
  6071     1785  1903               	skipnz
  6072     1786  0ABD               	incf	i1___fltol@f1+3,f
  6073     1787                     i1l422:
  6074     1787                     i1l412:
  6075     1787  0008               	return
  6076     1788                     __end_ofi1___fltol:
  6077                           
  6078                           	psect	text15
  6079     0C5A                     __ptext15:	
  6080 ;; *************** function i1___fldiv *****************
  6081 ;; Defined at:
  6082 ;;		line 8 in file "C:\Program Files\Microchip\xc8\v2.40\pic\sources\c90\common\sprcdiv.c"
  6083 ;; Parameters:    Size  Location     Type
  6084 ;;  a               4    0[BANK0 ] long 
  6085 ;;  b               4    4[BANK0 ] long 
  6086 ;; Auto vars:     Size  Location     Type
  6087 ;;  grs             4   20[BANK0 ] unsigned long 
  6088 ;;  rem             4   13[BANK0 ] unsigned long 
  6089 ;;  new_exp         2   18[BANK0 ] int 
  6090 ;;  aexp            1   25[BANK0 ] unsigned char 
  6091 ;;  bexp            1   24[BANK0 ] unsigned char 
  6092 ;;  sign            1   17[BANK0 ] unsigned char 
  6093 ;; Return value:  Size  Location     Type
  6094 ;;                  4    0[BANK0 ] unsigned char 
  6095 ;; Registers used:
  6096 ;;		wreg, status,2, status,0, btemp+1
  6097 ;; Tracked objects:
  6098 ;;		On entry : 0/0
  6099 ;;		On exit  : 0/0
  6100 ;;		Unchanged: 0/0
  6101 ;; Data sizes:     COMMON   BANK0   BANK1   BANK3   BANK2
  6102 ;;      Params:         0       8       0       0       0
  6103 ;;      Locals:         0      13       0       0       0
  6104 ;;      Temps:          0       5       0       0       0
  6105 ;;      Totals:         0      26       0       0       0
  6106 ;;Total ram usage:       26 bytes
  6107 ;; Hardware stack levels used: 1
  6108 ;; This function calls:
  6109 ;;		Nothing
  6110 ;; This function is called by:
  6111 ;;		_isr
  6112 ;;		i1_PWM_duty
  6113 ;; This function uses a non-reentrant model
  6114 ;;
  6115                           
  6116     0C5A                     i1___fldiv:	
  6117                           ;psect for function i1___fldiv
  6118                           
  6119     0C5A                     i1l1948:	
  6120                           ;incstack = 0
  6121                           ; Regs used in i1___fldiv: [wreg+status,2+status,0+btemp+1]
  6122                           
  6123     0C5A  1283               	bcf	3,5	;RP0=0, select bank0
  6124     0C5B  1303               	bcf	3,6	;RP1=0, select bank0
  6125     0C5C  0827               	movf	i1___fldiv@b+3,w
  6126     0C5D  3980               	andlw	128
  6127     0C5E  00B1               	movwf	i1___fldiv@sign
  6128     0C5F                     i1l1950:
  6129     0C5F  0827               	movf	i1___fldiv@b+3,w
  6130     0C60  00A8               	movwf	??i1___fldiv
  6131     0C61  0728               	addwf	??i1___fldiv,w
  6132     0C62  00B8               	movwf	i1___fldiv@bexp
  6133     0C63                     i1l1952:
  6134     0C63  1FA6               	btfss	i1___fldiv@b+2,7
  6135     0C64  2C66               	goto	u270_21
  6136     0C65  2C67               	goto	u270_20
  6137     0C66                     u270_21:
  6138     0C66  2C68               	goto	i1l1956
  6139     0C67                     u270_20:
  6140     0C67                     i1l1954:
  6141     0C67  1438               	bsf	i1___fldiv@bexp,0
  6142     0C68                     i1l1956:
  6143     0C68  0838               	movf	i1___fldiv@bexp,w
  6144     0C69  1903               	btfsc	3,2
  6145     0C6A  2C6C               	goto	u271_21
  6146     0C6B  2C6D               	goto	u271_20
  6147     0C6C                     u271_21:
  6148     0C6C  2C7D               	goto	i1l1966
  6149     0C6D                     u271_20:
  6150     0C6D                     i1l1958:
  6151     0C6D  0A38               	incf	i1___fldiv@bexp,w
  6152     0C6E  1D03               	btfss	3,2
  6153     0C6F  2C71               	goto	u272_21
  6154     0C70  2C72               	goto	u272_20
  6155     0C71                     u272_21:
  6156     0C71  2C7A               	goto	i1l1962
  6157     0C72                     u272_20:
  6158     0C72                     i1l1960:
  6159     0C72  3000               	movlw	0
  6160     0C73  00A7               	movwf	i1___fldiv@b+3
  6161     0C74  3000               	movlw	0
  6162     0C75  00A6               	movwf	i1___fldiv@b+2
  6163     0C76  3000               	movlw	0
  6164     0C77  00A5               	movwf	i1___fldiv@b+1
  6165     0C78  3000               	movlw	0
  6166     0C79  00A4               	movwf	i1___fldiv@b
  6167     0C7A                     i1l1962:
  6168     0C7A  17A6               	bsf	i1___fldiv@b+2,7
  6169     0C7B                     i1l1964:
  6170     0C7B  01A7               	clrf	i1___fldiv@b+3
  6171     0C7C  2C85               	goto	i1l1968
  6172     0C7D                     i1l1966:
  6173     0C7D  3000               	movlw	0
  6174     0C7E  00A7               	movwf	i1___fldiv@b+3
  6175     0C7F  3000               	movlw	0
  6176     0C80  00A6               	movwf	i1___fldiv@b+2
  6177     0C81  3000               	movlw	0
  6178     0C82  00A5               	movwf	i1___fldiv@b+1
  6179     0C83  3000               	movlw	0
  6180     0C84  00A4               	movwf	i1___fldiv@b
  6181     0C85                     i1l1968:
  6182     0C85  0823               	movf	i1___fldiv@a+3,w
  6183     0C86  3980               	andlw	128
  6184     0C87  00A8               	movwf	??i1___fldiv
  6185     0C88  0828               	movf	??i1___fldiv,w
  6186     0C89  06B1               	xorwf	i1___fldiv@sign,f
  6187     0C8A                     i1l1970:
  6188     0C8A  0823               	movf	i1___fldiv@a+3,w
  6189     0C8B  00A8               	movwf	??i1___fldiv
  6190     0C8C  0728               	addwf	??i1___fldiv,w
  6191     0C8D  00B9               	movwf	i1___fldiv@aexp
  6192     0C8E                     i1l1972:
  6193     0C8E  1FA2               	btfss	i1___fldiv@a+2,7
  6194     0C8F  2C91               	goto	u273_21
  6195     0C90  2C92               	goto	u273_20
  6196     0C91                     u273_21:
  6197     0C91  2C93               	goto	i1l1976
  6198     0C92                     u273_20:
  6199     0C92                     i1l1974:
  6200     0C92  1439               	bsf	i1___fldiv@aexp,0
  6201     0C93                     i1l1976:
  6202     0C93  0839               	movf	i1___fldiv@aexp,w
  6203     0C94  1903               	btfsc	3,2
  6204     0C95  2C97               	goto	u274_21
  6205     0C96  2C98               	goto	u274_20
  6206     0C97                     u274_21:
  6207     0C97  2CA8               	goto	i1l1986
  6208     0C98                     u274_20:
  6209     0C98                     i1l1978:
  6210     0C98  0A39               	incf	i1___fldiv@aexp,w
  6211     0C99  1D03               	btfss	3,2
  6212     0C9A  2C9C               	goto	u275_21
  6213     0C9B  2C9D               	goto	u275_20
  6214     0C9C                     u275_21:
  6215     0C9C  2CA5               	goto	i1l1982
  6216     0C9D                     u275_20:
  6217     0C9D                     i1l1980:
  6218     0C9D  3000               	movlw	0
  6219     0C9E  00A3               	movwf	i1___fldiv@a+3
  6220     0C9F  3000               	movlw	0
  6221     0CA0  00A2               	movwf	i1___fldiv@a+2
  6222     0CA1  3000               	movlw	0
  6223     0CA2  00A1               	movwf	i1___fldiv@a+1
  6224     0CA3  3000               	movlw	0
  6225     0CA4  00A0               	movwf	i1___fldiv@a
  6226     0CA5                     i1l1982:
  6227     0CA5  17A2               	bsf	i1___fldiv@a+2,7
  6228     0CA6                     i1l1984:
  6229     0CA6  01A3               	clrf	i1___fldiv@a+3
  6230     0CA7  2CB0               	goto	i1l575
  6231     0CA8                     i1l1986:
  6232     0CA8  3000               	movlw	0
  6233     0CA9  00A3               	movwf	i1___fldiv@a+3
  6234     0CAA  3000               	movlw	0
  6235     0CAB  00A2               	movwf	i1___fldiv@a+2
  6236     0CAC  3000               	movlw	0
  6237     0CAD  00A1               	movwf	i1___fldiv@a+1
  6238     0CAE  3000               	movlw	0
  6239     0CAF  00A0               	movwf	i1___fldiv@a
  6240     0CB0                     i1l575:
  6241     0CB0  0823               	movf	i1___fldiv@a+3,w
  6242     0CB1  0422               	iorwf	i1___fldiv@a+2,w
  6243     0CB2  0421               	iorwf	i1___fldiv@a+1,w
  6244     0CB3  0420               	iorwf	i1___fldiv@a,w
  6245     0CB4  1D03               	skipz
  6246     0CB5  2CB7               	goto	u276_21
  6247     0CB6  2CB8               	goto	u276_20
  6248     0CB7                     u276_21:
  6249     0CB7  2CD1               	goto	i1l1996
  6250     0CB8                     u276_20:
  6251     0CB8                     i1l1988:
  6252     0CB8  3000               	movlw	0
  6253     0CB9  00A7               	movwf	i1___fldiv@b+3
  6254     0CBA  3000               	movlw	0
  6255     0CBB  00A6               	movwf	i1___fldiv@b+2
  6256     0CBC  3000               	movlw	0
  6257     0CBD  00A5               	movwf	i1___fldiv@b+1
  6258     0CBE  3000               	movlw	0
  6259     0CBF  00A4               	movwf	i1___fldiv@b
  6260     0CC0  3080               	movlw	128
  6261     0CC1  04A6               	iorwf	i1___fldiv@b+2,f
  6262     0CC2  307F               	movlw	127
  6263     0CC3  04A7               	iorwf	i1___fldiv@b+3,f
  6264     0CC4                     i1l1990:
  6265     0CC4  0831               	movf	i1___fldiv@sign,w
  6266     0CC5  00A8               	movwf	??i1___fldiv
  6267     0CC6  0828               	movf	??i1___fldiv,w
  6268     0CC7  04A7               	iorwf	i1___fldiv@b+3,f
  6269     0CC8                     i1l1992:
  6270     0CC8  0827               	movf	i1___fldiv@b+3,w
  6271     0CC9  00A3               	movwf	?i1___fldiv+3
  6272     0CCA  0826               	movf	i1___fldiv@b+2,w
  6273     0CCB  00A2               	movwf	?i1___fldiv+2
  6274     0CCC  0825               	movf	i1___fldiv@b+1,w
  6275     0CCD  00A1               	movwf	?i1___fldiv+1
  6276     0CCE  0824               	movf	i1___fldiv@b,w
  6277     0CCF  00A0               	movwf	?i1___fldiv
  6278     0CD0  2E2C               	goto	i1l577
  6279     0CD1                     i1l1996:
  6280     0CD1  0838               	movf	i1___fldiv@bexp,w
  6281     0CD2  1D03               	btfss	3,2
  6282     0CD3  2CD5               	goto	u277_21
  6283     0CD4  2CD6               	goto	u277_20
  6284     0CD5                     u277_21:
  6285     0CD5  2CDF               	goto	i1l2002
  6286     0CD6                     u277_20:
  6287     0CD6                     i1l1998:
  6288     0CD6  3000               	movlw	0
  6289     0CD7  00A3               	movwf	?i1___fldiv+3
  6290     0CD8  3000               	movlw	0
  6291     0CD9  00A2               	movwf	?i1___fldiv+2
  6292     0CDA  3000               	movlw	0
  6293     0CDB  00A1               	movwf	?i1___fldiv+1
  6294     0CDC  3000               	movlw	0
  6295     0CDD  00A0               	movwf	?i1___fldiv
  6296     0CDE  2E2C               	goto	i1l577
  6297     0CDF                     i1l2002:
  6298     0CDF  0838               	movf	i1___fldiv@bexp,w
  6299     0CE0  00A8               	movwf	??i1___fldiv
  6300     0CE1  01A9               	clrf	??i1___fldiv+1
  6301     0CE2  0829               	movf	??i1___fldiv+1,w
  6302     0CE3  00AB               	movwf	??i1___fldiv+3
  6303     0CE4  0839               	movf	i1___fldiv@aexp,w
  6304     0CE5  0228               	subwf	??i1___fldiv,w
  6305     0CE6  00AA               	movwf	??i1___fldiv+2
  6306     0CE7  1C03               	skipc
  6307     0CE8  03AB               	decf	??i1___fldiv+3,f
  6308     0CE9  082A               	movf	??i1___fldiv+2,w
  6309     0CEA  3E7F               	addlw	127
  6310     0CEB  00B2               	movwf	i1___fldiv@new_exp
  6311     0CEC  082B               	movf	??i1___fldiv+3,w
  6312     0CED  1803               	skipnc
  6313     0CEE  3E01               	addlw	1
  6314     0CEF  3E00               	addlw	0
  6315     0CF0  00B3               	movwf	i1___fldiv@new_exp+1
  6316     0CF1                     i1l2004:
  6317     0CF1  0827               	movf	i1___fldiv@b+3,w
  6318     0CF2  00B0               	movwf	i1___fldiv@rem+3
  6319     0CF3  0826               	movf	i1___fldiv@b+2,w
  6320     0CF4  00AF               	movwf	i1___fldiv@rem+2
  6321     0CF5  0825               	movf	i1___fldiv@b+1,w
  6322     0CF6  00AE               	movwf	i1___fldiv@rem+1
  6323     0CF7  0824               	movf	i1___fldiv@b,w
  6324     0CF8  00AD               	movwf	i1___fldiv@rem
  6325     0CF9                     i1l2006:
  6326     0CF9  3000               	movlw	0
  6327     0CFA  00A7               	movwf	i1___fldiv@b+3
  6328     0CFB  3000               	movlw	0
  6329     0CFC  00A6               	movwf	i1___fldiv@b+2
  6330     0CFD  3000               	movlw	0
  6331     0CFE  00A5               	movwf	i1___fldiv@b+1
  6332     0CFF  3000               	movlw	0
  6333     0D00  00A4               	movwf	i1___fldiv@b
  6334     0D01                     i1l2008:
  6335     0D01  3000               	movlw	0
  6336     0D02  00B7               	movwf	i1___fldiv@grs+3
  6337     0D03  3000               	movlw	0
  6338     0D04  00B6               	movwf	i1___fldiv@grs+2
  6339     0D05  3000               	movlw	0
  6340     0D06  00B5               	movwf	i1___fldiv@grs+1
  6341     0D07  3000               	movlw	0
  6342     0D08  00B4               	movwf	i1___fldiv@grs
  6343     0D09                     i1l2010:
  6344     0D09  01B9               	clrf	i1___fldiv@aexp
  6345     0D0A  2D55               	goto	i1l2030
  6346     0D0B                     i1l2012:
  6347     0D0B  0839               	movf	i1___fldiv@aexp,w
  6348     0D0C  1903               	btfsc	3,2
  6349     0D0D  2D0F               	goto	u278_21
  6350     0D0E  2D10               	goto	u278_20
  6351     0D0F                     u278_21:
  6352     0D0F  2D30               	goto	i1l2022
  6353     0D10                     u278_20:
  6354     0D10                     i1l2014:
  6355     0D10  3001               	movlw	1
  6356     0D11  00A8               	movwf	??i1___fldiv
  6357     0D12                     u279_25:
  6358     0D12  1003               	clrc
  6359     0D13  0DAD               	rlf	i1___fldiv@rem,f
  6360     0D14  0DAE               	rlf	i1___fldiv@rem+1,f
  6361     0D15  0DAF               	rlf	i1___fldiv@rem+2,f
  6362     0D16  0DB0               	rlf	i1___fldiv@rem+3,f
  6363     0D17  0BA8               	decfsz	??i1___fldiv,f
  6364     0D18  2D12               	goto	u279_25
  6365     0D19  3001               	movlw	1
  6366     0D1A  00A8               	movwf	??i1___fldiv
  6367     0D1B                     u280_25:
  6368     0D1B  1003               	clrc
  6369     0D1C  0DA4               	rlf	i1___fldiv@b,f
  6370     0D1D  0DA5               	rlf	i1___fldiv@b+1,f
  6371     0D1E  0DA6               	rlf	i1___fldiv@b+2,f
  6372     0D1F  0DA7               	rlf	i1___fldiv@b+3,f
  6373     0D20  0BA8               	decfsz	??i1___fldiv,f
  6374     0D21  2D1B               	goto	u280_25
  6375     0D22                     i1l2016:
  6376     0D22  1FB7               	btfss	i1___fldiv@grs+3,7
  6377     0D23  2D25               	goto	u281_21
  6378     0D24  2D26               	goto	u281_20
  6379     0D25                     u281_21:
  6380     0D25  2D27               	goto	i1l2020
  6381     0D26                     u281_20:
  6382     0D26                     i1l2018:
  6383     0D26  1424               	bsf	i1___fldiv@b,0
  6384     0D27                     i1l2020:
  6385     0D27  3001               	movlw	1
  6386     0D28  00A8               	movwf	??i1___fldiv
  6387     0D29                     u282_25:
  6388     0D29  1003               	clrc
  6389     0D2A  0DB4               	rlf	i1___fldiv@grs,f
  6390     0D2B  0DB5               	rlf	i1___fldiv@grs+1,f
  6391     0D2C  0DB6               	rlf	i1___fldiv@grs+2,f
  6392     0D2D  0DB7               	rlf	i1___fldiv@grs+3,f
  6393     0D2E  0BA8               	decfsz	??i1___fldiv,f
  6394     0D2F  2D29               	goto	u282_25
  6395     0D30                     i1l2022:
  6396     0D30  0823               	movf	i1___fldiv@a+3,w
  6397     0D31  0230               	subwf	i1___fldiv@rem+3,w
  6398     0D32  1D03               	skipz
  6399     0D33  2D3E               	goto	u283_25
  6400     0D34  0822               	movf	i1___fldiv@a+2,w
  6401     0D35  022F               	subwf	i1___fldiv@rem+2,w
  6402     0D36  1D03               	skipz
  6403     0D37  2D3E               	goto	u283_25
  6404     0D38  0821               	movf	i1___fldiv@a+1,w
  6405     0D39  022E               	subwf	i1___fldiv@rem+1,w
  6406     0D3A  1D03               	skipz
  6407     0D3B  2D3E               	goto	u283_25
  6408     0D3C  0820               	movf	i1___fldiv@a,w
  6409     0D3D  022D               	subwf	i1___fldiv@rem,w
  6410     0D3E                     u283_25:
  6411     0D3E  1C03               	skipc
  6412     0D3F  2D41               	goto	u283_21
  6413     0D40  2D42               	goto	u283_20
  6414     0D41                     u283_21:
  6415     0D41  2D51               	goto	i1l2028
  6416     0D42                     u283_20:
  6417     0D42                     i1l2024:
  6418     0D42  1737               	bsf	i1___fldiv@grs+3,6
  6419     0D43                     i1l2026:
  6420     0D43  0820               	movf	i1___fldiv@a,w
  6421     0D44  02AD               	subwf	i1___fldiv@rem,f
  6422     0D45  0821               	movf	i1___fldiv@a+1,w
  6423     0D46  1C03               	skipc
  6424     0D47  0F21               	incfsz	i1___fldiv@a+1,w
  6425     0D48  02AE               	subwf	i1___fldiv@rem+1,f
  6426     0D49  0822               	movf	i1___fldiv@a+2,w
  6427     0D4A  1C03               	skipc
  6428     0D4B  0F22               	incfsz	i1___fldiv@a+2,w
  6429     0D4C  02AF               	subwf	i1___fldiv@rem+2,f
  6430     0D4D  0823               	movf	i1___fldiv@a+3,w
  6431     0D4E  1C03               	skipc
  6432     0D4F  0F23               	incfsz	i1___fldiv@a+3,w
  6433     0D50  02B0               	subwf	i1___fldiv@rem+3,f
  6434     0D51                     i1l2028:
  6435     0D51  3001               	movlw	1
  6436     0D52  00A8               	movwf	??i1___fldiv
  6437     0D53  0828               	movf	??i1___fldiv,w
  6438     0D54  07B9               	addwf	i1___fldiv@aexp,f
  6439     0D55                     i1l2030:
  6440     0D55  301A               	movlw	26
  6441     0D56  0239               	subwf	i1___fldiv@aexp,w
  6442     0D57  1C03               	skipc
  6443     0D58  2D5A               	goto	u284_21
  6444     0D59  2D5B               	goto	u284_20
  6445     0D5A                     u284_21:
  6446     0D5A  2D0B               	goto	i1l2012
  6447     0D5B                     u284_20:
  6448     0D5B                     i1l2032:
  6449     0D5B  0830               	movf	i1___fldiv@rem+3,w
  6450     0D5C  042F               	iorwf	i1___fldiv@rem+2,w
  6451     0D5D  042E               	iorwf	i1___fldiv@rem+1,w
  6452     0D5E  042D               	iorwf	i1___fldiv@rem,w
  6453     0D5F  1903               	skipnz
  6454     0D60  2D62               	goto	u285_21
  6455     0D61  2D63               	goto	u285_20
  6456     0D62                     u285_21:
  6457     0D62  2D82               	goto	i1l2046
  6458     0D63                     u285_20:
  6459     0D63                     i1l2034:
  6460     0D63  1434               	bsf	i1___fldiv@grs,0
  6461     0D64  2D82               	goto	i1l2046
  6462     0D65                     i1l2036:
  6463     0D65  3001               	movlw	1
  6464     0D66  00A8               	movwf	??i1___fldiv
  6465     0D67                     u286_25:
  6466     0D67  1003               	clrc
  6467     0D68  0DA4               	rlf	i1___fldiv@b,f
  6468     0D69  0DA5               	rlf	i1___fldiv@b+1,f
  6469     0D6A  0DA6               	rlf	i1___fldiv@b+2,f
  6470     0D6B  0DA7               	rlf	i1___fldiv@b+3,f
  6471     0D6C  0BA8               	decfsz	??i1___fldiv,f
  6472     0D6D  2D67               	goto	u286_25
  6473     0D6E                     i1l2038:
  6474     0D6E  1FB7               	btfss	i1___fldiv@grs+3,7
  6475     0D6F  2D71               	goto	u287_21
  6476     0D70  2D72               	goto	u287_20
  6477     0D71                     u287_21:
  6478     0D71  2D73               	goto	i1l2042
  6479     0D72                     u287_20:
  6480     0D72                     i1l2040:
  6481     0D72  1424               	bsf	i1___fldiv@b,0
  6482     0D73                     i1l2042:
  6483     0D73  3001               	movlw	1
  6484     0D74  00A8               	movwf	??i1___fldiv
  6485     0D75                     u288_25:
  6486     0D75  1003               	clrc
  6487     0D76  0DB4               	rlf	i1___fldiv@grs,f
  6488     0D77  0DB5               	rlf	i1___fldiv@grs+1,f
  6489     0D78  0DB6               	rlf	i1___fldiv@grs+2,f
  6490     0D79  0DB7               	rlf	i1___fldiv@grs+3,f
  6491     0D7A  0BA8               	decfsz	??i1___fldiv,f
  6492     0D7B  2D75               	goto	u288_25
  6493     0D7C                     i1l2044:
  6494     0D7C  30FF               	movlw	255
  6495     0D7D  07B2               	addwf	i1___fldiv@new_exp,f
  6496     0D7E  1803               	skipnc
  6497     0D7F  0AB3               	incf	i1___fldiv@new_exp+1,f
  6498     0D80  30FF               	movlw	255
  6499     0D81  07B3               	addwf	i1___fldiv@new_exp+1,f
  6500     0D82                     i1l2046:
  6501     0D82  1FA6               	btfss	i1___fldiv@b+2,7
  6502     0D83  2D85               	goto	u289_21
  6503     0D84  2D86               	goto	u289_20
  6504     0D85                     u289_21:
  6505     0D85  2D65               	goto	i1l2036
  6506     0D86                     u289_20:
  6507     0D86                     i1l2048:
  6508     0D86  01B9               	clrf	i1___fldiv@aexp
  6509     0D87                     i1l2050:
  6510     0D87  1FB7               	btfss	i1___fldiv@grs+3,7
  6511     0D88  2D8A               	goto	u290_21
  6512     0D89  2D8B               	goto	u290_20
  6513     0D8A                     u290_21:
  6514     0D8A  2DA7               	goto	i1l2058
  6515     0D8B                     u290_20:
  6516     0D8B                     i1l2052:
  6517     0D8B  30FF               	movlw	255
  6518     0D8C  0534               	andwf	i1___fldiv@grs,w
  6519     0D8D  00A8               	movwf	??i1___fldiv
  6520     0D8E  30FF               	movlw	255
  6521     0D8F  0535               	andwf	i1___fldiv@grs+1,w
  6522     0D90  00A9               	movwf	??i1___fldiv+1
  6523     0D91  30FF               	movlw	255
  6524     0D92  0536               	andwf	i1___fldiv@grs+2,w
  6525     0D93  00AA               	movwf	??i1___fldiv+2
  6526     0D94  307F               	movlw	127
  6527     0D95  0537               	andwf	i1___fldiv@grs+3,w
  6528     0D96  00AB               	movwf	??i1___fldiv+3
  6529     0D97  082B               	movf	??i1___fldiv+3,w
  6530     0D98  042A               	iorwf	??i1___fldiv+2,w
  6531     0D99  0429               	iorwf	??i1___fldiv+1,w
  6532     0D9A  0428               	iorwf	??i1___fldiv,w
  6533     0D9B  1903               	skipnz
  6534     0D9C  2D9E               	goto	u291_21
  6535     0D9D  2D9F               	goto	u291_20
  6536     0D9E                     u291_21:
  6537     0D9E  2DA2               	goto	i1l591
  6538     0D9F                     u291_20:
  6539     0D9F                     i1l2054:
  6540     0D9F  01B9               	clrf	i1___fldiv@aexp
  6541     0DA0  0AB9               	incf	i1___fldiv@aexp,f
  6542     0DA1  2DA7               	goto	i1l2058
  6543     0DA2                     i1l591:
  6544     0DA2  1C24               	btfss	i1___fldiv@b,0
  6545     0DA3  2DA5               	goto	u292_21
  6546     0DA4  2DA6               	goto	u292_20
  6547     0DA5                     u292_21:
  6548     0DA5  2DA7               	goto	i1l2058
  6549     0DA6                     u292_20:
  6550     0DA6  2D9F               	goto	i1l2054
  6551     0DA7                     i1l2058:
  6552     0DA7  0839               	movf	i1___fldiv@aexp,w
  6553     0DA8  1903               	btfsc	3,2
  6554     0DA9  2DAB               	goto	u293_21
  6555     0DAA  2DAC               	goto	u293_20
  6556     0DAB                     u293_21:
  6557     0DAB  2DDD               	goto	i1l2068
  6558     0DAC                     u293_20:
  6559     0DAC                     i1l2060:
  6560     0DAC  3001               	movlw	1
  6561     0DAD  07A4               	addwf	i1___fldiv@b,f
  6562     0DAE  3000               	movlw	0
  6563     0DAF  1803               	skipnc
  6564     0DB0  3001               	movlw	1
  6565     0DB1  07A5               	addwf	i1___fldiv@b+1,f
  6566     0DB2  3000               	movlw	0
  6567     0DB3  1803               	skipnc
  6568     0DB4  3001               	movlw	1
  6569     0DB5  07A6               	addwf	i1___fldiv@b+2,f
  6570     0DB6  3000               	movlw	0
  6571     0DB7  1803               	skipnc
  6572     0DB8  3001               	movlw	1
  6573     0DB9  07A7               	addwf	i1___fldiv@b+3,f
  6574     0DBA                     i1l2062:
  6575     0DBA  1C27               	btfss	i1___fldiv@b+3,0
  6576     0DBB  2DBD               	goto	u294_21
  6577     0DBC  2DBE               	goto	u294_20
  6578     0DBD                     u294_21:
  6579     0DBD  2DDD               	goto	i1l2068
  6580     0DBE                     u294_20:
  6581     0DBE                     i1l2064:
  6582     0DBE  0824               	movf	i1___fldiv@b,w
  6583     0DBF  00A8               	movwf	??i1___fldiv
  6584     0DC0  0825               	movf	i1___fldiv@b+1,w
  6585     0DC1  00A9               	movwf	??i1___fldiv+1
  6586     0DC2  0826               	movf	i1___fldiv@b+2,w
  6587     0DC3  00AA               	movwf	??i1___fldiv+2
  6588     0DC4  0827               	movf	i1___fldiv@b+3,w
  6589     0DC5  00AB               	movwf	??i1___fldiv+3
  6590     0DC6  3001               	movlw	1
  6591     0DC7  00AC               	movwf	??i1___fldiv+4
  6592     0DC8                     u295_25:
  6593     0DC8  0D2B               	rlf	??i1___fldiv+3,w
  6594     0DC9  0CAB               	rrf	??i1___fldiv+3,f
  6595     0DCA  0CAA               	rrf	??i1___fldiv+2,f
  6596     0DCB  0CA9               	rrf	??i1___fldiv+1,f
  6597     0DCC  0CA8               	rrf	??i1___fldiv,f
  6598     0DCD                     u295_20:
  6599     0DCD  0BAC               	decfsz	??i1___fldiv+4,f
  6600     0DCE  2DC8               	goto	u295_25
  6601     0DCF  082B               	movf	??i1___fldiv+3,w
  6602     0DD0  00A7               	movwf	i1___fldiv@b+3
  6603     0DD1  082A               	movf	??i1___fldiv+2,w
  6604     0DD2  00A6               	movwf	i1___fldiv@b+2
  6605     0DD3  0829               	movf	??i1___fldiv+1,w
  6606     0DD4  00A5               	movwf	i1___fldiv@b+1
  6607     0DD5  0828               	movf	??i1___fldiv,w
  6608     0DD6  00A4               	movwf	i1___fldiv@b
  6609     0DD7                     i1l2066:
  6610     0DD7  3001               	movlw	1
  6611     0DD8  07B2               	addwf	i1___fldiv@new_exp,f
  6612     0DD9  1803               	skipnc
  6613     0DDA  0AB3               	incf	i1___fldiv@new_exp+1,f
  6614     0DDB  3000               	movlw	0
  6615     0DDC  07B3               	addwf	i1___fldiv@new_exp+1,f
  6616     0DDD                     i1l2068:
  6617     0DDD  0833               	movf	i1___fldiv@new_exp+1,w
  6618     0DDE  3A80               	xorlw	128
  6619     0DDF  00FF               	movwf	btemp+1
  6620     0DE0  3080               	movlw	128
  6621     0DE1  027F               	subwf	btemp+1,w
  6622     0DE2  1D03               	skipz
  6623     0DE3  2DE6               	goto	u296_25
  6624     0DE4  30FF               	movlw	255
  6625     0DE5  0232               	subwf	i1___fldiv@new_exp,w
  6626     0DE6                     u296_25:
  6627     0DE6  1C03               	skipc
  6628     0DE7  2DE9               	goto	u296_21
  6629     0DE8  2DEA               	goto	u296_20
  6630     0DE9                     u296_21:
  6631     0DE9  2DF8               	goto	i1l2072
  6632     0DEA                     u296_20:
  6633     0DEA                     i1l2070:
  6634     0DEA  30FF               	movlw	255
  6635     0DEB  1283               	bcf	3,5	;RP0=0, select bank0
  6636     0DEC  1303               	bcf	3,6	;RP1=0, select bank0
  6637     0DED  00B2               	movwf	i1___fldiv@new_exp
  6638     0DEE  3000               	movlw	0
  6639     0DEF  00B3               	movwf	i1___fldiv@new_exp+1
  6640     0DF0  3000               	movlw	0
  6641     0DF1  00A7               	movwf	i1___fldiv@b+3
  6642     0DF2  3000               	movlw	0
  6643     0DF3  00A6               	movwf	i1___fldiv@b+2
  6644     0DF4  3000               	movlw	0
  6645     0DF5  00A5               	movwf	i1___fldiv@b+1
  6646     0DF6  3000               	movlw	0
  6647     0DF7  00A4               	movwf	i1___fldiv@b
  6648     0DF8                     i1l2072:
  6649     0DF8  1283               	bcf	3,5	;RP0=0, select bank0
  6650     0DF9  1303               	bcf	3,6	;RP1=0, select bank0
  6651     0DFA  0833               	movf	i1___fldiv@new_exp+1,w
  6652     0DFB  3A80               	xorlw	128
  6653     0DFC  00FF               	movwf	btemp+1
  6654     0DFD  3080               	movlw	128
  6655     0DFE  027F               	subwf	btemp+1,w
  6656     0DFF  1D03               	skipz
  6657     0E00  2E03               	goto	u297_25
  6658     0E01  3001               	movlw	1
  6659     0E02  0232               	subwf	i1___fldiv@new_exp,w
  6660     0E03                     u297_25:
  6661     0E03  1803               	skipnc
  6662     0E04  2E06               	goto	u297_21
  6663     0E05  2E07               	goto	u297_20
  6664     0E06                     u297_21:
  6665     0E06  2E14               	goto	i1l597
  6666     0E07                     u297_20:
  6667     0E07                     i1l2074:
  6668     0E07  1283               	bcf	3,5	;RP0=0, select bank0
  6669     0E08  1303               	bcf	3,6	;RP1=0, select bank0
  6670     0E09  01B2               	clrf	i1___fldiv@new_exp
  6671     0E0A  01B3               	clrf	i1___fldiv@new_exp+1
  6672     0E0B                     i1l2076:
  6673     0E0B  3000               	movlw	0
  6674     0E0C  00A7               	movwf	i1___fldiv@b+3
  6675     0E0D  3000               	movlw	0
  6676     0E0E  00A6               	movwf	i1___fldiv@b+2
  6677     0E0F  3000               	movlw	0
  6678     0E10  00A5               	movwf	i1___fldiv@b+1
  6679     0E11  3000               	movlw	0
  6680     0E12  00A4               	movwf	i1___fldiv@b
  6681     0E13                     i1l2078:
  6682     0E13  01B1               	clrf	i1___fldiv@sign
  6683     0E14                     i1l597:
  6684     0E14  1283               	bcf	3,5	;RP0=0, select bank0
  6685     0E15  1303               	bcf	3,6	;RP1=0, select bank0
  6686     0E16  0832               	movf	i1___fldiv@new_exp,w
  6687     0E17  00B8               	movwf	i1___fldiv@bexp
  6688     0E18                     i1l2080:
  6689     0E18  1C38               	btfss	i1___fldiv@bexp,0
  6690     0E19  2E1B               	goto	u298_21
  6691     0E1A  2E1C               	goto	u298_20
  6692     0E1B                     u298_21:
  6693     0E1B  2E1E               	goto	i1l2084
  6694     0E1C                     u298_20:
  6695     0E1C                     i1l2082:
  6696     0E1C  17A6               	bsf	i1___fldiv@b+2,7
  6697     0E1D  2E22               	goto	i1l599
  6698     0E1E                     i1l2084:
  6699     0E1E  307F               	movlw	127
  6700     0E1F  00A8               	movwf	??i1___fldiv
  6701     0E20  0828               	movf	??i1___fldiv,w
  6702     0E21  05A6               	andwf	i1___fldiv@b+2,f
  6703     0E22                     i1l599:
  6704     0E22  0838               	movf	i1___fldiv@bexp,w
  6705     0E23  00A8               	movwf	??i1___fldiv
  6706     0E24  1003               	clrc
  6707     0E25  0C28               	rrf	??i1___fldiv,w
  6708     0E26  00A7               	movwf	i1___fldiv@b+3
  6709     0E27  0831               	movf	i1___fldiv@sign,w
  6710     0E28  00A8               	movwf	??i1___fldiv
  6711     0E29  0828               	movf	??i1___fldiv,w
  6712     0E2A  04A7               	iorwf	i1___fldiv@b+3,f
  6713     0E2B  2CC8               	goto	i1l1992
  6714     0E2C                     i1l577:
  6715     0E2C  0008               	return
  6716     0E2D                     __end_ofi1___fldiv:
  6717                           
  6718                           	psect	text16
  6719     0838                     __ptext16:	
  6720 ;; *************** function _duty_cicle *****************
  6721 ;; Defined at:
  6722 ;;		line 114 in file "PostLabC02.c"
  6723 ;; Parameters:    Size  Location     Type
  6724 ;;  ciclo           2    0[COMMON] int 
  6725 ;; Auto vars:     Size  Location     Type
  6726 ;;		None
  6727 ;; Return value:  Size  Location     Type
  6728 ;;                  1    wreg      void 
  6729 ;; Registers used:
  6730 ;;		wreg, status,2
  6731 ;; Tracked objects:
  6732 ;;		On entry : 0/0
  6733 ;;		On exit  : 0/0
  6734 ;;		Unchanged: 0/0
  6735 ;; Data sizes:     COMMON   BANK0   BANK1   BANK3   BANK2
  6736 ;;      Params:         2       0       0       0       0
  6737 ;;      Locals:         0       0       0       0       0
  6738 ;;      Temps:          1       0       0       0       0
  6739 ;;      Totals:         3       0       0       0       0
  6740 ;;Total ram usage:        3 bytes
  6741 ;; Hardware stack levels used: 1
  6742 ;; This function calls:
  6743 ;;		Nothing
  6744 ;; This function is called by:
  6745 ;;		_isr
  6746 ;; This function uses a non-reentrant model
  6747 ;;
  6748                           
  6749     0838                     _duty_cicle:	
  6750                           ;psect for function _duty_cicle
  6751                           
  6752     0838                     i1l2104:	
  6753                           ;incstack = 0
  6754                           ; Regs used in _duty_cicle: [wreg+status,2]
  6755                           
  6756                           
  6757                           ;PostLabC02.c: 115:     i++;
  6758     0838  3001               	movlw	1
  6759     0839  1283               	bcf	3,5	;RP0=0, select bank0
  6760     083A  1303               	bcf	3,6	;RP1=0, select bank0
  6761     083B  07EB               	addwf	_i,f
  6762     083C  1803               	skipnc
  6763     083D  0AEC               	incf	_i+1,f
  6764     083E  3000               	movlw	0
  6765     083F  07EC               	addwf	_i+1,f
  6766                           
  6767                           ;PostLabC02.c: 116:     if (i <= ciclo){
  6768     0840  0871               	movf	duty_cicle@ciclo+1,w
  6769     0841  3A80               	xorlw	128
  6770     0842  00F2               	movwf	??_duty_cicle
  6771     0843  086C               	movf	_i+1,w
  6772     0844  3A80               	xorlw	128
  6773     0845  0272               	subwf	??_duty_cicle,w
  6774     0846  1D03               	skipz
  6775     0847  284A               	goto	u302_25
  6776     0848  086B               	movf	_i,w
  6777     0849  0270               	subwf	duty_cicle@ciclo,w
  6778     084A                     u302_25:
  6779     084A  1C03               	skipc
  6780     084B  284D               	goto	u302_21
  6781     084C  284E               	goto	u302_20
  6782     084D                     u302_21:
  6783     084D  2852               	goto	i1l124
  6784     084E                     u302_20:
  6785     084E                     i1l2106:
  6786                           
  6787                           ;PostLabC02.c: 117:         PORTCbits.RC3 = 1;
  6788     084E  1283               	bcf	3,5	;RP0=0, select bank0
  6789     084F  1303               	bcf	3,6	;RP1=0, select bank0
  6790     0850  1587               	bsf	7,3	;volatile
  6791                           
  6792                           ;PostLabC02.c: 118:     }
  6793     0851  2857               	goto	i1l126
  6794     0852                     i1l124:	
  6795                           ;PostLabC02.c: 119:     else{
  6796                           
  6797                           
  6798                           ;PostLabC02.c: 120:         PORTCbits.RC3 = 0;
  6799     0852  1283               	bcf	3,5	;RP0=0, select bank0
  6800     0853  1303               	bcf	3,6	;RP1=0, select bank0
  6801     0854  1187               	bcf	7,3	;volatile
  6802     0855                     i1l2108:
  6803                           
  6804                           ;PostLabC02.c: 121:         i = 0;
  6805     0855  01EB               	clrf	_i
  6806     0856  01EC               	clrf	_i+1
  6807     0857                     i1l126:
  6808     0857  0008               	return
  6809     0858                     __end_of_duty_cicle:
  6810     007E                     btemp	set	126	;btemp
  6811     007E                     wtemp0	set	126
  6812                           
  6813                           	psect	idloc
  6814                           
  6815                           ;Config register IDLOC0 @ 0x2000
  6816                           ;	unspecified, using default values
  6817     2000                     	org	8192
  6818     2000  3FFF               	dw	16383
  6819                           
  6820                           ;Config register IDLOC1 @ 0x2001
  6821                           ;	unspecified, using default values
  6822     2001                     	org	8193
  6823     2001  3FFF               	dw	16383
  6824                           
  6825                           ;Config register IDLOC2 @ 0x2002
  6826                           ;	unspecified, using default values
  6827     2002                     	org	8194
  6828     2002  3FFF               	dw	16383
  6829                           
  6830                           ;Config register IDLOC3 @ 0x2003
  6831                           ;	unspecified, using default values
  6832     2003                     	org	8195
  6833     2003  3FFF               	dw	16383
  6834                           
  6835                           	psect	config
  6836                           
  6837                           ;Config register CONFIG1 @ 0x2007
  6838                           ;	Oscillator Selection bits
  6839                           ;	FOSC = INTRC_NOCLKOUT, INTOSCIO oscillator: I/O function on RA6/OSC2/CLKOUT pin, I/O f
      +                          unction on RA7/OSC1/CLKIN
  6840                           ;	Watchdog Timer Enable bit
  6841                           ;	WDTE = OFF, WDT disabled and can be enabled by SWDTEN bit of the WDTCON register
  6842                           ;	Power-up Timer Enable bit
  6843                           ;	PWRTE = OFF, PWRT disabled
  6844                           ;	RE3/MCLR pin function select bit
  6845                           ;	MCLRE = OFF, RE3/MCLR pin function is digital input, MCLR internally tied to VDD
  6846                           ;	Code Protection bit
  6847                           ;	CP = OFF, Program memory code protection is disabled
  6848                           ;	Data Code Protection bit
  6849                           ;	CPD = OFF, Data memory code protection is disabled
  6850                           ;	Brown Out Reset Selection bits
  6851                           ;	BOREN = OFF, BOR disabled
  6852                           ;	Internal External Switchover bit
  6853                           ;	IESO = OFF, Internal/External Switchover mode is disabled
  6854                           ;	Fail-Safe Clock Monitor Enabled bit
  6855                           ;	FCMEN = OFF, Fail-Safe Clock Monitor is disabled
  6856                           ;	Low Voltage Programming Enable bit
  6857                           ;	LVP = OFF, RB3 pin has digital I/O, HV on MCLR must be used for programming
  6858                           ;	In-Circuit Debugger Mode bit
  6859                           ;	DEBUG = 0x1, unprogramme  6860     2007                     	org	8199
  6861     2007  20D4               	dw	8404
  6862                           
  6863                           ;Config register CONFIG2 @ 0x2008
  6864                           ;	Brown-out Reset Selection bit
  6865                           ;	BOR4V = BOR40V, Brown-out Reset set to 4.0V
  6866                           ;	Flash Program Memory Self Write Enable bits
  6867                           ;	WRT = OFF, Write protection off
  6868     2008                     	org	8200
  6869     2008  3FFF               	dw	16383

Data Sizes:
    Strings     0
    Constant    0
    Data        0
    BSS         12
    Persistent  0
    Stack       0

Auto Spaces:
    Space          Size  Autos    Used
    COMMON           14     14      14
    BANK0            80     71      77
    BANK1            80     80      80
    BANK3            96      6      12
    BANK2            96      0       0

Pointer List with Targets:

    None.

Critical Paths under _main in COMMON

    None.

Critical Paths under _isr in COMMON

    _isr->i1___xxtofl
    i1___flmul->i1___xxtofl
    i1_PWM_duty->i1___xxtofl
    i1___fldiv->i1___xxtofl

Critical Paths under _main in BANK0

    None.

Critical Paths under _isr in BANK0

    _isr->i1_PWM_duty
    i1___flmul->i1___fldiv
    i1_PWM_duty->i1___flmul
    i1___fltol->i1___fldiv

Critical Paths under _main in BANK1

    _setup->_PWM_config
    _setup->_PWM_duty
    _PWM_duty->___fltol
    _PWM_config->___fltol
    ___fltol->___fldiv
    ___fldiv->___flmul
    ___flmul->___xxtofl

Critical Paths under _isr in BANK1

    None.

Critical Paths under _main in BANK3

    _main->_setup
    _setup->_PWM_duty

Critical Paths under _isr in BANK3

    None.

Critical Paths under _main in BANK2

    None.

Critical Paths under _isr in BANK2

    None.

Call Graph Tables:

 ---------------------------------------------------------------------------------
 (Depth) Function   	        Calls       Base Space   Used Autos Params    Refs
 ---------------------------------------------------------------------------------
 (0) _main                                                 1     1      0   11800
                                              5 BANK3      1     1      0
                            ___fldiv
                            ___flmul
                            ___fltol
                           ___xxtofl
                              _setup
 ---------------------------------------------------------------------------------
 (1) _setup                                                1     1      0    5615
                                              4 BANK3      1     1      0
                         _PWM_config
                           _PWM_duty
 ---------------------------------------------------------------------------------
 (2) _PWM_duty                                             8     4      4    2913
                                             76 BANK1      4     0      4
                                              0 BANK3      4     4      0
                            ___fldiv
                            ___fltol
 ---------------------------------------------------------------------------------
 (2) _PWM_config                                           5     1      4    2702
                                             76 BANK1      4     0      4
                                              0 BANK3      1     1      0
                            ___fldiv
                            ___fltol
 ---------------------------------------------------------------------------------
 (3) ___fltol                                             10     6      4     533
                                             66 BANK1     10     6      4
                            ___fldiv (ARG)
                            ___flmul (ARG)
 ---------------------------------------------------------------------------------
 (3) ___fldiv                                             26    18      8    1929
                                             40 BANK1     26    18      8
                            ___flmul (ARG)
                           ___xxtofl (ARG)
 ---------------------------------------------------------------------------------
 (1) ___xxtofl                                            14    10      4     650
                                              0 BANK1     14    10      4
 ---------------------------------------------------------------------------------
 (1) ___flmul                                             26    18      8    3073
                                             14 BANK1     26    18      8
                          __Umul8_16
                           ___xxtofl (ARG)
 ---------------------------------------------------------------------------------
 (2) __Umul8_16                                            9     7      2     799
                                              0 BANK1      9     7      2
 ---------------------------------------------------------------------------------
 Estimated maximum stack depth 3
 ---------------------------------------------------------------------------------
 (Depth) Function   	        Calls       Base Space   Used Autos Params    Refs
 ---------------------------------------------------------------------------------
 (4) _isr                                                 11    11      0    5497
                                             60 BANK0     11    11      0
                         _duty_cicle
                         i1_PWM_duty
                          i1___fldiv
                          i1___flmul
                         i1___xxtofl
 ---------------------------------------------------------------------------------
 (5) i1___xxtofl                                          14    10      4     374
                                              0 COMMON    14    10      4
 ---------------------------------------------------------------------------------
 (5) i1___flmul                                           26    18      8    1919
                                             26 BANK0     26    18      8
                        i1__Umul8_16
                          i1___fldiv (ARG)
                         i1___xxtofl (ARG)
 ---------------------------------------------------------------------------------
 (6) i1__Umul8_16                                          9     7      2     349
                                              0 COMMON     9     7      2
 ---------------------------------------------------------------------------------
 (5) i1_PWM_duty                                           8     4      4    1783
                                             52 BANK0      8     4      4
                          i1___fldiv
                          i1___flmul (ARG)
                          i1___fltol
                         i1___xxtofl (ARG)
 ---------------------------------------------------------------------------------
 (6) i1___fltol                                           10     6      4     255
                                             26 BANK0     10     6      4
                          i1___fldiv (ARG)
 ---------------------------------------------------------------------------------
 (5) i1___fldiv                                           26    18      8    1277
                                              0 BANK0     26    18      8
                         i1___xxtofl (ARG)
 ---------------------------------------------------------------------------------
 (5) _duty_cicle                                           3     1      2      98
                                              0 COMMON     3     1      2
 ---------------------------------------------------------------------------------
 Estimated maximum stack depth 6
 ---------------------------------------------------------------------------------

 Call Graph Graphs:

 _main (ROOT)
   ___fldiv
     ___flmul (ARG)
       __Umul8_16
       ___xxtofl (ARG)
     ___xxtofl (ARG)
   ___flmul
   ___fltol
     ___fldiv (ARG)
     ___flmul (ARG)
   ___xxtofl
   _setup
     _PWM_config
       ___fldiv
       ___fltol
     _PWM_duty
       ___fldiv
       ___fltol

 _isr (ROOT)
   _duty_cicle
   i1_PWM_duty
     i1___fldiv
       i1___xxtofl (ARG)
     i1___flmul (ARG)
       i1__Umul8_16
       i1___fldiv (ARG)
       i1___xxtofl (ARG)
     i1___fltol (ARG)
       i1___fldiv (ARG)
     i1___xxtofl (ARG)
   i1___fldiv
   i1___flmul
   i1___xxtofl

 Address spaces:
Name               Size   Autos  Total    Cost      Usage
BITCOMMON            E      0       0       0        0.0%
EEDATA             100      0       0       0        0.0%
NULL                 0      0       0       0        0.0%
CODE                 0      0       0       0        0.0%
COMMON               E      E       E       1      100.0%
BITSFR0              0      0       0       1        0.0%
SFR0                 0      0       0       1        0.0%
BITSFR1              0      0       0       2        0.0%
SFR1                 0      0       0       2        0.0%
STACK                0      0       0       2        0.0%
ABS                  0      0      B7       3        0.0%
BITBANK0            50      0       0       4        0.0%
BITSFR3              0      0       0       4        0.0%
SFR3                 0      0       0       4        0.0%
BANK0               50     47      4D       5       96.2%
BITSFR2              0      0       0       5        0.0%
SFR2                 0      0       0       5        0.0%
BITBANK1            50      0       0       6        0.0%
BANK1               50     50      50       7      100.0%
BITBANK3            60      0       0       8        0.0%
BANK3               60      6       C       9       12.5%
BITBANK2            60      0       0      10        0.0%
BANK2               60      0       0      11        0.0%
DATA                 0      0      B7      12        0.0%


Microchip Technology PIC Macro Assembler V2.40 build 20220703182018 
Symbol Table                                                                                   Thu Apr 13 12:28:53 2023

            ___fldiv@aexp 00E1              ___fldiv@bexp 00E0                         _i 006B  
            ___fldiv@sign 00D9               i1___fldiv@a 0020               i1___fldiv@b 0024  
                      l22 16FC                        l24 1700                        l25 170C  
                      l33 09F6                        l27 170F               i1___flmul@a 003E  
             i1___flmul@b 003A       __Umul8_16@word_mpld 00A6                i1___xxtofl 09F7  
                     l112 0B71                       l129 0956                       l412 08CF  
                     l422 08CF                       l419 08BA                       l621 02DB  
                     l615 036B                       l634 07C5                       l627 035F  
                     l636 07D7                       l661 0B68                       l591 0F75  
                     l575 0E83                       l672 0B32                       l673 0B3E  
                     l665 0B16                       l577 0FFF                       l659 0AD3  
                     l597 0FE7                       l599 0FF5                       _PR2 0092  
              _PWM_config 169F                       _isr 06B1              i1___fltol@f1 003A  
            ___flmul@aexp 00C0              ___flmul@bexp 00C1              ___flmul@sign 00BB  
            ___flmul@temp 00C6              ___flmul@prod 00C2             i1___fldiv@grs 0034  
           i1___fldiv@rem 002D              ___fltol@exp1 00EB                      l2200 0073  
                    l2120 08EA                      l2112 08D0                      l2210 008E  
                    l2202 007B                      l2130 08EF                      l2122 08EB  
                    l2114 08D5                      l2300 035A                      l2220 010A  
                    l2212 009C                      l2204 0080                      l2140 08F9  
                    l2132 08F3                      l2124 08EC                      l2116 08E3  
                    l2302 0363                      l2230 0176                      l2222 0126  
                    l2214 00A9                      l2206 0085                      l2310 0ABB  
                    l2150 0908                      l2142 08FC                      l2134 08F4  
                    l2126 08ED                      l2118 08E9                      l2240 0200  
                    l2232 0184                      l2224 0142                      l2216 00C4  
                    l2320 0AE7                      l2312 0ACB                      l2160 0936  
                    l2152 090B                      l2144 08FE                      l2136 08F5  
                    l2128 08EE                      l2250 0290                      l2242 020E  
                    l2234 01A1                      l2226 014B                      l2218 00E0  
                    l2170 0030                      l2330 0B1D                      l2322 0AF4  
                    l2314 0ADB                      l2306 0AB2                      l2162 0946  
                    l2154 090E                      l2146 0901                      l2138 08F8  
                    l2260 02B5                      l2252 029E                      l2244 0239  
                    l2236 01B8                      l2228 0159                      l2180 0047  
                    l2172 0034                      l2340 0B56                      l2332 0B28  
                    l2324 0AFB                      l2308 0AB7                      l2156 0916  
                    l2148 0902                      l2270 02D8                      l2254 02A7  
                    l2262 02BB                      l2246 025F                      l2238 01D5  
                    l2190 005E                      l2182 0049                      l2174 0035  
                    l2166 0027                      l2342 0B5B                      l2334 0B2C  
                    l2326 0AFF                      l2318 0AE4                      l1710 0E32  
                    l1702 08AF                      l2158 0926                      l2280 02F7  
                    l2264 02BF                      l2256 02AB                      l2248 0287  
                    l2192 005F                      l2184 0051                      l2176 003A  
                    l2168 002C                      l2344 0B5F                      l2336 0B36  
                    l2328 0B0D                      l1800 0F45                      l1720 0E45  
                    l1712 0E36                      l1704 08BF                      l2290 033D  
                    l2282 0310                      l2274 02E0                      l2266 02C0  
                    l2258 02AC                      l2194 0064                      l2186 0056  
                    l2178 003F                      l2346 0B60                      l2338 0B40  
                    l1810 0F5A                      l1802 0F46                      l1730 0E5D  
                    l1722 0E4D                      l1714 0E3A                      l1706 08C4  
                    l1900 07B4                      l2292 0347                      l2276 02E5  
                    l2284 0316                      l2268 02C4                      l2196 0069  
                    l2188 005A                      l1820 0F7F                      l1812 0F5E  
                    l1804 0F4F                      l1740 0E70                      l1732 0E61  
                    l1724 0E4E                      l1716 0E3B                      l1708 0E2D  
                    l1902 07BB                      l2294 0349                      l2286 0323  
                    l2278 02F3                      l2198 0071                      l1830 0FBD  
                    l1822 0F8D                      l1814 0F72                      l1806 0F55  
                    l1750 0E97                      l1742 0E78                      l1734 0E65  
                    l1718 0E40                      l1726 0E50                      l1904 07BF  
                    l2296 0355                      l2288 032E                      l1840 0FEB  
                    l1832 0FCB                      l1824 0F91                      l1808 0F59  
                    l1752 0E9B                      l1744 0E79                      l1736 0E66  
                    l1728 0E58                      l1680 087F                      l1672 0858  
                    l1906 07CE                      l2298 0359                      l1842 0FEF  
                    l1834 0FDA                      l1826 0FAA                      l1818 0F7A  
                    l1770 0EDC                      l1762 0EB2                      l1738 0E6B  
                    l1746 0E7B                      l1682 0880                      l1674 0863  
                    l1850 16A2                      l1908 07D3                      l1844 0FF1  
                    l1836 0FDE                      l1828 0FB0                      l1780 0EFA  
                    l1772 0EDE                      l1764 0EC4                      l1748 0E8B  
                    l1756 0EA4                      l1684 0888                      l1860 16E0  
                    l1852 16CC                      l2580 0C14                      l2572 0B69  
                    l1838 0FE6                      l1774 0EE3                      l1782 0F03  
                    l1790 0F28                      l1766 0ECC                      l1758 0EA9  
                    l1694 0896                      l1686 088A                      l1678 086C  
                    l1870 16F2                      l1862 16E1                      l1854 16D3  
                    l2590 0C47                      l2582 0C1F                      l2574 0B6E  
                    l1792 0F2E                      l1784 0F15                      l1776 0EF5  
                    l1768 0ED4                      l1688 088E                      l1696 08A8  
                    l1880 16FB                      l1872 16F4                      l1856 16D6  
                    l1864 16E3                      l2592 0C4B                      l2584 0C26  
                    l2576 0C0E                      l1794 0F36                      l1786 0F16  
                    l1778 0EF9                      l1882 1701                      l1874 16F5  
                    l1866 16E9                      l1858 16DE                      l1890 098B  
                    l2594 0C53                      l2586 0C33                      l2578 0C10  
                    l1796 0F38                      l1788 0F24                      l1884 1708  
                    l1868 16EC                      l1876 16F6                      l1892 09BE  
                    l2588 0C3A                      l1798 0F41                      l1878 16F9  
                    l1894 09C4                      l1886 095A                      l1888 0986  
                    l1898 07B2                      ?_isr 0070                      u2100 0863  
                    u2101 0862                      u2110 087A                      u2200 0E3A  
                    u2120 088E                      u2201 0E39                      u2121 088D  
                    u2210 0E40                      u2130 0895                      u2211 0E3F  
                    u2131 0894                      u2115 0875                      u3100 0085  
                    u2220 0E45                      u3101 0084                      u2221 0E44  
                    u3030 0034                      u2310 0EF9                      u2230 0E65  
                    u2150 08A7                      u3111 00D2                      u3031 0033  
                    u2311 0EF8                      u2231 0E64                      u2151 08A6  
                    u3112 00D9                      u3040 003A                      u2400 0F5E  
                    u2240 0E6B                      u2160 08AE                      u3201 01F2  
                    u3121 00EE                      u3113 00E0                      u3041 0039  
                    u2401 0F5D                      u2305 0EEE                      u2241 0E6A  
                    u2161 08AD                      u2145 0897                      u3202 01F9  
                    u3122 00F5                      u3050 003F                      u2410 0F72  
                    u2330 0F15                      u2250 0E70                      u3211 021D  
                    u3203 0200                      u3131 0118                      u3123 00FC  
                    u3051 003E                      u2411 0F71                      u2331 0F14  
                    u2251 0E6F                      u3300 02BF                      u3220 0245  
                    u3212 0224                      u3132 011F                      u3060 005E  
                    u2420 0F79                      u2340 0F2E                      u2260 0E8B  
                    u2180 08BF                      u2500 16E9                      u3301 02BE  
                    u3213 022B                      u3141 0134                      u3133 0126  
                    u3061 005D                      u2421 0F78                      u2341 0F2D  
                    u2325 0EFC                      u2261 0E8A                      u2181 08BE  
                    u2501 16E8                      u3310 02C4                      u3142 013B  
                    u3070 0064                      u2430 0F7F                      u2350 0F36  
                    u2270 0EA9                      u2190 08C4                      u2510 1700  
                    u3311 02C3                      u3231 0251                      u3143 0142  
                    u3071 0063                      u2431 0F7E                      u2351 0F35  
                    u2335 0F11                      u2271 0EA8                      u2191 08C3  
                    u2175 08B1                      u2511 16FF                      u3320 02D8  
                    u3240 026D                      u3232 0258                      u3080 0069  
                    u3400 0AB7                      u2440 0F91                      u2280 0EE3  
                    u2520 1708                      u3321 02D7                      u3233 025F  
                    u3225 0240                      u3161 0168                      u3081 0068  
                    u3401 0AB6                      u2441 0F90                      u2281 0EE2  
                    u2521 1707                      u3330 02DF                      u3162 016F  
                    u3090 0080                      u3410 0ABB                      u2450 0FA0  
                    u2370 0F45                      u2530 098B                      u3331 02DE  
                    u3251 0279                      u3171 0193                      u3163 0176  
                    u3155 0144                      u3091 007F                      u3411 0ABA  
                    u2371 0F44                      u2531 098A                      u3340 02E5  
                    u3252 0280                      u3172 019A                      u3500 0B36  
                    u3420 0ADB                      u2460 0FBD                      u4140 0C14  
                    u3341 02E4                      u3253 0287                      u3245 0268  
                    u3173 01A1                      u3501 0B35                      u3421 0ADA  
                    u2461 0FBC                      u2365 0F3A                      u4141 0C13  
                    u3350 02F7                      u3510 0B4B                      u2470 0FDA  
                    u2390 0F59                      u2550 09C4                      u4150 0C1F  
                    u3351 02F6                      u3191 01C7                      u2471 0FD9  
                    u2455 0F9B                      u2391 0F58                      u2295 0EE5  
                    u2551 09C3                      u4151 0C1E                      u3360 0306  
                    u3280 02AB                      u3192 01CE                      u3520 0B5B  
                    u3440 0AFA                      u2480 0FEF                      u4160 0C33  
                    u3281 02AA                      u3265 0289                      u3193 01D5  
                    u3185 01A3                      u3521 0B5A                      u3441 0AF9  
                    u2481 0FEE                      u2465 0FB9                      u2385 0F48  
                    u2545 098E                      u4161 0C32                      u2570 07BF  
                    u3370 0323                      u3530 0B5F                      u2490 16D3  
                    u4170 0C47                      u2571 07BE                      u3371 0322  
                    u3275 02A0                      u3531 0B5E                      u3515 0B46  
                    u3435 0AEC                      u2475 0FD6                      u2491 16D2  
                    u4171 0C46                      u3380 033D                      u3460 0B1C  
                    u3381 033C                      u3365 0301                      u3461 0B1B  
                    u2565 09C7                      u2590 07D3                      u3390 0359  
                    u2591 07D2                      u3391 0358                      u3375 031F  
                    u3295 02AE                      u3455 0B0E                      u3480 0B2C  
                    u2585 07C6                      u3385 0339                      u3481 0B2B  
                    u3490 0B32                      u3491 0B31                      u3475 0B21  
                    u4187 0C4F                      u4197 0912                      i1l33 17FF  
                    _TMR0 0001                      _main 0B69             i1___flmul@grs 0048  
                    btemp 007E                      start 0010           ___fldiv@new_exp 00DA  
                   ??_isr 005C            i1___fldiv@aexp 0039            i1___fldiv@bexp 0038  
          i1___fldiv@sign 0031               ?i1_PWM_duty 0054             ___fltol@sign1 00EA  
                   ?_main 0070           __end_of___fldiv 1000           __end_of___flmul 036C  
         __end_of___fltol 08D0                     i1l107 07A6                     i1l124 0852  
                   i1l126 0857                     i1l412 1787                     i1l422 1787  
                   i1l419 1772                     i1l621 0620                     i1l615 06B0  
                   i1l634 07EC                     i1l627 06A4                     i1l636 07FE  
                   i1l661 0AAE                     i1l591 0DA2                     i1l575 0CB0  
                   i1l672 0A78                     i1l577 0E2C                     i1l673 0A84  
                   i1l665 0A5C                     i1l659 0A19                     i1l597 0E14  
                   i1l599 0E22                     _PORTA 0005                     _PORTB 0006  
                   _PORTC 0007                     _PORTD 0008                     _PORTE 0009  
                   _TRISB 0086                     _TRISC 0087                     _TRISD 0088  
                   _TRISE 0089            i1___flmul@aexp 004C            i1___flmul@bexp 004D  
          i1___flmul@sign 0047            i1___flmul@temp 0052            i1___flmul@prod 004E  
                   _setup 08D0                     pclath 000A            i1___fltol@exp1 0043  
        __end_of_PWM_duty 09F7                     status 0003                     wtemp0 007E  
         __initialization 0013              __end_of_main 0C5A                    ??_main 019B  
             ?i1___xxtofl 0070               ?_PWM_config 00EC                    _ADRESH 001E  
                  _CCPR1L 0015                    _CCPR2L 001B                    ?_setup 0070  
                  _ANSELH 0189                    i1l2010 0D09                    i1l2002 0CDF  
                  i1l2020 0D27                    i1l2012 0D0B                    i1l2004 0CF1  
                  i1l2100 07FA                    i1l2014 0D10                    i1l2022 0D30  
                  i1l2030 0D55                    i1l2006 0CF9                    i1l2104 0838  
                  i1l2040 0D72                    i1l2032 0D5B                    i1l2024 0D42  
                  i1l2016 0D22                    i1l2008 0D01                    i1l2106 084E  
                  i1l2050 0D87                    i1l2042 0D73                    i1l2034 0D63  
                  i1l2026 0D43                    i1l2018 0D26                    i1l2108 0855  
                  i1l2060 0DAC                    i1l2052 0D8B                    i1l2044 0D7C  
                  i1l2036 0D65                    i1l2028 0D51                    i1l2070 0DEA  
                  i1l2062 0DBA                    i1l2054 0D9F                    i1l2038 0D6E  
                  i1l2046 0D82                    i1l2080 0E18                    i1l2072 0DF8  
                  i1l2064 0DBE                    i1l2048 0D86                    i1l2400 03C5  
                  i1l2082 0E1C                    i1l2074 0E07                    i1l2066 0DD7  
                  i1l2058 0DA7                    i1l2090 07D9                    i1l2410 03EE  
                  i1l2402 03CA                    i1l2084 0E1E                    i1l2076 0E0B  
                  i1l2068 0DDD                    i1l2092 07DB                    i1l2420 0487  
                  i1l2412 0409                    i1l2078 0E13                    i1l2350 178B  
                  i1l2094 07E2                    i1l2430 04E6                    i1l2422 0490  
                  i1l2414 0425                    i1l2406 03D3                    i1l2510 0A21  
                  i1l2502 09F8                    i1l2352 17B3                    i1l2096 07E6  
                  i1l2440 057E                    i1l2432 04FD                    i1l2424 049E  
                  i1l2416 044F                    i1l2408 03E1                    i1l2520 0A41  
                  i1l2504 09FD                    i1l2354 17B8                    i1l2098 07F5  
                  i1l2450 05EC                    i1l2442 05A4                    i1l2434 051A  
                  i1l2426 04BB                    i1l2418 046B                    i1l2370 037A  
                  i1l2362 036C                    i1l2530 0A72                    i1l2522 0A45  
                  i1l2514 0A2A                    i1l2506 0A01                    i1l2356 17D9  
                  i1l2460 0604                    i1l2452 05F0                    i1l2444 05CC  
                  i1l2436 0545                    i1l2428 04C9                    i1l2380 0396  
                  i1l2372 037F                    i1l2364 0371                    i1l2540 0AA5  
                  i1l2532 0A7C                    i1l2524 0A53                    i1l2516 0A2D  
                  i1l2508 0A11                    i1l2358 17DF                    i1l2470 0625  
                  i1l2462 0605                    i1l2454 05F1                    i1l2446 05D5  
                  i1l2438 0553                    i1l2390 03A9                    i1l2382 039B  
                  i1l2374 0384                    i1l2366 0375                    i1l2542 0AA6  
                  i1l2534 0A86                    i1l2526 0A63                    i1l2518 0A3A  
                  i1l2550 06BE                    i1l1920 1737                    i1l1912 1710  
                  i1l2472 062A                    i1l2480 065B                    i1l2464 0609  
                  i1l2456 05FA                    i1l2448 05E3                    i1l2392 03AE  
                  i1l2384 039F                    i1l2376 038C                    i1l2368 0379  
                  i1l2536 0A9C                    i1l2528 0A6E                    i1l2560 072A  
                  i1l2552 06BF                    i1l1922 1738                    i1l1914 171B  
                  i1l2490 068E                    i1l2482 0668                    i1l2474 0638  
                  i1l2466 061D                    i1l2458 0600                    i1l2394 03B6  
                  i1l2386 03A3                    i1l2378 038E                    i1l2538 0AA1  
                  i1l2562 0733                    i1l2554 06C3                    i1l2546 06B1  
                  i1l1924 1740                    i1l2492 069A                    i1l2484 0673  
                  i1l2476 063C                    i1l2396 03B8                    i1l2388 03A4  
                  i1l2564 078D                    i1l2556 06C7                    i1l2548 06B5  
                  i1l1950 0C5F                    i1l1942 1767                    i1l1934 174E  
                  i1l1926 1742                    i1l1918 1724                    i1l2494 069E  
                  i1l2486 0682                    i1l2478 0655                    i1l2398 03C0  
                  i1l2566 0796                    i1l2558 06D0                    i1l1960 0C72  
                  i1l1952 0C63                    i1l1944 1777                    i1l1928 1746  
                  i1l1936 1760                    i1l2496 069F                    i1l2488 068C  
                  i1l2568 07A3                    i1l1970 0C8A                    i1l1962 0C7A  
                  i1l1954 0C67                    i1l1946 177C                    i1l2498 06A8  
                  i1l1980 0C9D                    i1l1972 0C8E                    i1l1964 0C7B  
                  i1l1956 0C68                    i1l1948 0C5A                    i1l1990 0CC4  
                  i1l1982 0CA5                    i1l1974 0C92                    i1l1958 0C6D  
                  i1l1966 0C7D                    i1l1992 0CC8                    i1l1984 0CA6  
                  i1l1976 0C93                    i1l1968 0C85                    i1l1978 0C98  
                  i1l1986 0CA8                    i1l1988 0CB8                    i1l1996 0CD1  
                  u300_25 07ED                    i1l1998 0CD6                    u301_20 07FA  
                  u301_21 07F9                    u302_20 084E                    u302_21 084D  
                  u302_25 084A                    u400_25 0A54                    u401_20 0A62  
                  u401_21 0A61                    u410_20 06C7                    u410_21 06C6  
                  u402_25 0A67                    u403_20 0A72                    u411_20 06D0  
                  u403_21 0A71                    u411_21 06CF                    u260_20 171B  
                  u404_20 0A78                    u412_20 0733                    u260_21 171A  
                  u404_21 0A77                    u412_21 0732                    u261_20 1732  
                  u405_20 0A7C                    u413_20 0796                    u405_21 0A7B  
                  u413_21 0795                    u261_25 172D                    u270_20 0C67  
                  u262_20 1746                    u406_20 0A91                    u270_21 0C66  
                  u262_21 1745                    u406_25 0A8C                    u271_20 0C6D  
                  u263_20 174D                    u407_20 0AA1                    u271_21 0C6C  
                  u263_21 174C                    u407_21 0AA0                    u272_20 0C72  
                  u360_20 0384                    u408_20 0AA5                    u272_21 0C71  
                  u360_21 0383                    u408_21 0AA4                    u280_25 0D1B  
                  u264_25 174F                    u281_20 0D26                    u273_20 0C92  
                  u265_20 175F                    u361_20 03A3                    u409_20 06B5  
                  u281_21 0D25                    u273_21 0C91                    u265_21 175E  
                  u361_21 03A2                    u409_21 06B4                    u290_20 0D8B  
                  u274_20 0C98                    u266_20 1766                    u354_20 17B8  
                  u362_20 03A9                    u290_21 0D8A                    u274_21 0C97  
                  u266_21 1765                    u354_21 17B7                    u362_21 03A8  
                  u282_25 0D29                    u370_25 0489                    u291_20 0D9F  
                  u283_20 0D42                    u275_20 0C9D                    u363_20 03AE  
                  u291_21 0D9E                    u283_21 0D41                    u275_21 0C9C  
                  u371_21 04AD                    u363_21 03AD                    u371_22 04B4  
                  u371_23 04BB                    u283_25 0D3E                    u267_25 1769  
                  u355_25 17BB                    u292_20 0DA6                    u284_20 0D5B  
                  u276_20 0CB8                    u268_20 1777                    u356_20 17DF  
                  u364_20 03C5                    u292_21 0DA5                    u284_21 0D5A  
                  u276_21 0CB7                    u268_21 1776                    u356_21 17DE  
                  u380_21 05BE                    u372_21 04D8                    u364_21 03C4  
                  u380_22 05C5                    u372_22 04DF                    u380_23 05CC  
                  u372_23 04E6                    u293_20 0DAC                    u285_20 0D63  
                  u277_20 0CD6                    u269_20 177C                    u365_20 03CA  
                  u293_21 0DAB                    u285_21 0D62                    u277_21 0CD5  
                  u269_21 177B                    u365_21 03C9                    u357_25 17E2  
                  u381_25 05CE                    u373_25 04E8                    u294_20 0DBE  
                  u278_20 0D10                    u390_20 063C                    u358_20 0379  
                  u294_21 0DBD                    u278_21 0D0F                    u390_21 063B  
                  u374_21 050C                    u366_21 0417                    u358_21 0378  
                  u374_22 0513                    u366_22 041E                    u374_23 051A  
                  u366_23 0425                    u286_25 0D67                    u382_25 05E5  
                  u295_20 0DCD                    u287_20 0D72                    u391_20 064B  
                  u383_20 05F0                    u359_20 037F                    u287_21 0D71  
                  u383_21 05EF                    u375_21 0537                    u367_21 0433  
                  u359_21 037E                    u375_22 053E                    u367_22 043A  
                  u375_23 0545                    u367_23 0441                    u295_25 0DC8  
                  u279_25 0D12                    u391_25 0646                    u296_20 0DEA  
                  u392_20 0668                    u296_21 0DE9                    u392_21 0667  
                  u376_21 0562                    u368_21 045D                    u376_22 0569  
                  u368_22 0464                    u376_23 0570                    u368_23 046B  
                  u296_25 0DE6                    u288_25 0D75                    u392_25 0664  
                  u384_25 05F3                    u297_20 0E07                    u289_20 0D86  
                  u393_20 0682                    u385_20 0604                    u377_20 058A  
                  u297_21 0E06                    u289_21 0D85                    u393_21 0681  
                  u385_21 0603                    u369_21 0479                    u369_22 0480  
                  u369_23 0487                    u297_25 0E03                    u393_25 067E  
                  u377_25 0585                    u298_20 0E1C                    u394_20 069E  
                  u386_20 0609                    u298_21 0E1B                    u394_21 069D  
                  u386_21 0608                    u378_21 0596                    u378_22 059D  
                  u378_23 05A4                    u299_20 07E6                    u387_20 061D  
                  u379_20 05B2                    u395_20 09FD                    u299_21 07E5  
                  u387_21 061C                    u395_21 09FC                    u379_25 05AD  
                  u388_20 0624                    u396_20 0A01                    u388_21 0623  
                  u396_21 0A00                    u389_20 062A                    u397_20 0A21  
                  u389_21 0629                    u397_21 0A20                    u398_25 0A32  
                  u399_20 0A40                    u399_21 0A3F          __end_of___xxtofl 0B69  
               ??___fldiv 00D0                 ??___flmul 00B6                 ??___fltol 00E6  
       __end_ofi1___fldiv 0E2D         __end_ofi1___flmul 06B1         __end_ofi1___fltol 1788  
                  saved_w 007E           i1___fltol@sign1 0042              ___xxtofl@arg 00AA  
            ___xxtofl@exp 00A9              ___xxtofl@val 00A0   __end_of__initialization 0023  
              ___fltol@f1 00E2              ?i1__Umul8_16 0070            __pcstackCOMMON 0070  
           __end_of_setup 0957                 ?_PWM_duty 00EC            _OPTION_REGbits 0081  
     i1PWM_duty@particion 005B                   ??_setup 019A                __pbssBANK0 0067  
              __pbssBANK3 0190            i1___xxtofl@arg 007A            i1___xxtofl@exp 0079  
          i1___xxtofl@val 0070         __end_of__Umul8_16 07D8                __pmaintext 0B69  
              __pintentry 0004              ??i1_PWM_duty 0058                ??_PWM_duty 0196  
               ?___xxtofl 00A0       i1__Umul8_16@product 0074              PWM_duty@duty 00EC  
         duty_cicle@ciclo 0070        __end_ofi1_PWM_duty 1800                   ___fldiv 0E2D  
                 ___flmul 0027                   ___fltol 0858                 _ANSELbits 0188  
            ??i1___xxtofl 0074                   __ptext1 08D0                   __ptext2 0957  
                 __ptext3 169F                   __ptext4 0858                   __ptext5 0E2D  
                 __ptext6 0AAF                   __ptext7 0027                   __ptext8 07AF  
                 __ptext9 06B1              ??_PWM_config 00F0                 _T2CONbits 0012  
              _duty_cicle 0838                ??___xxtofl 00A4                   _dutyPot 0069  
    end_of_initialization 0023            i1PWM_duty@duty 0054                _periodoPot 0067  
              _potMapeado 0190        __end_ofi1___xxtofl 0AAF        __end_of_PWM_config 1710  
   i1__Umul8_16@word_mpld 0076                 _PORTCbits 0007             ___xxtofl@sign 00A8  
               _TRISCbits 0087                 i1___fldiv 0C5A                 i1___flmul 036C  
             ___fldiv@grs 00DC                 i1___fltol 1710               ___fldiv@rem 00D5  
             ___flmul@grs 00BC               _CCP1CONbits 0017               _CCP2CONbits 001D  
             ?_duty_cicle 0070       start_initialization 0013                ?i1___fldiv 0020  
             __end_of_isr 07AF                ?i1___flmul 003A                ?i1___fltol 003A  
               __Umul8_16 07AF                 ___fldiv@a 00C8                 ___fldiv@b 00CC  
               ___flmul@a 00B2                 ___flmul@b 00AE                 ___latbits 0002  
           __pcstackBANK0 0020             __pcstackBANK1 00A0             __pcstackBANK3 0196  
         i1___xxtofl@sign 0078         i1___fldiv@new_exp 0032  i1__Umul8_16@multiplicand 0070  
                ?___fldiv 00C8                  ?___flmul 00AE                  ?___fltol 00E2  
              ?__Umul8_16 00A0               ??i1___fldiv 0028               ??i1___flmul 0042  
             ??i1___fltol 003E         interrupt_function 0004                  _PIE1bits 008C  
                _PIR1bits 000C             PWM_duty@canal 0198      PWM_config@periodo_ms 00EC  
              _ADCON0bits 001F                _ADCON1bits 009F                  _PWM_duty 0957  
         PWM_config@canal 0196             ??i1__Umul8_16 0072               ??__Umul8_16 00A2  
            ??_duty_cicle 0072                  ___xxtofl 0AAF                  _isr$1218 0063  
                __ptext10 09F7                  __ptext11 036C                  __ptext12 07D8  
                __ptext13 1788                  __ptext14 1710                  __ptext15 0C5A  
                __ptext16 0838        __end_of_duty_cicle 0858       __end_ofi1__Umul8_16 07FF  
         i1PWM_duty@canal 005A                _INTCONbits 000B                  intlevel1 0000  
  i1__Umul8_16@multiplier 0078             _potenciometro 0194         PWM_duty@particion 0199  
              _OSCCONbits 008F                i1_PWM_duty 1788    __Umul8_16@multiplicand 00A0  
    __Umul8_16@multiplier 00A8               i1__Umul8_16 07D8         __Umul8_16@product 00A4  
